Microchip MPLAB XC8 Compiler V2.35

Linker command line:

-W-3 --edf=C:\Program Files\Microchip\xc8\v2.35\pic\dat\en_msgs.txt -cn \
  -h+dist/default/production\BOOST_Controller.X.production.sym \
  --cmf=dist/default/production\BOOST_Controller.X.production.cmf -z -w9 \
  --disl=596:off --norlf -Q16F877A \
  -oC:\Users\Ahmed\AppData\Local\Temp\xcAsr0so.4 --defsym=__MPLAB_BUILD=1 \
  -Mdist/default/production/BOOST_Controller.X.production.map \
  --md=C:\Users\Ahmed\AppData\Local\Temp\xcAsr0so.dat -E1 -ver=XC8 Compiler \
  --acfsm=1493 -ACODE=00h-07FFhx4 -ASTRCODE=00h-01FFFh -ASTRING=00h-0FFhx32 \
  -ACONST=00h-0FFhx32 -AENTRY=00h-0FFhx32 -ACOMMON=070h-07Fh \
  -ABANK0=020h-06Fh -ABANK1=0A0h-0EFh -ABANK2=0110h-016Fh \
  -ABANK3=0190h-01EFh -ARAM=020h-06Fh,0A0h-0EFh,0110h-016Fh,0190h-01EFh \
  -AABS1=020h-07Fh,0A0h-0EFh,0110h-016Fh,0190h-01EFh -ASFR0=00h-01Fh \
  -ASFR1=080h-09Fh -ASFR2=0100h-010Fh -ASFR3=0180h-018Fh \
  -ACONFIG=02007h-02007h -DCONFIG=2 -AIDLOC=02000h-02003h -DIDLOC=2 \
  -AEEDATA=00h-0FFh/02100h -peeprom_data=EEDATA -DEEDATA=2 -DCODE=2 \
  -DSTRCODE=2 -DSTRING=2 -DCONST=2 -DENTRY=2 \
  -preset_vec=00h,intentry,init,end_init -ppowerup=CODE -pcinit=CODE \
  -pfunctab=ENTRY -k C:\Users\Ahmed\AppData\Local\Temp\xcAsr0so.o \
  dist/default/production\BOOST_Controller.X.production.o 

Object code version is 3.11

Machine type is 16F877A



                Name                               Link     Load   Length Selector   Space Scale
C:\Users\Ahmed\AppData\Local\Temp\xcAsr0so.o
                end_init                              0        0        4        0       0
                config                             2007     2007        1        0       4
dist/default/production\BOOST_Controller.X.production.o
                cinit                               7FC      7FC        4      FF8       0
                config                             2007     2007        1        0       4
                text14                              E90      E90        9     1D20       0
                text13                              F36      F36       2A     1E6C       0
                text12                              F9A      F9A       66     1F34       0
                text11                              17B      17B       E1      2F6       0
                text10                              E99      E99       10     1D32       0
                text9                               EF0      EF0       21     1DE0       0
                text8                               ED0      ED0       20     1DA0       0
                text7                               EBB      EBB       15     1D76       0
                text6                                87       87       44      10E       0
                text5                               F60      F60       3A     1EC0       0
                text4                               F11      F11       25     1E22       0
                text3                               EA9      EA9       12     1D52       0
                text2                                86       86        1      10C       0
                text1                               25C      25C      5A0      4B8       0
                maintext                             CB       CB       B0      196       0
                cstackBANK0                          20       20       21       20       1
                cstackCOMMON                         70       70        E       70       1
                cstackBANK1                          A0       A0       36       A0       1
                strings                               4        4       7B        8       0

TOTAL           Name                               Link     Load   Length     Space
        CLASS   CODE           
                end_init                              0        0        4         0
                cinit                               7FC      7FC        4         0
                text14                              E90      E90        9         0
                text13                              F36      F36       2A         0
                text12                              F9A      F9A       66         0
                text11                              17B      17B       E1         0
                text10                              E99      E99       10         0
                text9                               EF0      EF0       21         0
                text8                               ED0      ED0       20         0
                text7                               EBB      EBB       15         0
                text6                                87       87       44         0
                text5                               F60      F60       3A         0
                text4                               F11      F11       25         0
                text3                               EA9      EA9       12         0
                text2                                86       86        1         0
                text1                               25C      25C      5A0         0
                maintext                             CB       CB       B0         0

        CLASS   STRCODE        

        CLASS   STRING         
                strings                               4        4       7B         0

        CLASS   CONST          

        CLASS   ENTRY          

        CLASS   COMMON         
                cstackCOMMON                         70       70        E         1

        CLASS   BANK0          
                cstackBANK0                          20       20       21         1

        CLASS   BANK1          
                cstackBANK1                          A0       A0       36         1

        CLASS   BANK2          

        CLASS   BANK3          

        CLASS   RAM            

        CLASS   ABS1           
                abs_s1                               7E       7E        2         1

        CLASS   SFR0           

        CLASS   SFR1           

        CLASS   SFR2           

        CLASS   SFR3           

        CLASS   CONFIG         
                config                             2007     2007        1         4

        CLASS   IDLOC          

        CLASS   EEDATA         

        CLASS   STACK          



SEGMENTS        Name                           Load    Length   Top    Selector   Space  Class     Delta

                reset_vec                      000000  000004  000004         0       0  CODE        2
                strings                        000004  00007B  00007F         8       0  STRING      2
                cstackBANK0                    000020  000021  000041        20       1  BANK0       1
                cstackCOMMON                   000070  00000E  00007E        70       1  COMMON      1
                cstackBANK1                    0000A0  000036  0000D6        A0       1  BANK1       1
                text2                          000086  000001  000087       10C       0  CODE        2
                text6                          000087  000044  0000CB       10E       0  CODE        2
                maintext                       0000CB  0000B0  00017B       196       0  CODE        2
                text11                         00017B  0000E1  00025C       2F6       0  CODE        2
                text1                          00025C  0005A0  0007FC       4B8       0  CODE        2
                cinit                          0007FC  000004  000800       FF8       0  CODE        2
                text14                         000E90  000009  000E99      1D20       0  CODE        2
                text10                         000E99  000010  000EA9      1D32       0  CODE        2
                text3                          000EA9  000012  000EBB      1D52       0  CODE        2
                text7                          000EBB  000015  000ED0      1D76       0  CODE        2
                text8                          000ED0  000020  000EF0      1DA0       0  CODE        2
                text9                          000EF0  000021  000F11      1DE0       0  CODE        2
                text4                          000F11  000025  000F36      1E22       0  CODE        2
                text13                         000F36  00002A  000F60      1E6C       0  CODE        2
                text5                          000F60  00003A  000F9A      1EC0       0  CODE        2
                text12                         000F9A  000066  001000      1F34       0  CODE        2


UNUSED ADDRESS RANGES

        Name                Unused          Largest block    Delta
        BANK0            0041-006F             2F           1
        BANK1            00D6-00EF             1A           1
        BANK2            0110-016F             60           1
        BANK3            0190-01EF             60           1
        CODE             007F-0085              7           2
                         0800-0E8F            690
                         1000-1FFF            800
        CONST            007F-0085              7           2
                         0800-0E8F            100
                         1000-1FFF            100
        EEDATA           2100-21FF            100           2
        ENTRY            007F-0085              7           2
                         0800-0E8F            100
                         1000-1FFF            100
        IDLOC            2000-2003              4           2
        RAM              0041-006F             2F           1
                         00D6-00EF             1A
                         0110-016F             60
                         0190-01EF             60
        SFR0             0000-001F             20           1
        SFR1             0080-009F             20           1
        SFR2             0100-010F             10           1
        SFR3             0180-018F             10           1
        STRCODE          007F-0085              7           2
                         0800-0E8F            690
                         1000-1FFF           1000
        STRING           007F-0085              7           2
                         0800-0E8F            100
                         1000-1FFF            100

                                  Symbol Table

?_printf                 cstackBANK0  0020
_LCD_Initialize                           
__Habs1                  abs1         0000
__Hbank0                 bank0        0000
__Hbank1                 bank1        0000
__Hbank2                 bank2        0000
__Hbank3                 bank3        0000
__Hclrtext               clrtext      0000
__Hcode                  code         0000
__Hcommon                common       0000
__HcstackBANK0           cstackBANK0  0000
__HcstackBANK1           cstackBANK1  0000
__HcstackCOMMON          cstackCOMMON 0000
__Heeprom_data           eeprom_data  0000
__Hfunctab               functab      0000
__Hinit                  init         0000
__Hintentry              intentry     0000
__Hmaintext              maintext     0000
__Hpowerup               powerup      0000
__Hram                   ram          0000
__Hreset_vec             reset_vec    0000
__Hsfr0                  sfr0         0000
__Hsfr1                  sfr1         0000
__Hsfr2                  sfr2         0000
__Hsfr3                  sfr3         0000
__Hspace_2               (abs)        0000
__Hspace_3               (abs)        0000
__Hstack                 stack        0000
__Hstrings               strings      0000
__Htext                  text         0000
__Labs1                  abs1         0000
__Lbank0                 bank0        0000
__Lbank1                 bank1        0000
__Lbank2                 bank2        0000
__Lbank3                 bank3        0000
__Lclrtext               clrtext      0000
__Lcode                  code         0000
__Lcommon                common       0000
__Lconfig                config       0000
__LcstackBANK0           cstackBANK0  0000
__LcstackBANK1           cstackBANK1  0000
__LcstackCOMMON          cstackCOMMON 0000
__Leeprom_data           eeprom_data  0000
__Lend_init              end_init     0000
__Lfunctab               functab      0000
__Linit                  init         0000
__Lintentry              intentry     0000
__Lmaintext              maintext     0000
__Lpowerup               powerup      0000
__Lram                   ram          0000
__Lreset_vec             reset_vec    0000
__Lsfr0                  sfr0         0000
__Lsfr1                  sfr1         0000
__Lsfr2                  sfr2         0000
__Lsfr3                  sfr3         0000
__Lspace_0               (abs)        0000
__Lspace_1               (abs)        0000
__Lspace_2               (abs)        0000
__Lspace_3               (abs)        0000
__Lspace_4               (abs)        0000
__Lstack                 stack        0000
__Lstrings               strings      0000
__Ltext                  text         0000
__S3                     (abs)        0000
___int_sp                stack        0000
___sp                    stack        0000
___stackhi               (abs)        0000
___stacklo               (abs)        0000
___latbits               (abs)        0002
__Hend_init              end_init     0004
__pstrings               strings      0004
__stringtab              strings      0004
_CCPR1L                  (abs)        0015
_CCP1CON                 (abs)        0017
_TXREG                   (abs)        0019
_RCREG                   (abs)        001A
_ADRESH                  (abs)        001E
_ADCON0                  (abs)        001F
UART_Init@baudrate       cstackBANK0  0020
__pcstackBANK0           cstackBANK0  0020
__stringbase             strings      0013
__end_of__stringtab      strings      0014
_octpowers               strings      0014
_printf$323              cstackBANK0  002B
_printf$324              cstackBANK0  002D
UART_Init@x              cstackBANK0  0030
_printf$330              cstackBANK0  0030
__end_of_octpowers       strings      0020
_dpowers                 strings      0020
__end_of_dpowers         strings      002A
_hexpowers               strings      002A
_TXIF                    (abs)        0064
__end_of_hexpowers       strings      0032
_RCIF                    (abs)        0065
?_Read_ADC               cstackCOMMON 0070
?___lldiv                cstackCOMMON 0070
?___lwdiv                cstackCOMMON 0070
?___wmul                 cstackCOMMON 0070
UART_Write@data          cstackCOMMON 0070
___bmul@multiplicand     cstackCOMMON 0070
___lldiv@divisor         cstackCOMMON 0070
___lwdiv@divisor         cstackCOMMON 0070
___wmul@multiplier       cstackCOMMON 0070
__pcstackCOMMON          cstackCOMMON 0070
_isdigit$613             cstackCOMMON 0070
UART_Write_Text@i        cstackCOMMON 0072
___bmul@product          cstackCOMMON 0072
___lwdiv@dividend        cstackCOMMON 0072
___wmul@multiplicand     cstackCOMMON 0072
Read_ADC@val             cstackCOMMON 0073
___bmul@multiplier       cstackCOMMON 0073
UART_Write_Text@text     cstackCOMMON 0074
___lldiv@dividend        cstackCOMMON 0074
___wmul@product          cstackCOMMON 0074
Read_ADC@channel         cstackCOMMON 0075
___lwdiv@quotient        cstackCOMMON 0075
___lwdiv@counter         cstackCOMMON 0077
?___lwmod                cstackCOMMON 0078
___lwmod@divisor         cstackCOMMON 0078
___lldiv@quotient        cstackCOMMON 0079
___lwmod@dividend        cstackCOMMON 007A
___lldiv@counter         cstackCOMMON 007D
___lwmod@counter         cstackCOMMON 007D
btemp                    (abs)        007E
_TRISA                   (abs)        0085
_TRISB                   (abs)        0086
_TRISC                   (abs)        0087
_TRISE                   (abs)        0089
_PR2                     (abs)        0092
_TMR2ON                  (abs)        0092
_SPBRG                   (abs)        0099
_ADRESL                  (abs)        009E
_ADCON1                  (abs)        009F
__pcstackBANK1           cstackBANK1  00A0
_CREN                    (abs)        00C4
_SPEN                    (abs)        00C7
__Hspace_1               (abs)        00D6
__S1                     (abs)        00D6
_GO_nDONE                (abs)        00FA
__ptext2                 text2        0086
_putch                   text2        0086
___lwdiv                 text6        0087
__end_of_putch           text2        0087
__ptext6                 text6        0087
__end_of___lwdiv         text6        00CB
__pmaintext              maintext     00CB
_main                    maintext     00CB
_UART_Init               text11       017B
__end_of_main            maintext     017B
__ptext11                text11       017B
_TRISC6                  (abs)        043E
_TRISC7                  (abs)        043F
__end_of_UART_Init       text11       025C
__ptext1                 text1        025C
_printf                  text1        025C
_TRMT                    (abs)        04C1
_BRGH                    (abs)        04C2
_SYNC                    (abs)        04C4
_TXEN                    (abs)        04C5
__Lcinit                 cinit        07FC
__end_of__initialization cinit        07FC
__end_of_printf          text1        07FC
__initialization         cinit        07FC
__Hcinit                 cinit        0800
__Hspace_0               (abs)        1000
__S0                     (abs)        1000
_ADC_Init                text14       0E90
__ptext14                text14       0E90
_UART_Write              text10       0E99
__end_of_ADC_Init        text14       0E99
__ptext10                text10       0E99
__end_of_UART_Write      text10       0EA9
__ptext3                 text3        0EA9
_isdigit                 text3        0EA9
___bmul                  text7        0EBB
__end_of_isdigit         text3        0EBB
__ptext7                 text7        0EBB
__end_of___bmul          text7        0ED0
__ptext8                 text8        0ED0
_memset                  text8        0ED0
_UART_Write_Text         text9        0EF0
__end_of_memset          text8        0EF0
__ptext9                 text9        0EF0
___wmul                  text4        0F11
__end_of_UART_Write_Text text9        0F11
__ptext4                 text4        0F11
_Read_ADC                text13       0F36
__end_of___wmul          text4        0F36
__ptext13                text13       0F36
___lwmod                 text5        0F60
__end_of_Read_ADC        text13       0F60
__ptext5                 text5        0F60
___lldiv                 text12       0F9A
__end_of___lwmod         text5        0F9A
__ptext12                text12       0F9A
__end_of___lldiv         text12       1000
__Hspace_4               (abs)        400F
__Hconfig                config       2008
intlevel0                functab      0000
intlevel1                functab      0000
intlevel2                functab      0000
intlevel3                functab      0000
intlevel4                functab      0000
intlevel5                functab      0000
reset_vec                reset_vec    0000
start                    init         0000
printf@idx               cstackBANK0  002F
printf@cp                cstackBANK0  0031
printf@len               cstackBANK0  0033
printf@ap                cstackBANK0  0035
printf@val               cstackBANK0  0036
printf@f                 cstackBANK0  0038
printf@prec              cstackBANK0  0039
printf@width             cstackBANK0  003A
printf@c                 cstackBANK0  003C
printf@flag              cstackBANK0  003D
memset@c                 cstackCOMMON 0070
isdigit@c                cstackCOMMON 0071
memset@n                 cstackCOMMON 0072
memset@p1                cstackCOMMON 0075
memset@p                 cstackCOMMON 0076
main@Str                 cstackBANK1  00A0
main@SETPOINT            cstackBANK1  00D2
main@FEEDBACK            cstackBANK1  00D4
end_of_initialization    cinit        07FC
start_initialization     cinit        07FC
wtemp0                   (abs)        007E
