

Microchip MPLAB XC8 Assembler V2.35 build 20211206165544 
                                                                                               Wed Jan 04 20:51:55 2023

Microchip MPLAB XC8 C Compiler v2.35 (Free license) build 20211206165544 Og1 
     1                           	processor	16LF877A
     2                           	pagewidth 120
     3                           	opt	flic
     4                           	psect	idataBANK1,global,class=CODE,delta=2,noexec
     5                           	psect	strings,global,class=STRING,delta=2,noexec
     6                           	psect	cinit,global,class=CODE,merge=1,delta=2
     7                           	psect	dataBANK1,global,class=BANK1,space=1,delta=1,noexec
     8                           	psect	inittext,global,class=CODE,delta=2
     9                           	psect	cstackBANK3,global,class=BANK3,space=1,delta=1,noexec
    10                           	psect	cstackBANK1,global,class=BANK1,space=1,delta=1,noexec
    11                           	psect	cstackCOMMON,global,class=COMMON,space=1,delta=1,noexec
    12                           	psect	cstackBANK0,global,class=BANK0,space=1,delta=1,noexec
    13                           	psect	maintext,global,class=CODE,split=1,delta=2
    14                           	psect	text1,local,class=CODE,merge=1,delta=2,group=1
    15                           	psect	text2,local,class=CODE,merge=1,delta=2,group=1
    16                           	psect	text3,local,class=CODE,merge=1,delta=2,group=2
    17                           	psect	text4,local,class=CODE,merge=1,delta=2,group=2
    18                           	psect	text5,local,class=CODE,merge=1,delta=2,group=3
    19                           	psect	text6,local,class=CODE,merge=1,delta=2,group=1
    20                           	psect	text7,local,class=CODE,merge=1,delta=2,group=2
    21                           	psect	text8,local,class=CODE,merge=1,delta=2,group=2
    22                           	psect	text9,local,class=CODE,merge=1,delta=2,group=2
    23                           	psect	text10,local,class=CODE,merge=1,delta=2,group=2
    24                           	psect	text11,local,class=CODE,merge=1,delta=2,group=2
    25                           	psect	text12,local,class=CODE,merge=1,delta=2,group=2
    26                           	psect	text13,local,class=CODE,merge=1,delta=2,group=2
    27                           	psect	text14,local,class=CODE,merge=1,delta=2,group=2
    28                           	psect	text15,local,class=CODE,merge=1,delta=2,group=2
    29                           	psect	text16,local,class=CODE,merge=1,delta=2,group=2
    30                           	psect	text17,local,class=CODE,merge=1,delta=2,group=2
    31                           	psect	text18,local,class=CODE,merge=1,delta=2,group=2
    32                           	psect	text19,local,class=CODE,merge=1,delta=2,group=2
    33                           	psect	text20,local,class=CODE,merge=1,delta=2,group=2
    34                           	psect	text21,local,class=CODE,merge=1,delta=2,group=2
    35                           	psect	text22,local,class=CODE,merge=1,delta=2,group=3
    36                           	psect	text23,local,class=CODE,merge=1,delta=2,group=2
    37                           	psect	text24,local,class=CODE,merge=1,delta=2
    38                           	psect	text25,local,class=CODE,merge=1,delta=2
    39                           	psect	text26,local,class=CODE,merge=1,delta=2
    40                           	psect	text27,local,class=CODE,merge=1,delta=2,group=2
    41                           	psect	text28,local,class=CODE,merge=1,delta=2
    42                           	psect	text29,local,class=CODE,merge=1,delta=2
    43                           	psect	text30,local,class=CODE,merge=1,delta=2
    44                           	psect	text31,local,class=CODE,merge=1,delta=2
    45                           	psect	text32,local,class=CODE,merge=1,delta=2
    46                           	psect	text33,local,class=CODE,merge=1,delta=2
    47                           	psect	text34,local,class=CODE,merge=1,delta=2
    48                           	psect	text35,local,class=CODE,merge=1,delta=2
    49                           	psect	text36,local,class=CODE,merge=1,delta=2
    50                           	psect	text37,local,class=CODE,merge=1,delta=2
    51                           	psect	text38,local,class=CODE,merge=1,delta=2
    52                           	psect	text39,local,class=CODE,merge=1,delta=2
    53                           	dabs	1,0x7E,2
    54  0000                     
    55                           ; Version 2.20
    56                           ; Generated 12/02/2020 GMT
    57                           ; 
    58                           ; Copyright © 2020, Microchip Technology Inc. and its subsidiaries ("Microchip")
    59                           ; All rights reserved.
    60                           ; 
    61                           ; This software is developed by Microchip Technology Inc. and its subsidiaries ("Microch
      +                          ip").
    62                           ; 
    63                           ; Redistribution and use in source and binary forms, with or without modification, are
    64                           ; permitted provided that the following conditions are met:
    65                           ; 
    66                           ;     1. Redistributions of source code must retain the above copyright notice, this lis
      +                          t of
    67                           ;        conditions and the following disclaimer.
    68                           ; 
    69                           ;     2. Redistributions in binary form must reproduce the above copyright notice, this 
      +                          list
    70                           ;        of conditions and the following disclaimer in the documentation and/or other
    71                           ;        materials provided with the distribution.
    72                           ; 
    73                           ;     3. Microchip's name may not be used to endorse or promote products derived from th
      +                          is
    74                           ;        software without specific prior written permission.
    75                           ; 
    76                           ; THIS SOFTWARE IS PROVIDED BY MICROCHIP "AS IS" AND ANY EXPRESS OR IMPLIED WARRANTIES,
    77                           ; INCLUDING, BUT NOT LIMITED TO, THE IMPLIED WARRANTIES OF MERCHANTABILITY AND FITNESS F
      +                          OR
    78                           ; PURPOSE ARE DISCLAIMED.  IN NO EVENT SHALL MICROCHIP BE LIABLE FOR ANY DIRECT, INDIREC
      +                          T,
    79                           ; INCIDENTAL, SPECIAL, EXEMPLARY, OR CONSEQUENTIAL DAMAGES (INCLUDING BUT NOT LIMITED TO
    80                           ; PROCUREMENT OF SUBSTITUTE GOODS OR SERVICES; LOSS OF USE, DATA OR PROFITS; OR BUSINESS
    81                           ; INTERRUPTION) HOWSOEVER CAUSED AND ON ANY THEORY OF LIABILITY, WHETHER IN CONTRACT, ST
      +                          RICT
    82                           ; LIABILITY, OR TORT (INCLUDING NEGLIGENCE OR OTHERWISE) ARISING IN ANY WAY OUT OF THE U
      +                          SE OF
    83                           ; THIS SOFTWARE, EVEN IF ADVISED OF THE POSSIBILITY OF SUCH DAMAGE.
    84                           ; 
    85                           ; 
    86                           ; Code-generator required, PIC16LF877A Definitions
    87                           ; 
    88                           ; SFR Addresses
    89  0000                     	;# 
    90  0001                     	;# 
    91  0002                     	;# 
    92  0003                     	;# 
    93  0004                     	;# 
    94  0005                     	;# 
    95  0006                     	;# 
    96  0007                     	;# 
    97  0008                     	;# 
    98  0009                     	;# 
    99  000A                     	;# 
   100  000B                     	;# 
   101  000C                     	;# 
   102  000D                     	;# 
   103  000E                     	;# 
   104  000E                     	;# 
   105  000F                     	;# 
   106  0010                     	;# 
   107  0011                     	;# 
   108  0012                     	;# 
   109  0013                     	;# 
   110  0014                     	;# 
   111  0015                     	;# 
   112  0015                     	;# 
   113  0016                     	;# 
   114  0017                     	;# 
   115  0018                     	;# 
   116  0019                     	;# 
   117  001A                     	;# 
   118  001B                     	;# 
   119  001B                     	;# 
   120  001C                     	;# 
   121  001D                     	;# 
   122  001E                     	;# 
   123  001F                     	;# 
   124  0081                     	;# 
   125  0085                     	;# 
   126  0086                     	;# 
   127  0087                     	;# 
   128  0088                     	;# 
   129  0089                     	;# 
   130  008C                     	;# 
   131  008D                     	;# 
   132  008E                     	;# 
   133  0091                     	;# 
   134  0092                     	;# 
   135  0093                     	;# 
   136  0094                     	;# 
   137  0098                     	;# 
   138  0099                     	;# 
   139  009C                     	;# 
   140  009D                     	;# 
   141  009E                     	;# 
   142  009F                     	;# 
   143  010C                     	;# 
   144  010D                     	;# 
   145  010E                     	;# 
   146  010F                     	;# 
   147  018C                     	;# 
   148  018D                     	;# 
   149  0000                     	;# 
   150  0001                     	;# 
   151  0002                     	;# 
   152  0003                     	;# 
   153  0004                     	;# 
   154  0005                     	;# 
   155  0006                     	;# 
   156  0007                     	;# 
   157  0008                     	;# 
   158  0009                     	;# 
   159  000A                     	;# 
   160  000B                     	;# 
   161  000C                     	;# 
   162  000D                     	;# 
   163  000E                     	;# 
   164  000E                     	;# 
   165  000F                     	;# 
   166  0010                     	;# 
   167  0011                     	;# 
   168  0012                     	;# 
   169  0013                     	;# 
   170  0014                     	;# 
   171  0015                     	;# 
   172  0015                     	;# 
   173  0016                     	;# 
   174  0017                     	;# 
   175  0018                     	;# 
   176  0019                     	;# 
   177  001A                     	;# 
   178  001B                     	;# 
   179  001B                     	;# 
   180  001C                     	;# 
   181  001D                     	;# 
   182  001E                     	;# 
   183  001F                     	;# 
   184  0081                     	;# 
   185  0085                     	;# 
   186  0086                     	;# 
   187  0087                     	;# 
   188  0088                     	;# 
   189  0089                     	;# 
   190  008C                     	;# 
   191  008D                     	;# 
   192  008E                     	;# 
   193  0091                     	;# 
   194  0092                     	;# 
   195  0093                     	;# 
   196  0094                     	;# 
   197  0098                     	;# 
   198  0099                     	;# 
   199  009C                     	;# 
   200  009D                     	;# 
   201  009E                     	;# 
   202  009F                     	;# 
   203  010C                     	;# 
   204  010D                     	;# 
   205  010E                     	;# 
   206  010F                     	;# 
   207  018C                     	;# 
   208  018D                     	;# 
   209  0000                     	;# 
   210  0001                     	;# 
   211  0002                     	;# 
   212  0003                     	;# 
   213  0004                     	;# 
   214  0005                     	;# 
   215  0006                     	;# 
   216  0007                     	;# 
   217  0008                     	;# 
   218  0009                     	;# 
   219  000A                     	;# 
   220  000B                     	;# 
   221  000C                     	;# 
   222  000D                     	;# 
   223  000E                     	;# 
   224  000E                     	;# 
   225  000F                     	;# 
   226  0010                     	;# 
   227  0011                     	;# 
   228  0012                     	;# 
   229  0013                     	;# 
   230  0014                     	;# 
   231  0015                     	;# 
   232  0015                     	;# 
   233  0016                     	;# 
   234  0017                     	;# 
   235  0018                     	;# 
   236  0019                     	;# 
   237  001A                     	;# 
   238  001B                     	;# 
   239  001B                     	;# 
   240  001C                     	;# 
   241  001D                     	;# 
   242  001E                     	;# 
   243  001F                     	;# 
   244  0081                     	;# 
   245  0085                     	;# 
   246  0086                     	;# 
   247  0087                     	;# 
   248  0088                     	;# 
   249  0089                     	;# 
   250  008C                     	;# 
   251  008D                     	;# 
   252  008E                     	;# 
   253  0091                     	;# 
   254  0092                     	;# 
   255  0093                     	;# 
   256  0094                     	;# 
   257  0098                     	;# 
   258  0099                     	;# 
   259  009C                     	;# 
   260  009D                     	;# 
   261  009E                     	;# 
   262  009F                     	;# 
   263  010C                     	;# 
   264  010D                     	;# 
   265  010E                     	;# 
   266  010F                     	;# 
   267  018C                     	;# 
   268  018D                     	;# 
   269  0000                     	;# 
   270  0001                     	;# 
   271  0002                     	;# 
   272  0003                     	;# 
   273  0004                     	;# 
   274  0005                     	;# 
   275  0006                     	;# 
   276  0007                     	;# 
   277  0008                     	;# 
   278  0009                     	;# 
   279  000A                     	;# 
   280  000B                     	;# 
   281  000C                     	;# 
   282  000D                     	;# 
   283  000E                     	;# 
   284  000E                     	;# 
   285  000F                     	;# 
   286  0010                     	;# 
   287  0011                     	;# 
   288  0012                     	;# 
   289  0013                     	;# 
   290  0014                     	;# 
   291  0015                     	;# 
   292  0015                     	;# 
   293  0016                     	;# 
   294  0017                     	;# 
   295  0018                     	;# 
   296  0019                     	;# 
   297  001A                     	;# 
   298  001B                     	;# 
   299  001B                     	;# 
   300  001C                     	;# 
   301  001D                     	;# 
   302  001E                     	;# 
   303  001F                     	;# 
   304  0081                     	;# 
   305  0085                     	;# 
   306  0086                     	;# 
   307  0087                     	;# 
   308  0088                     	;# 
   309  0089                     	;# 
   310  008C                     	;# 
   311  008D                     	;# 
   312  008E                     	;# 
   313  0091                     	;# 
   314  0092                     	;# 
   315  0093                     	;# 
   316  0094                     	;# 
   317  0098                     	;# 
   318  0099                     	;# 
   319  009C                     	;# 
   320  009D                     	;# 
   321  009E                     	;# 
   322  009F                     	;# 
   323  010C                     	;# 
   324  010D                     	;# 
   325  010E                     	;# 
   326  010F                     	;# 
   327  018C                     	;# 
   328  018D                     	;# 
   329  0000                     	;# 
   330  0001                     	;# 
   331  0002                     	;# 
   332  0003                     	;# 
   333  0004                     	;# 
   334  0005                     	;# 
   335  0006                     	;# 
   336  0007                     	;# 
   337  0008                     	;# 
   338  0009                     	;# 
   339  000A                     	;# 
   340  000B                     	;# 
   341  000C                     	;# 
   342  000D                     	;# 
   343  000E                     	;# 
   344  000E                     	;# 
   345  000F                     	;# 
   346  0010                     	;# 
   347  0011                     	;# 
   348  0012                     	;# 
   349  0013                     	;# 
   350  0014                     	;# 
   351  0015                     	;# 
   352  0015                     	;# 
   353  0016                     	;# 
   354  0017                     	;# 
   355  0018                     	;# 
   356  0019                     	;# 
   357  001A                     	;# 
   358  001B                     	;# 
   359  001B                     	;# 
   360  001C                     	;# 
   361  001D                     	;# 
   362  001E                     	;# 
   363  001F                     	;# 
   364  0081                     	;# 
   365  0085                     	;# 
   366  0086                     	;# 
   367  0087                     	;# 
   368  0088                     	;# 
   369  0089                     	;# 
   370  008C                     	;# 
   371  008D                     	;# 
   372  008E                     	;# 
   373  0091                     	;# 
   374  0092                     	;# 
   375  0093                     	;# 
   376  0094                     	;# 
   377  0098                     	;# 
   378  0099                     	;# 
   379  009C                     	;# 
   380  009D                     	;# 
   381  009E                     	;# 
   382  009F                     	;# 
   383  010C                     	;# 
   384  010D                     	;# 
   385  010E                     	;# 
   386  010F                     	;# 
   387  018C                     	;# 
   388  018D                     	;# 
   389  0000                     	;# 
   390  0001                     	;# 
   391  0002                     	;# 
   392  0003                     	;# 
   393  0004                     	;# 
   394  0005                     	;# 
   395  0006                     	;# 
   396  0007                     	;# 
   397  0008                     	;# 
   398  0009                     	;# 
   399  000A                     	;# 
   400  000B                     	;# 
   401  000C                     	;# 
   402  000D                     	;# 
   403  000E                     	;# 
   404  000E                     	;# 
   405  000F                     	;# 
   406  0010                     	;# 
   407  0011                     	;# 
   408  0012                     	;# 
   409  0013                     	;# 
   410  0014                     	;# 
   411  0015                     	;# 
   412  0015                     	;# 
   413  0016                     	;# 
   414  0017                     	;# 
   415  0018                     	;# 
   416  0019                     	;# 
   417  001A                     	;# 
   418  001B                     	;# 
   419  001B                     	;# 
   420  001C                     	;# 
   421  001D                     	;# 
   422  001E                     	;# 
   423  001F                     	;# 
   424  0081                     	;# 
   425  0085                     	;# 
   426  0086                     	;# 
   427  0087                     	;# 
   428  0088                     	;# 
   429  0089                     	;# 
   430  008C                     	;# 
   431  008D                     	;# 
   432  008E                     	;# 
   433  0091                     	;# 
   434  0092                     	;# 
   435  0093                     	;# 
   436  0094                     	;# 
   437  0098                     	;# 
   438  0099                     	;# 
   439  009C                     	;# 
   440  009D                     	;# 
   441  009E                     	;# 
   442  009F                     	;# 
   443  010C                     	;# 
   444  010D                     	;# 
   445  010E                     	;# 
   446  010F                     	;# 
   447  018C                     	;# 
   448  018D                     	;# 
   449                           
   450                           	psect	idataBANK1
   451  0005                     __pidataBANK1:
   452                           
   453                           ;initializer for LCD_Init@F1004
   454  0005  3428               	retlw	40
   455  0006  3433               	retlw	51
   456  0007  3432               	retlw	50
   457  0008  3406               	retlw	6
   458  0009  340F               	retlw	15
   459  000A  3480               	retlw	128
   460  000B  3400               	retlw	0
   461                           
   462                           	psect	strings
   463  0800                     __pstrings:
   464  0800                     stringtab:
   465  0800                     __stringtab:
   466                           
   467                           ;	String table - string pointers are 1 byte each
   468  0800  1BFF               	btfsc	btemp+1,7
   469  0801  280A               	ljmp	stringcode
   470  0802  1383               	bcf	3,7
   471  0803  187F               	btfsc	btemp+1,0
   472  0804  1783               	bsf	3,7
   473  0805  0800               	movf	0,w
   474  0806  0A84               	incf	4,f
   475  0807  1903               	skipnz
   476  0808  0AFF               	incf	btemp+1,f
   477  0809  0008               	return
   478  080A                     stringcode:
   479  080A                     stringdir:
   480  080A  3008               	movlw	high stringdir
   481  080B  008A               	movwf	10
   482  080C  0804               	movf	4,w
   483  080D  0A84               	incf	4,f
   484  080E  0782               	addwf	2,f
   485  080F                     __stringbase:
   486  080F  3400               	retlw	0
   487  0810                     __end_of__stringtab:
   488  0810                     __powers_:
   489  0810  3400               	retlw	0
   490  0811  3400               	retlw	0
   491  0812  3480               	retlw	128
   492  0813  343F               	retlw	63
   493  0814  3400               	retlw	0
   494  0815  3400               	retlw	0
   495  0816  3420               	retlw	32
   496  0817  3441               	retlw	65
   497  0818  3400               	retlw	0
   498  0819  3400               	retlw	0
   499  081A  34C8               	retlw	200
   500  081B  3442               	retlw	66
   501  081C  3400               	retlw	0
   502  081D  3400               	retlw	0
   503  081E  347A               	retlw	122
   504  081F  3444               	retlw	68
   505  0820  3400               	retlw	0
   506  0821  3440               	retlw	64
   507  0822  341C               	retlw	28
   508  0823  3446               	retlw	70
   509  0824  3400               	retlw	0
   510  0825  3450               	retlw	80
   511  0826  34C3               	retlw	195
   512  0827  3447               	retlw	71
   513  0828  3400               	retlw	0
   514  0829  3424               	retlw	36
   515  082A  3474               	retlw	116
   516  082B  3449               	retlw	73
   517  082C  3480               	retlw	128
   518  082D  3496               	retlw	150
   519  082E  3418               	retlw	24
   520  082F  344B               	retlw	75
   521  0830  3420               	retlw	32
   522  0831  34BC               	retlw	188
   523  0832  34BE               	retlw	190
   524  0833  344C               	retlw	76
   525  0834  3428               	retlw	40
   526  0835  346B               	retlw	107
   527  0836  346E               	retlw	110
   528  0837  344E               	retlw	78
   529  0838  34F9               	retlw	249
   530  0839  3402               	retlw	2
   531  083A  3415               	retlw	21
   532  083B  3450               	retlw	80
   533  083C  34EC               	retlw	236
   534  083D  3478               	retlw	120
   535  083E  34AD               	retlw	173
   536  083F  3460               	retlw	96
   537  0840  34CA               	retlw	202
   538  0841  34F2               	retlw	242
   539  0842  3449               	retlw	73
   540  0843  3471               	retlw	113
   541  0844                     __end_of__powers_:
   542  0844                     __npowers_:
   543  0844  3400               	retlw	0
   544  0845  3400               	retlw	0
   545  0846  3480               	retlw	128
   546  0847  343F               	retlw	63
   547  0848  34CD               	retlw	205
   548  0849  34CC               	retlw	204
   549  084A  34CC               	retlw	204
   550  084B  343D               	retlw	61
   551  084C  340A               	retlw	10
   552  084D  34D7               	retlw	215
   553  084E  3423               	retlw	35
   554  084F  343C               	retlw	60
   555  0850  346F               	retlw	111
   556  0851  3412               	retlw	18
   557  0852  3483               	retlw	131
   558  0853  343A               	retlw	58
   559  0854  3417               	retlw	23
   560  0855  34B7               	retlw	183
   561  0856  34D1               	retlw	209
   562  0857  3438               	retlw	56
   563  0858  34AC               	retlw	172
   564  0859  34C5               	retlw	197
   565  085A  3427               	retlw	39
   566  085B  3437               	retlw	55
   567  085C  34BD               	retlw	189
   568  085D  3437               	retlw	55
   569  085E  3486               	retlw	134
   570  085F  3435               	retlw	53
   571  0860  3495               	retlw	149
   572  0861  34BF               	retlw	191
   573  0862  34D6               	retlw	214
   574  0863  3433               	retlw	51
   575  0864  3477               	retlw	119
   576  0865  34CC               	retlw	204
   577  0866  342B               	retlw	43
   578  0867  3432               	retlw	50
   579  0868  345F               	retlw	95
   580  0869  3470               	retlw	112
   581  086A  3489               	retlw	137
   582  086B  3430               	retlw	48
   583  086C  34FF               	retlw	255
   584  086D  34E6               	retlw	230
   585  086E  34DB               	retlw	219
   586  086F  342E               	retlw	46
   587  0870  3408               	retlw	8
   588  0871  34E5               	retlw	229
   589  0872  343C               	retlw	60
   590  0873  341E               	retlw	30
   591  0874  3460               	retlw	96
   592  0875  3442               	retlw	66
   593  0876  34A2               	retlw	162
   594  0877  340D               	retlw	13
   595  0878                     __end_of__npowers_:
   596  0878                     _dpowers:
   597  0878  3401               	retlw	1
   598  0879  3400               	retlw	0
   599  087A  3400               	retlw	0
   600  087B  3400               	retlw	0
   601  087C  340A               	retlw	10
   602  087D  3400               	retlw	0
   603  087E  3400               	retlw	0
   604  087F  3400               	retlw	0
   605  0880  3464               	retlw	100
   606  0881  3400               	retlw	0
   607  0882  3400               	retlw	0
   608  0883  3400               	retlw	0
   609  0884  34E8               	retlw	232
   610  0885  3403               	retlw	3
   611  0886  3400               	retlw	0
   612  0887  3400               	retlw	0
   613  0888  3410               	retlw	16
   614  0889  3427               	retlw	39
   615  088A  3400               	retlw	0
   616  088B  3400               	retlw	0
   617  088C  34A0               	retlw	160
   618  088D  3486               	retlw	134
   619  088E  3401               	retlw	1
   620  088F  3400               	retlw	0
   621  0890  3440               	retlw	64
   622  0891  3442               	retlw	66
   623  0892  340F               	retlw	15
   624  0893  3400               	retlw	0
   625  0894  3480               	retlw	128
   626  0895  3496               	retlw	150
   627  0896  3498               	retlw	152
   628  0897  3400               	retlw	0
   629  0898  3400               	retlw	0
   630  0899  34E1               	retlw	225
   631  089A  34F5               	retlw	245
   632  089B  3405               	retlw	5
   633  089C  3400               	retlw	0
   634  089D  34CA               	retlw	202
   635  089E  349A               	retlw	154
   636  089F  343B               	retlw	59
   637  08A0                     __end_of_dpowers:
   638  001B                     _CCPR2L	set	27
   639  001D                     _CCP2CON	set	29
   640  0015                     _CCPR1L	set	21
   641  0017                     _CCP1CON	set	23
   642  001E                     _ADRESH	set	30
   643  001F                     _ADCON0	set	31
   644  0008                     _PORTD	set	8
   645  001A                     _RCREG	set	26
   646  0019                     _TXREG	set	25
   647  0018                     _RCSTA	set	24
   648  0092                     _TMR2ON	set	146
   649  00FA                     _GO_DONE	set	250
   650  00FA                     _GO	set	250
   651  00F8                     _ADON	set	248
   652  0065                     _RCIF	set	101
   653  0064                     _TXIF	set	100
   654  0092                     _PR2	set	146
   655  009E                     _ADRESL	set	158
   656  0085                     _TRISA	set	133
   657  009F                     _ADCON1	set	159
   658  0088                     _TRISD	set	136
   659  0099                     _SPBRG	set	153
   660  0098                     _TXSTA	set	152
   661  0087                     _TRISC	set	135
   662  08A0                     STR_3:
   663  08A0  3443               	retlw	67	;'C'
   664  08A1  3448               	retlw	72	;'H'
   665  08A2  3430               	retlw	48	;'0'
   666  08A3  3420               	retlw	32	;' '
   667  08A4  343D               	retlw	61	;'='
   668  08A5  3420               	retlw	32	;' '
   669  08A6  3425               	retlw	37	;'%'
   670  08A7  342E               	retlw	46	;'.'
   671  08A8  3433               	retlw	51	;'3'
   672  08A9  3466               	retlw	102	;'f'
   673  08AA  3420               	retlw	32	;' '
   674  08AB  342D               	retlw	45	;'-'
   675  08AC  342D               	retlw	45	;'-'
   676  08AD  3420               	retlw	32	;' '
   677  08AE  3443               	retlw	67	;'C'
   678  08AF  3448               	retlw	72	;'H'
   679  08B0  3431               	retlw	49	;'1'
   680  08B1  3420               	retlw	32	;' '
   681  08B2  343D               	retlw	61	;'='
   682  08B3  3420               	retlw	32	;' '
   683  08B4  3425               	retlw	37	;'%'
   684  08B5  342E               	retlw	46	;'.'
   685  08B6  3433               	retlw	51	;'3'
   686  08B7  3466               	retlw	102	;'f'
   687  08B8  3400               	retlw	0
   688  08B9                     STR_1:
   689  08B9  3453               	retlw	83	;'S'
   690  08BA  3479               	retlw	121	;'y'
   691  08BB  3473               	retlw	115	;'s'
   692  08BC  3474               	retlw	116	;'t'
   693  08BD  3465               	retlw	101	;'e'
   694  08BE  346D               	retlw	109	;'m'
   695  08BF  3420               	retlw	32	;' '
   696  08C0  3453               	retlw	83	;'S'
   697  08C1  3474               	retlw	116	;'t'
   698  08C2  3461               	retlw	97	;'a'
   699  08C3  3472               	retlw	114	;'r'
   700  08C4  3474               	retlw	116	;'t'
   701  08C5  342E               	retlw	46	;'.'
   702  08C6  342E               	retlw	46	;'.'
   703  08C7  342E               	retlw	46	;'.'
   704  08C8  342E               	retlw	46	;'.'
   705  08C9  340D               	retlw	13
   706  08CA  340A               	retlw	10
   707  08CB  3400               	retlw	0
   708  08CC                     STR_2:
   709  08CC  3453               	retlw	83	;'S'
   710  08CD  3479               	retlw	121	;'y'
   711  08CE  3473               	retlw	115	;'s'
   712  08CF  3474               	retlw	116	;'t'
   713  08D0  3465               	retlw	101	;'e'
   714  08D1  346D               	retlw	109	;'m'
   715  08D2  3420               	retlw	32	;' '
   716  08D3  3453               	retlw	83	;'S'
   717  08D4  3474               	retlw	116	;'t'
   718  08D5  3461               	retlw	97	;'a'
   719  08D6  3472               	retlw	114	;'r'
   720  08D7  3474               	retlw	116	;'t'
   721  08D8  342E               	retlw	46	;'.'
   722  08D9  342E               	retlw	46	;'.'
   723  08DA  342E               	retlw	46	;'.'
   724  08DB  342E               	retlw	46	;'.'
   725  08DC  3400               	retlw	0
   726  08C9                     
   727                           	psect	cinit
   728  07EE                     start_initialization:	
   729                           ; #config settings
   730                           
   731  07EE                     __initialization:
   732                           
   733                           ; Initialize objects allocated to BANK1
   734  07EE  1383               	bcf	3,7	;select IRP bank0
   735  07EF  30D6               	movlw	low (__pdataBANK1+7)
   736  07F0  00FD               	movwf	btemp+-1
   737  07F1  3000               	movlw	high __pidataBANK1
   738  07F2  00FE               	movwf	btemp
   739  07F3  3005               	movlw	low __pidataBANK1
   740  07F4  00FF               	movwf	btemp+1
   741  07F5  30CF               	movlw	low __pdataBANK1
   742  07F6  0084               	movwf	4
   743  07F7  160A  158A  205D  120A  118A  	fcall	init_ram0
   744  07FC                     end_of_initialization:	
   745                           ;End of C runtime variable initialization code
   746                           
   747  07FC                     __end_of__initialization:
   748  07FC  0183               	clrf	3
   749  07FD  160A  118A  2AF6   	ljmp	_main	;jump to C main() function
   750                           
   751                           	psect	dataBANK1
   752  00CF                     __pdataBANK1:
   753  00CF                     LCD_Init@F1004:
   754  00CF                     	ds	7
   755                           
   756                           	psect	inittext
   757  1859                     init_fetch0:	
   758                           ;	Called with low address in FSR and high address in W
   759                           
   760  1859  087E               	movf	btemp,w
   761  185A  008A               	movwf	10
   762  185B  087F               	movf	btemp+1,w
   763  185C  0082               	movwf	2
   764  185D                     init_ram0:	
   765                           ;Called with:
   766                           ;	high address of idata address in btemp 
   767                           ;	low address of idata address in btemp+1 
   768                           ;	low address of data in FSR
   769                           ;	high address + 1 of data in btemp-1
   770                           
   771  185D  160A  158A  2059  160A  158A  	fcall	init_fetch0
   772  1862  0080               	movwf	0
   773  1863  0A84               	incf	4,f
   774  1864  0804               	movf	4,w
   775  1865  067D               	xorwf	btemp+-1,w
   776  1866  1903               	btfsc	3,2
   777  1867  3400               	retlw	0
   778  1868  0AFF               	incf	btemp+1,f
   779  1869  1903               	btfsc	3,2
   780  186A  0AFE               	incf	btemp,f
   781  186B  285D               	goto	init_ram0
   782                           
   783                           	psect	cstackBANK3
   784  0190                     __pcstackBANK3:
   785  0190                     main@Str:
   786                           
   787                           ; 50 bytes @ 0x0
   788  0190                     	ds	50
   789  01C2                     main@Count:
   790                           
   791                           ; 2 bytes @ 0x32
   792  01C2                     	ds	2
   793  01C4                     main@SetPoint:
   794                           
   795                           ; 4 bytes @ 0x34
   796  01C4                     	ds	4
   797  01C8                     main@FeedBack:
   798                           
   799                           ; 4 bytes @ 0x38
   800  01C8                     	ds	4
   801  01CC                     main@DutyCycle:
   802                           
   803                           ; 1 bytes @ 0x3C
   804  01CC                     	ds	1
   805                           
   806                           	psect	cstackBANK1
   807  00A0                     __pcstackBANK1:
   808  00A0                     ??___flge:
   809                           
   810                           ; 1 bytes @ 0x0
   811  00A0                     	ds	4
   812  00A4                     ?_sprintf:
   813  00A4                     sprintf@f:	
   814                           ; 2 bytes @ 0x4
   815                           
   816                           
   817                           ; 1 bytes @ 0x4
   818  00A4                     	ds	9
   819  00AD                     ??_sprintf:
   820                           
   821                           ; 1 bytes @ 0xD
   822  00AD                     	ds	5
   823  00B2                     _sprintf$874:
   824                           
   825                           ; 4 bytes @ 0x12
   826  00B2                     	ds	4
   827  00B6                     sprintf@ap:
   828                           
   829                           ; 1 bytes @ 0x16
   830  00B6                     	ds	1
   831  00B7                     sprintf@flag:
   832                           
   833                           ; 2 bytes @ 0x17
   834  00B7                     	ds	2
   835  00B9                     sprintf@val:
   836                           
   837                           ; 4 bytes @ 0x19
   838  00B9                     	ds	4
   839  00BD                     sprintf@eexp:
   840                           
   841                           ; 2 bytes @ 0x1D
   842  00BD                     	ds	2
   843  00BF                     sprintf@tmpval:
   844                           
   845                           ; 4 bytes @ 0x1F
   846  00BF                     	ds	4
   847  00C3                     sprintf@sp:
   848                           
   849                           ; 1 bytes @ 0x23
   850  00C3                     	ds	1
   851  00C4                     sprintf@prec:
   852                           
   853                           ; 2 bytes @ 0x24
   854  00C4                     	ds	2
   855  00C6                     sprintf@fval:
   856                           
   857                           ; 4 bytes @ 0x26
   858  00C6                     	ds	4
   859  00CA                     sprintf@c:
   860                           
   861                           ; 1 bytes @ 0x2A
   862  00CA                     	ds	1
   863  00CB                     ??_main:
   864                           
   865                           ; 1 bytes @ 0x2B
   866  00CB                     	ds	4
   867                           
   868                           	psect	cstackCOMMON
   869  0070                     __pcstackCOMMON:
   870  0070                     ?_isdigit:
   871  0070                     ?___fleq:	
   872                           ; 1 bit 
   873                           
   874  0070                     ?_ADC_Init:	
   875                           ; 1 bit 
   876                           
   877  0070                     ??_ADC_Init:	
   878                           ; 1 bytes @ 0x0
   879                           
   880  0070                     ?_LCD_Init:	
   881                           ; 1 bytes @ 0x0
   882                           
   883  0070                     ?_PWM_Init:	
   884                           ; 1 bytes @ 0x0
   885                           
   886  0070                     ??_PWM_Init:	
   887                           ; 1 bytes @ 0x0
   888                           
   889  0070                     ?_PWM_SetDutyCycle:	
   890                           ; 1 bytes @ 0x0
   891                           
   892  0070                     ?_PWM_Start:	
   893                           ; 1 bytes @ 0x0
   894                           
   895  0070                     ??_PWM_Start:	
   896                           ; 1 bytes @ 0x0
   897                           
   898  0070                     ?_memset:	
   899                           ; 1 bytes @ 0x0
   900                           
   901  0070                     ?_LCD_Clear:	
   902                           ; 1 bytes @ 0x0
   903                           
   904  0070                     ?_Lcd_CmdWrite:	
   905                           ; 1 bytes @ 0x0
   906                           
   907  0070                     ??_isdigit:	
   908                           ; 1 bytes @ 0x0
   909                           
   910  0070                     ?_UART_TxChar:	
   911                           ; 1 bytes @ 0x0
   912                           
   913  0070                     ??_UART_TxChar:	
   914                           ; 1 bytes @ 0x0
   915                           
   916  0070                     ?_LCD_Enable:	
   917                           ; 1 bytes @ 0x0
   918                           
   919  0070                     ??_LCD_Enable:	
   920                           ; 1 bytes @ 0x0
   921                           
   922  0070                     ?_Lcd_DataWrite:	
   923                           ; 1 bytes @ 0x0
   924                           
   925  0070                     ?_ADC_GetAdcValue:	
   926                           ; 1 bytes @ 0x0
   927                           
   928  0070                     ?__Umul8_16:	
   929                           ; 2 bytes @ 0x0
   930                           
   931  0070                     ?_main:	
   932                           ; 2 bytes @ 0x0
   933                           
   934  0070                     ?___wmul:	
   935                           ; 2 bytes @ 0x0
   936                           
   937  0070                     ?___awmod:	
   938                           ; 2 bytes @ 0x0
   939                           
   940  0070                     ?___lwmod:	
   941                           ; 2 bytes @ 0x0
   942                           
   943  0070                     ?__tdiv_to_l_:	
   944                           ; 2 bytes @ 0x0
   945                           
   946  0070                     ?__div_to_l_:	
   947                           ; 4 bytes @ 0x0
   948                           
   949  0070                     ?___lldiv:	
   950                           ; 4 bytes @ 0x0
   951                           
   952  0070                     ?___flneg:	
   953                           ; 4 bytes @ 0x0
   954                           
   955  0070                     ?___llmod:	
   956                           ; 4 bytes @ 0x0
   957                           
   958  0070                     UART_TxChar@ch:	
   959                           ; 4 bytes @ 0x0
   960                           
   961  0070                     PWM_SetDutyCycle@dutyCycle:	
   962                           ; 1 bytes @ 0x0
   963                           
   964  0070                     PWM_Start@channel:	
   965                           ; 1 bytes @ 0x0
   966                           
   967  0070                     __Umul8_16@multiplicand:	
   968                           ; 1 bytes @ 0x0
   969                           
   970  0070                     _isdigit$684:	
   971                           ; 1 bytes @ 0x0
   972                           
   973  0070                     ___wmul@multiplier:	
   974                           ; 1 bytes @ 0x0
   975                           
   976  0070                     ___awmod@divisor:	
   977                           ; 2 bytes @ 0x0
   978                           
   979  0070                     ___lwmod@divisor:	
   980                           ; 2 bytes @ 0x0
   981                           
   982  0070                     memset@c:	
   983                           ; 2 bytes @ 0x0
   984                           
   985  0070                     ___lldiv@divisor:	
   986                           ; 2 bytes @ 0x0
   987                           
   988  0070                     __div_to_l_@f1:	
   989                           ; 4 bytes @ 0x0
   990                           
   991  0070                     ___fleq@ff1:	
   992                           ; 4 bytes @ 0x0
   993                           
   994  0070                     ___flneg@f1:	
   995                           ; 4 bytes @ 0x0
   996                           
   997  0070                     __tdiv_to_l_@f1:	
   998                           ; 4 bytes @ 0x0
   999                           
  1000  0070                     ___llmod@divisor:	
  1001                           ; 4 bytes @ 0x0
  1002                           
  1003                           
  1004                           ; 4 bytes @ 0x0
  1005  0070                     	ds	1
  1006  0071                     ??_PWM_SetDutyCycle:
  1007  0071                     ?_UART_SendTxt:	
  1008                           ; 1 bytes @ 0x1
  1009                           
  1010  0071                     isdigit@c:	
  1011                           ; 1 bytes @ 0x1
  1012                           
  1013  0071                     UART_SendTxt@Str:	
  1014                           ; 1 bytes @ 0x1
  1015                           
  1016                           
  1017                           ; 2 bytes @ 0x1
  1018  0071                     	ds	1
  1019  0072                     ??_ADC_GetAdcValue:
  1020  0072                     ??_Lcd_CmdWrite:	
  1021                           ; 1 bytes @ 0x2
  1022                           
  1023  0072                     ??__Umul8_16:	
  1024                           ; 1 bytes @ 0x2
  1025                           
  1026  0072                     ??_Lcd_DataWrite:	
  1027                           ; 1 bytes @ 0x2
  1028                           
  1029  0072                     PWM_Init@channel:	
  1030                           ; 1 bytes @ 0x2
  1031                           
  1032  0072                     ___wmul@multiplicand:	
  1033                           ; 1 bytes @ 0x2
  1034                           
  1035  0072                     ___awmod@dividend:	
  1036                           ; 2 bytes @ 0x2
  1037                           
  1038  0072                     ___lwmod@dividend:	
  1039                           ; 2 bytes @ 0x2
  1040                           
  1041  0072                     memset@n:	
  1042                           ; 2 bytes @ 0x2
  1043                           
  1044                           
  1045                           ; 2 bytes @ 0x2
  1046  0072                     	ds	1
  1047  0073                     ??_UART_SendTxt:
  1048  0073                     Lcd_CmdWrite@cmd:	
  1049                           ; 1 bytes @ 0x3
  1050                           
  1051  0073                     Lcd_DataWrite@dat:	
  1052                           ; 1 bytes @ 0x3
  1053                           
  1054  0073                     ADC_GetAdcValue@var_adcChannel_u8:	
  1055                           ; 1 bytes @ 0x3
  1056                           
  1057  0073                     PWM_SetDutyCycle@channel:	
  1058                           ; 1 bytes @ 0x3
  1059                           
  1060                           
  1061                           ; 1 bytes @ 0x3
  1062  0073                     	ds	1
  1063  0074                     ??_LCD_Init:
  1064  0074                     ?_LCD_GoToXY:	
  1065                           ; 1 bytes @ 0x4
  1066                           
  1067  0074                     ?_LCD_Print:	
  1068                           ; 1 bytes @ 0x4
  1069                           
  1070  0074                     ??_memset:	
  1071                           ; 1 bytes @ 0x4
  1072                           
  1073  0074                     ??_LCD_Clear:	
  1074                           ; 1 bytes @ 0x4
  1075                           
  1076  0074                     ??___wmul:	
  1077                           ; 1 bytes @ 0x4
  1078                           
  1079  0074                     ??___awmod:	
  1080                           ; 1 bytes @ 0x4
  1081                           
  1082  0074                     ??___flneg:	
  1083                           ; 1 bytes @ 0x4
  1084                           
  1085  0074                     ??___lwmod:	
  1086                           ; 1 bytes @ 0x4
  1087                           
  1088  0074                     ?___xxtofl:	
  1089                           ; 1 bytes @ 0x4
  1090                           
  1091  0074                     LCD_GoToXY@Y:	
  1092                           ; 4 bytes @ 0x4
  1093                           
  1094  0074                     LCD_Print@Str:	
  1095                           ; 1 bytes @ 0x4
  1096                           
  1097  0074                     ___wmul@product:	
  1098                           ; 2 bytes @ 0x4
  1099                           
  1100  0074                     __Umul8_16@product:	
  1101                           ; 2 bytes @ 0x4
  1102                           
  1103  0074                     ___lldiv@dividend:	
  1104                           ; 2 bytes @ 0x4
  1105                           
  1106  0074                     __div_to_l_@f2:	
  1107                           ; 4 bytes @ 0x4
  1108                           
  1109  0074                     ___fleq@ff2:	
  1110                           ; 4 bytes @ 0x4
  1111                           
  1112  0074                     __tdiv_to_l_@f2:	
  1113                           ; 4 bytes @ 0x4
  1114                           
  1115  0074                     ___llmod@dividend:	
  1116                           ; 4 bytes @ 0x4
  1117                           
  1118  0074                     ___xxtofl@val:	
  1119                           ; 4 bytes @ 0x4
  1120                           
  1121                           
  1122                           ; 4 bytes @ 0x4
  1123  0074                     	ds	1
  1124  0075                     ??_LCD_GoToXY:
  1125  0075                     LCD_GoToXY@X:	
  1126                           ; 1 bytes @ 0x5
  1127                           
  1128  0075                     ___awmod@counter:	
  1129                           ; 1 bytes @ 0x5
  1130                           
  1131  0075                     ___lwmod@counter:	
  1132                           ; 1 bytes @ 0x5
  1133                           
  1134  0075                     memset@p1:	
  1135                           ; 1 bytes @ 0x5
  1136                           
  1137                           
  1138                           ; 1 bytes @ 0x5
  1139  0075                     	ds	1
  1140  0076                     ??_LCD_Print:
  1141  0076                     ?___lwdiv:	
  1142                           ; 1 bytes @ 0x6
  1143                           
  1144  0076                     ___awmod@sign:	
  1145                           ; 2 bytes @ 0x6
  1146                           
  1147  0076                     memset@p:	
  1148                           ; 1 bytes @ 0x6
  1149                           
  1150  0076                     ___lwdiv@divisor:	
  1151                           ; 1 bytes @ 0x6
  1152                           
  1153  0076                     __Umul8_16@word_mpld:	
  1154                           ; 2 bytes @ 0x6
  1155                           
  1156                           
  1157                           ; 2 bytes @ 0x6
  1158  0076                     	ds	1
  1159  0077                     ?___awdiv:
  1160  0077                     ___awdiv@divisor:	
  1161                           ; 2 bytes @ 0x7
  1162                           
  1163                           
  1164                           ; 2 bytes @ 0x7
  1165  0077                     	ds	1
  1166  0078                     ??__tdiv_to_l_:
  1167  0078                     ??__div_to_l_:	
  1168                           ; 1 bytes @ 0x8
  1169                           
  1170  0078                     ??___lldiv:	
  1171                           ; 1 bytes @ 0x8
  1172                           
  1173  0078                     ??___fleq:	
  1174                           ; 1 bytes @ 0x8
  1175                           
  1176  0078                     ??___llmod:	
  1177                           ; 1 bytes @ 0x8
  1178                           
  1179  0078                     ??___xxtofl:	
  1180                           ; 1 bytes @ 0x8
  1181                           
  1182  0078                     __Umul8_16@multiplier:	
  1183                           ; 1 bytes @ 0x8
  1184                           
  1185  0078                     ___lwdiv@dividend:	
  1186                           ; 1 bytes @ 0x8
  1187                           
  1188                           
  1189                           ; 2 bytes @ 0x8
  1190  0078                     	ds	1
  1191  0079                     ___llmod@counter:
  1192  0079                     ___awdiv@dividend:	
  1193                           ; 1 bytes @ 0x9
  1194                           
  1195  0079                     ___lldiv@quotient:	
  1196                           ; 2 bytes @ 0x9
  1197                           
  1198                           
  1199                           ; 4 bytes @ 0x9
  1200  0079                     	ds	1
  1201  007A                     ??___lwdiv:
  1202                           
  1203                           ; 1 bytes @ 0xA
  1204  007A                     	ds	1
  1205  007B                     ??___awdiv:
  1206  007B                     ___lwdiv@quotient:	
  1207                           ; 1 bytes @ 0xB
  1208                           
  1209                           
  1210                           ; 2 bytes @ 0xB
  1211  007B                     	ds	2
  1212  007D                     ___lldiv@counter:
  1213  007D                     ___lwdiv@counter:	
  1214                           ; 1 bytes @ 0xD
  1215                           
  1216                           
  1217                           ; 1 bytes @ 0xD
  1218  007D                     	ds	1
  1219  007E                     ??___flsub:
  1220                           
  1221                           	psect	cstackBANK0
  1222  0020                     __pcstackBANK0:	
  1223                           ; 1 bytes @ 0xE
  1224                           
  1225  0020                     ?_UART_Init:
  1226  0020                     ___awdiv@counter:	
  1227                           ; 1 bytes @ 0x0
  1228                           
  1229  0020                     ___xxtofl@sign:	
  1230                           ; 1 bytes @ 0x0
  1231                           
  1232  0020                     UART_Init@baudRate:	
  1233                           ; 1 bytes @ 0x0
  1234                           
  1235  0020                     __div_to_l_@quot:	
  1236                           ; 2 bytes @ 0x0
  1237                           
  1238  0020                     __tdiv_to_l_@quot:	
  1239                           ; 4 bytes @ 0x0
  1240                           
  1241  0020                     LCD_Init@Commands:	
  1242                           ; 4 bytes @ 0x0
  1243                           
  1244                           
  1245                           ; 7 bytes @ 0x0
  1246  0020                     	ds	1
  1247  0021                     ___awdiv@sign:
  1248  0021                     ___xxtofl@exp:	
  1249                           ; 1 bytes @ 0x1
  1250                           
  1251                           
  1252                           ; 1 bytes @ 0x1
  1253  0021                     	ds	1
  1254  0022                     ??_UART_Init:
  1255  0022                     ___awdiv@quotient:	
  1256                           ; 1 bytes @ 0x2
  1257                           
  1258  0022                     ___xxtofl@arg:	
  1259                           ; 2 bytes @ 0x2
  1260                           
  1261                           
  1262                           ; 4 bytes @ 0x2
  1263  0022                     	ds	2
  1264  0024                     __div_to_l_@cntr:
  1265  0024                     __tdiv_to_l_@cntr:	
  1266                           ; 1 bytes @ 0x4
  1267                           
  1268                           
  1269                           ; 1 bytes @ 0x4
  1270  0024                     	ds	1
  1271  0025                     __div_to_l_@exp1:
  1272  0025                     __tdiv_to_l_@exp1:	
  1273                           ; 1 bytes @ 0x5
  1274                           
  1275                           
  1276                           ; 1 bytes @ 0x5
  1277  0025                     	ds	1
  1278  0026                     ?___flmul:
  1279  0026                     ___flmul@b:	
  1280                           ; 4 bytes @ 0x6
  1281                           
  1282                           
  1283                           ; 4 bytes @ 0x6
  1284  0026                     	ds	1
  1285  0027                     LCD_Init@i:
  1286                           
  1287                           ; 2 bytes @ 0x7
  1288  0027                     	ds	3
  1289  002A                     ___flmul@a:
  1290                           
  1291                           ; 4 bytes @ 0xA
  1292  002A                     	ds	4
  1293  002E                     ??___flmul:
  1294                           
  1295                           ; 1 bytes @ 0xE
  1296  002E                     	ds	5
  1297  0033                     ___flmul@sign:
  1298                           
  1299                           ; 1 bytes @ 0x13
  1300  0033                     	ds	1
  1301  0034                     ___flmul@grs:
  1302                           
  1303                           ; 4 bytes @ 0x14
  1304  0034                     	ds	4
  1305  0038                     ___flmul@aexp:
  1306                           
  1307                           ; 1 bytes @ 0x18
  1308  0038                     	ds	1
  1309  0039                     ___flmul@bexp:
  1310                           
  1311                           ; 1 bytes @ 0x19
  1312  0039                     	ds	1
  1313  003A                     ___flmul@prod:
  1314                           
  1315                           ; 4 bytes @ 0x1A
  1316  003A                     	ds	4
  1317  003E                     ___flmul@temp:
  1318                           
  1319                           ; 2 bytes @ 0x1E
  1320  003E                     	ds	2
  1321  0040                     ?_fround:
  1322  0040                     ?_scale:	
  1323                           ; 4 bytes @ 0x20
  1324                           
  1325  0040                     ?___fldiv:	
  1326                           ; 4 bytes @ 0x20
  1327                           
  1328  0040                     ___fldiv@a:	
  1329                           ; 4 bytes @ 0x20
  1330                           
  1331                           
  1332                           ; 4 bytes @ 0x20
  1333  0040                     	ds	4
  1334  0044                     ??_fround:
  1335  0044                     ??_scale:	
  1336                           ; 1 bytes @ 0x24
  1337                           
  1338  0044                     ___fldiv@b:	
  1339                           ; 1 bytes @ 0x24
  1340                           
  1341                           
  1342                           ; 4 bytes @ 0x24
  1343  0044                     	ds	4
  1344  0048                     ??___fldiv:
  1345                           
  1346                           ; 1 bytes @ 0x28
  1347  0048                     	ds	3
  1348  004B                     _fround$872:
  1349                           
  1350                           ; 4 bytes @ 0x2B
  1351  004B                     	ds	2
  1352  004D                     ___fldiv@rem:
  1353                           
  1354                           ; 4 bytes @ 0x2D
  1355  004D                     	ds	1
  1356  004E                     _scale$873:
  1357                           
  1358                           ; 4 bytes @ 0x2E
  1359  004E                     	ds	1
  1360  004F                     _fround$871:
  1361                           
  1362                           ; 4 bytes @ 0x2F
  1363  004F                     	ds	2
  1364  0051                     ___fldiv@sign:
  1365                           
  1366                           ; 1 bytes @ 0x31
  1367  0051                     	ds	1
  1368  0052                     scale@scl:
  1369  0052                     ___fldiv@new_exp:	
  1370                           ; 1 bytes @ 0x32
  1371                           
  1372                           
  1373                           ; 2 bytes @ 0x32
  1374  0052                     	ds	1
  1375  0053                     ?___fltol:
  1376  0053                     fround@prec:	
  1377                           ; 4 bytes @ 0x33
  1378                           
  1379  0053                     ___fltol@f1:	
  1380                           ; 1 bytes @ 0x33
  1381                           
  1382                           
  1383                           ; 4 bytes @ 0x33
  1384  0053                     	ds	1
  1385  0054                     ?___fladd:
  1386  0054                     ___fladd@b:	
  1387                           ; 4 bytes @ 0x34
  1388                           
  1389  0054                     ___fldiv@grs:	
  1390                           ; 4 bytes @ 0x34
  1391                           
  1392                           
  1393                           ; 4 bytes @ 0x34
  1394  0054                     	ds	3
  1395  0057                     ??___fltol:
  1396                           
  1397                           ; 1 bytes @ 0x37
  1398  0057                     	ds	1
  1399  0058                     ___fldiv@bexp:
  1400  0058                     ___fladd@a:	
  1401                           ; 1 bytes @ 0x38
  1402                           
  1403                           
  1404                           ; 4 bytes @ 0x38
  1405  0058                     	ds	1
  1406  0059                     ___fldiv@aexp:
  1407                           
  1408                           ; 1 bytes @ 0x39
  1409  0059                     	ds	3
  1410  005C                     ??___fladd:
  1411  005C                     ___fltol@sign1:	
  1412                           ; 1 bytes @ 0x3C
  1413                           
  1414                           
  1415                           ; 1 bytes @ 0x3C
  1416  005C                     	ds	1
  1417  005D                     ___fltol@exp1:
  1418                           
  1419                           ; 1 bytes @ 0x3D
  1420  005D                     	ds	7
  1421  0064                     ___fladd@signs:
  1422                           
  1423                           ; 1 bytes @ 0x44
  1424  0064                     	ds	1
  1425  0065                     ___fladd@aexp:
  1426                           
  1427                           ; 1 bytes @ 0x45
  1428  0065                     	ds	1
  1429  0066                     ___fladd@bexp:
  1430                           
  1431                           ; 1 bytes @ 0x46
  1432  0066                     	ds	1
  1433  0067                     ___fladd@grs:
  1434                           
  1435                           ; 1 bytes @ 0x47
  1436  0067                     	ds	1
  1437  0068                     ?___flge:
  1438  0068                     ?___flsub:	
  1439                           ; 1 bit 
  1440                           
  1441  0068                     ___flge@ff1:	
  1442                           ; 4 bytes @ 0x48
  1443                           
  1444  0068                     ___flsub@a:	
  1445                           ; 4 bytes @ 0x48
  1446                           
  1447                           
  1448                           ; 4 bytes @ 0x48
  1449  0068                     	ds	4
  1450  006C                     ___flge@ff2:
  1451  006C                     ___flsub@b:	
  1452                           ; 4 bytes @ 0x4C
  1453                           
  1454                           
  1455                           ; 4 bytes @ 0x4C
  1456  006C                     	ds	4
  1457                           
  1458                           	psect	maintext
  1459  12F6                     __pmaintext:	
  1460 ;;
  1461 ;;Main: autosize = 0, tempsize = 4, incstack = 0, save=0
  1462 ;;
  1463 ;; *************** function _main *****************
  1464 ;; Defined at:
  1465 ;;		line 13 in file "main.c"
  1466 ;; Parameters:    Size  Location     Type
  1467 ;;		None
  1468 ;; Auto vars:     Size  Location     Type
  1469 ;;  Str            50    0[BANK3 ] unsigned char [50]
  1470 ;;  FeedBack        4   56[BANK3 ] float 
  1471 ;;  SetPoint        4   52[BANK3 ] float 
  1472 ;;  Count           2   50[BANK3 ] int 
  1473 ;;  DutyCycle       1   60[BANK3 ] unsigned char 
  1474 ;; Return value:  Size  Location     Type
  1475 ;;                  2   69[None  ] int 
  1476 ;; Registers used:
  1477 ;;		wreg, fsr0l, fsr0h, status,2, status,0, btemp+1, pclath, cstack
  1478 ;; Tracked objects:
  1479 ;;		On entry : B00/0
  1480 ;;		On exit  : 0/0
  1481 ;;		Unchanged: 0/0
  1482 ;; Data sizes:     COMMON   BANK0   BANK1   BANK3   BANK2
  1483 ;;      Params:         0       0       0       0       0
  1484 ;;      Locals:         0       0       0      61       0
  1485 ;;      Temps:          0       0       4       0       0
  1486 ;;      Totals:         0       0       4      61       0
  1487 ;;Total ram usage:       65 bytes
  1488 ;; Hardware stack levels required when called: 4
  1489 ;; This function calls:
  1490 ;;		_ADC_GetAdcValue
  1491 ;;		_ADC_Init
  1492 ;;		_LCD_Clear
  1493 ;;		_LCD_GoToXY
  1494 ;;		_LCD_Init
  1495 ;;		_LCD_Print
  1496 ;;		_PWM_Init
  1497 ;;		_PWM_SetDutyCycle
  1498 ;;		_PWM_Start
  1499 ;;		_UART_Init
  1500 ;;		_UART_SendTxt
  1501 ;;		___fladd
  1502 ;;		___fldiv
  1503 ;;		___flge
  1504 ;;		___flmul
  1505 ;;		___xxtofl
  1506 ;;		_memset
  1507 ;;		_sprintf
  1508 ;; This function is called by:
  1509 ;;		Startup code after reset
  1510 ;; This function uses a non-reentrant model
  1511 ;;
  1512                           
  1513  12F6                     _main:	
  1514                           ;psect for function _main
  1515                           
  1516  12F6                     l3770:	
  1517                           ;incstack = 0
  1518                           ; Regs used in _main: [wreg-fsr0h+status,2+status,0+btemp+1+pclath+cstack]
  1519                           
  1520                           
  1521                           ;main.c: 15:     char Str[50];;main.c: 16:     float SetPoint ,FeedBack;;main.c: 17:    
      +                           unsigned char DutyCycle = 25;
  1522  12F6  3019               	movlw	25
  1523  12F7  1683               	bsf	3,5	;RP0=1, select bank1
  1524  12F8  1303               	bcf	3,6	;RP1=0, select bank1
  1525  12F9  00CB               	movwf	??_main^(0+128)
  1526  12FA  084B               	movf	??_main^(0+128),w
  1527  12FB  1683               	bsf	3,5	;RP0=1, select bank3
  1528  12FC  1703               	bsf	3,6	;RP1=1, select bank3
  1529  12FD  00CC               	movwf	main@DutyCycle^(0+384)
  1530  12FE                     l3772:
  1531                           
  1532                           ;main.c: 18:     int Count;;main.c: 19:     ADC_Init();
  1533  12FE  160A  158A  2028  160A  118A  	fcall	_ADC_Init
  1534  1303                     l3774:
  1535                           
  1536                           ;main.c: 20:     LCD_Init();
  1537  1303  160A  158A  227F  160A  118A  	fcall	_LCD_Init
  1538  1308                     l3776:
  1539                           
  1540                           ;main.c: 21:     UART_Init(9600);
  1541  1308  3080               	movlw	128
  1542  1309  1283               	bcf	3,5	;RP0=0, select bank0
  1543  130A  1303               	bcf	3,6	;RP1=0, select bank0
  1544  130B  00A0               	movwf	UART_Init@baudRate
  1545  130C  3025               	movlw	37
  1546  130D  00A1               	movwf	UART_Init@baudRate+1
  1547  130E  160A  158A  21D5  160A  118A  	fcall	_UART_Init
  1548  1313                     l3778:
  1549                           
  1550                           ;main.c: 22:     PWM_Init(0);
  1551  1313  3000               	movlw	0
  1552  1314  160A  158A  220C  160A  118A  	fcall	_PWM_Init
  1553  1319                     l3780:
  1554                           
  1555                           ;main.c: 23:     PWM_SetDutyCycle(0,DutyCycle);
  1556  1319  3019               	movlw	25
  1557  131A  1683               	bsf	3,5	;RP0=1, select bank1
  1558  131B  1303               	bcf	3,6	;RP1=0, select bank1
  1559  131C  00CB               	movwf	??_main^(0+128)
  1560  131D  084B               	movf	??_main^(0+128),w
  1561  131E  00F0               	movwf	PWM_SetDutyCycle@dutyCycle
  1562  131F  3000               	movlw	0
  1563  1320  160A  158A  2158  160A  118A  	fcall	_PWM_SetDutyCycle
  1564  1325                     l3782:
  1565                           
  1566                           ;main.c: 24:     PWM_Start(0);
  1567  1325  3000               	movlw	0
  1568  1326  160A  118A  2000  160A  118A  	fcall	_PWM_Start
  1569  132B                     l3784:
  1570                           
  1571                           ;main.c: 25:     UART_SendTxt("System Start....\r\n");
  1572  132B  30AA               	movlw	(low ((STR_1-__stringbase)| (0+32768)))& (0+255)
  1573  132C  00F1               	movwf	UART_SendTxt@Str
  1574  132D  3080               	movlw	128
  1575  132E  00F2               	movwf	UART_SendTxt@Str+1
  1576  132F  160A  158A  2132  160A  118A  	fcall	_UART_SendTxt
  1577  1334                     l3786:
  1578                           
  1579                           ;main.c: 26:     LCD_GoToXY(0,0);
  1580  1334  01F4               	clrf	LCD_GoToXY@Y
  1581  1335  3000               	movlw	0
  1582  1336  160A  158A  206C  160A  118A  	fcall	_LCD_GoToXY
  1583  133B                     l3788:
  1584                           
  1585                           ;main.c: 27:     LCD_Print("System Start....");
  1586  133B  30BD               	movlw	(low ((STR_2-__stringbase)| (0+32768)))& (0+255)
  1587  133C  00F4               	movwf	LCD_Print@Str
  1588  133D  3080               	movlw	128
  1589  133E  00F5               	movwf	LCD_Print@Str+1
  1590  133F  160A  158A  210C  160A  118A  	fcall	_LCD_Print
  1591  1344                     l3790:
  1592                           
  1593                           ;main.c: 29:     {;main.c: 30:         Count+=5;
  1594  1344  3005               	movlw	5
  1595  1345  1683               	bsf	3,5	;RP0=1, select bank3
  1596  1346  1703               	bsf	3,6	;RP1=1, select bank3
  1597  1347  07C2               	addwf	main@Count^(0+384),f
  1598  1348  1803               	skipnc
  1599  1349  0AC3               	incf	(main@Count+1)^(0+384),f
  1600  134A  3000               	movlw	0
  1601  134B  07C3               	addwf	(main@Count+1)^(0+384),f
  1602  134C                     l3792:
  1603                           
  1604                           ;main.c: 31:         SetPoint = ((float)ADC_GetAdcValue(0) * (float)5 ) / (float)1024;
  1605  134C  3044               	movlw	68
  1606  134D  1283               	bcf	3,5	;RP0=0, select bank0
  1607  134E  1303               	bcf	3,6	;RP1=0, select bank0
  1608  134F  00C3               	movwf	___fldiv@a+3
  1609  1350  3080               	movlw	128
  1610  1351  00C2               	movwf	___fldiv@a+2
  1611  1352  3000               	movlw	0
  1612  1353  00C1               	movwf	___fldiv@a+1
  1613  1354  3000               	movlw	0
  1614  1355  00C0               	movwf	___fldiv@a
  1615  1356  3040               	movlw	64
  1616  1357  00A9               	movwf	___flmul@b+3
  1617  1358  30A0               	movlw	160
  1618  1359  00A8               	movwf	___flmul@b+2
  1619  135A  3000               	movlw	0
  1620  135B  00A7               	movwf	___flmul@b+1
  1621  135C  3000               	movlw	0
  1622  135D  00A6               	movwf	___flmul@b
  1623  135E  3000               	movlw	0
  1624  135F  160A  158A  20A2  160A  118A  	fcall	_ADC_GetAdcValue
  1625  1364  0870               	movf	?_ADC_GetAdcValue,w
  1626  1365  1683               	bsf	3,5	;RP0=1, select bank1
  1627  1366  1303               	bcf	3,6	;RP1=0, select bank1
  1628  1367  00CB               	movwf	??_main^(0+128)
  1629  1368  0871               	movf	?_ADC_GetAdcValue+1,w
  1630  1369  00CC               	movwf	(??_main^(0+128)+1)
  1631  136A  01CD               	clrf	(??_main^(0+128)+2)
  1632  136B  01CE               	clrf	(??_main^(0+128)+3)
  1633  136C  084E               	movf	(??_main+3)^(0+128),w
  1634  136D  00F7               	movwf	___xxtofl@val+3
  1635  136E  084D               	movf	(??_main+2)^(0+128),w
  1636  136F  00F6               	movwf	___xxtofl@val+2
  1637  1370  084C               	movf	(??_main+1)^(0+128),w
  1638  1371  00F5               	movwf	___xxtofl@val+1
  1639  1372  084B               	movf	??_main^(0+128),w
  1640  1373  00F4               	movwf	___xxtofl@val
  1641  1374  3000               	movlw	0
  1642  1375  160A  158A  24AA  160A  118A  	fcall	___xxtofl
  1643  137A  0877               	movf	?___xxtofl+3,w
  1644  137B  1283               	bcf	3,5	;RP0=0, select bank0
  1645  137C  1303               	bcf	3,6	;RP1=0, select bank0
  1646  137D  00AD               	movwf	___flmul@a+3
  1647  137E  0876               	movf	?___xxtofl+2,w
  1648  137F  00AC               	movwf	___flmul@a+2
  1649  1380  0875               	movf	?___xxtofl+1,w
  1650  1381  00AB               	movwf	___flmul@a+1
  1651  1382  0874               	movf	?___xxtofl,w
  1652  1383  00AA               	movwf	___flmul@a
  1653  1384  120A  158A  249F  160A  118A  	fcall	___flmul
  1654  1389  1283               	bcf	3,5	;RP0=0, select bank0
  1655  138A  1303               	bcf	3,6	;RP1=0, select bank0
  1656  138B  0829               	movf	?___flmul+3,w
  1657  138C  00C7               	movwf	___fldiv@b+3
  1658  138D  0828               	movf	?___flmul+2,w
  1659  138E  00C6               	movwf	___fldiv@b+2
  1660  138F  0827               	movf	?___flmul+1,w
  1661  1390  00C5               	movwf	___fldiv@b+1
  1662  1391  0826               	movf	?___flmul,w
  1663  1392  00C4               	movwf	___fldiv@b
  1664  1393  160A  158A  2623  160A  118A  	fcall	___fldiv
  1665  1398  1283               	bcf	3,5	;RP0=0, select bank0
  1666  1399  1303               	bcf	3,6	;RP1=0, select bank0
  1667  139A  0843               	movf	?___fldiv+3,w
  1668  139B  1683               	bsf	3,5	;RP0=1, select bank3
  1669  139C  1703               	bsf	3,6	;RP1=1, select bank3
  1670  139D  00C7               	movwf	(main@SetPoint+3)^(0+384)
  1671  139E  1283               	bcf	3,5	;RP0=0, select bank0
  1672  139F  1303               	bcf	3,6	;RP1=0, select bank0
  1673  13A0  0842               	movf	?___fldiv+2,w
  1674  13A1  1683               	bsf	3,5	;RP0=1, select bank3
  1675  13A2  1703               	bsf	3,6	;RP1=1, select bank3
  1676  13A3  00C6               	movwf	(main@SetPoint+2)^(0+384)
  1677  13A4  1283               	bcf	3,5	;RP0=0, select bank0
  1678  13A5  1303               	bcf	3,6	;RP1=0, select bank0
  1679  13A6  0841               	movf	?___fldiv+1,w
  1680  13A7  1683               	bsf	3,5	;RP0=1, select bank3
  1681  13A8  1703               	bsf	3,6	;RP1=1, select bank3
  1682  13A9  00C5               	movwf	(main@SetPoint+1)^(0+384)
  1683  13AA  1283               	bcf	3,5	;RP0=0, select bank0
  1684  13AB  1303               	bcf	3,6	;RP1=0, select bank0
  1685  13AC  0840               	movf	?___fldiv,w
  1686  13AD  1683               	bsf	3,5	;RP0=1, select bank3
  1687  13AE  1703               	bsf	3,6	;RP1=1, select bank3
  1688  13AF  00C4               	movwf	main@SetPoint^(0+384)
  1689  13B0                     l3794:
  1690                           
  1691                           ;main.c: 32:         FeedBack = ((float)ADC_GetAdcValue(1) * (float)5 ) / (float)1024;
  1692  13B0  3044               	movlw	68
  1693  13B1  1283               	bcf	3,5	;RP0=0, select bank0
  1694  13B2  1303               	bcf	3,6	;RP1=0, select bank0
  1695  13B3  00C3               	movwf	___fldiv@a+3
  1696  13B4  3080               	movlw	128
  1697  13B5  00C2               	movwf	___fldiv@a+2
  1698  13B6  3000               	movlw	0
  1699  13B7  00C1               	movwf	___fldiv@a+1
  1700  13B8  3000               	movlw	0
  1701  13B9  00C0               	movwf	___fldiv@a
  1702  13BA  3040               	movlw	64
  1703  13BB  00A9               	movwf	___flmul@b+3
  1704  13BC  30A0               	movlw	160
  1705  13BD  00A8               	movwf	___flmul@b+2
  1706  13BE  3000               	movlw	0
  1707  13BF  00A7               	movwf	___flmul@b+1
  1708  13C0  3000               	movlw	0
  1709  13C1  00A6               	movwf	___flmul@b
  1710  13C2  3001               	movlw	1
  1711  13C3  160A  158A  20A2  160A  118A  	fcall	_ADC_GetAdcValue
  1712  13C8  0870               	movf	?_ADC_GetAdcValue,w
  1713  13C9  1683               	bsf	3,5	;RP0=1, select bank1
  1714  13CA  1303               	bcf	3,6	;RP1=0, select bank1
  1715  13CB  00CB               	movwf	??_main^(0+128)
  1716  13CC  0871               	movf	?_ADC_GetAdcValue+1,w
  1717  13CD  00CC               	movwf	(??_main^(0+128)+1)
  1718  13CE  01CD               	clrf	(??_main^(0+128)+2)
  1719  13CF  01CE               	clrf	(??_main^(0+128)+3)
  1720  13D0  084E               	movf	(??_main+3)^(0+128),w
  1721  13D1  00F7               	movwf	___xxtofl@val+3
  1722  13D2  084D               	movf	(??_main+2)^(0+128),w
  1723  13D3  00F6               	movwf	___xxtofl@val+2
  1724  13D4  084C               	movf	(??_main+1)^(0+128),w
  1725  13D5  00F5               	movwf	___xxtofl@val+1
  1726  13D6  084B               	movf	??_main^(0+128),w
  1727  13D7  00F4               	movwf	___xxtofl@val
  1728  13D8  3000               	movlw	0
  1729  13D9  160A  158A  24AA  160A  118A  	fcall	___xxtofl
  1730  13DE  0877               	movf	?___xxtofl+3,w
  1731  13DF  1283               	bcf	3,5	;RP0=0, select bank0
  1732  13E0  1303               	bcf	3,6	;RP1=0, select bank0
  1733  13E1  00AD               	movwf	___flmul@a+3
  1734  13E2  0876               	movf	?___xxtofl+2,w
  1735  13E3  00AC               	movwf	___flmul@a+2
  1736  13E4  0875               	movf	?___xxtofl+1,w
  1737  13E5  00AB               	movwf	___flmul@a+1
  1738  13E6  0874               	movf	?___xxtofl,w
  1739  13E7  00AA               	movwf	___flmul@a
  1740  13E8  120A  158A  249F  160A  118A  	fcall	___flmul
  1741  13ED  1283               	bcf	3,5	;RP0=0, select bank0
  1742  13EE  1303               	bcf	3,6	;RP1=0, select bank0
  1743  13EF  0829               	movf	?___flmul+3,w
  1744  13F0  00C7               	movwf	___fldiv@b+3
  1745  13F1  0828               	movf	?___flmul+2,w
  1746  13F2  00C6               	movwf	___fldiv@b+2
  1747  13F3  0827               	movf	?___flmul+1,w
  1748  13F4  00C5               	movwf	___fldiv@b+1
  1749  13F5  0826               	movf	?___flmul,w
  1750  13F6  00C4               	movwf	___fldiv@b
  1751  13F7  160A  158A  2623  160A  118A  	fcall	___fldiv
  1752  13FC  1283               	bcf	3,5	;RP0=0, select bank0
  1753  13FD  1303               	bcf	3,6	;RP1=0, select bank0
  1754  13FE  0843               	movf	?___fldiv+3,w
  1755  13FF  1683               	bsf	3,5	;RP0=1, select bank3
  1756  1400  1703               	bsf	3,6	;RP1=1, select bank3
  1757  1401  00CB               	movwf	(main@FeedBack+3)^(0+384)
  1758  1402  1283               	bcf	3,5	;RP0=0, select bank0
  1759  1403  1303               	bcf	3,6	;RP1=0, select bank0
  1760  1404  0842               	movf	?___fldiv+2,w
  1761  1405  1683               	bsf	3,5	;RP0=1, select bank3
  1762  1406  1703               	bsf	3,6	;RP1=1, select bank3
  1763  1407  00CA               	movwf	(main@FeedBack+2)^(0+384)
  1764  1408  1283               	bcf	3,5	;RP0=0, select bank0
  1765  1409  1303               	bcf	3,6	;RP1=0, select bank0
  1766  140A  0841               	movf	?___fldiv+1,w
  1767  140B  1683               	bsf	3,5	;RP0=1, select bank3
  1768  140C  1703               	bsf	3,6	;RP1=1, select bank3
  1769  140D  00C9               	movwf	(main@FeedBack+1)^(0+384)
  1770  140E  1283               	bcf	3,5	;RP0=0, select bank0
  1771  140F  1303               	bcf	3,6	;RP1=0, select bank0
  1772  1410  0840               	movf	?___fldiv,w
  1773  1411  1683               	bsf	3,5	;RP0=1, select bank3
  1774  1412  1703               	bsf	3,6	;RP1=1, select bank3
  1775  1413  00C8               	movwf	main@FeedBack^(0+384)
  1776  1414                     l3796:
  1777                           
  1778                           ;main.c: 33:         if(Count >= 1000)
  1779  1414  0843               	movf	(main@Count+1)^(0+384),w
  1780  1415  3A80               	xorlw	128
  1781  1416  00FF               	movwf	btemp+1
  1782  1417  3083               	movlw	131
  1783  1418  027F               	subwf	btemp+1,w
  1784  1419  1D03               	skipz
  1785  141A  2C1D               	goto	u6075
  1786  141B  30E8               	movlw	232
  1787  141C  0242               	subwf	main@Count^(0+384),w
  1788  141D                     u6075:
  1789  141D  1C03               	skipc
  1790  141E  2C20               	goto	u6071
  1791  141F  2C21               	goto	u6070
  1792  1420                     u6071:
  1793  1420  2C95               	goto	l3814
  1794  1421                     u6070:
  1795  1421                     l3798:
  1796                           
  1797                           ;main.c: 34:         {;main.c: 35:             Count = 0;
  1798  1421  1683               	bsf	3,5	;RP0=1, select bank3
  1799  1422  1703               	bsf	3,6	;RP1=1, select bank3
  1800  1423  01C2               	clrf	main@Count^(0+384)
  1801  1424  01C3               	clrf	(main@Count+1)^(0+384)
  1802  1425                     l3800:
  1803                           
  1804                           ;main.c: 36:             memset(Str,'\0',50);
  1805  1425  3000               	movlw	0
  1806  1426  00F0               	movwf	memset@c
  1807  1427  00F1               	movwf	memset@c+1
  1808  1428  3032               	movlw	50
  1809  1429  00F2               	movwf	memset@n
  1810  142A  3000               	movlw	0
  1811  142B  00F3               	movwf	memset@n+1
  1812  142C  3090               	movlw	(low (main@Str| (0+256)))& (0+255)
  1813  142D  160A  158A  2082  160A  118A  	fcall	_memset
  1814  1432                     l3802:
  1815                           
  1816                           ;main.c: 37:             sprintf(Str,"CH0 = %.3f -- CH1 = %.3f",SetPoint ,FeedBack);
  1817  1432  3091               	movlw	(low ((STR_3-__stringbase)| (0+32768)))& (0+255)
  1818  1433  1683               	bsf	3,5	;RP0=1, select bank1
  1819  1434  1303               	bcf	3,6	;RP1=0, select bank1
  1820  1435  00CB               	movwf	??_main^(0+128)
  1821  1436  084B               	movf	??_main^(0+128),w
  1822  1437  00A4               	movwf	sprintf@f^(0+128)
  1823  1438  1683               	bsf	3,5	;RP0=1, select bank3
  1824  1439  1703               	bsf	3,6	;RP1=1, select bank3
  1825  143A  0847               	movf	(main@SetPoint+3)^(0+384),w
  1826  143B  1683               	bsf	3,5	;RP0=1, select bank1
  1827  143C  1303               	bcf	3,6	;RP1=0, select bank1
  1828  143D  00A8               	movwf	((?_sprintf+3)^(0+128)+1)
  1829  143E  1683               	bsf	3,5	;RP0=1, select bank3
  1830  143F  1703               	bsf	3,6	;RP1=1, select bank3
  1831  1440  0846               	movf	(main@SetPoint+2)^(0+384),w
  1832  1441  1683               	bsf	3,5	;RP0=1, select bank1
  1833  1442  1303               	bcf	3,6	;RP1=0, select bank1
  1834  1443  00A7               	movwf	((?_sprintf+2)^(0+128)+1)
  1835  1444  1683               	bsf	3,5	;RP0=1, select bank3
  1836  1445  1703               	bsf	3,6	;RP1=1, select bank3
  1837  1446  0845               	movf	(main@SetPoint+1)^(0+384),w
  1838  1447  1683               	bsf	3,5	;RP0=1, select bank1
  1839  1448  1303               	bcf	3,6	;RP1=0, select bank1
  1840  1449  00A6               	movwf	((?_sprintf+1)^(0+128)+1)
  1841  144A  1683               	bsf	3,5	;RP0=1, select bank3
  1842  144B  1703               	bsf	3,6	;RP1=1, select bank3
  1843  144C  0844               	movf	main@SetPoint^(0+384),w
  1844  144D  1683               	bsf	3,5	;RP0=1, select bank1
  1845  144E  1303               	bcf	3,6	;RP1=0, select bank1
  1846  144F  00A5               	movwf	(?_sprintf^(0+128)+1)
  1847  1450  1683               	bsf	3,5	;RP0=1, select bank3
  1848  1451  1703               	bsf	3,6	;RP1=1, select bank3
  1849  1452  084B               	movf	(main@FeedBack+3)^(0+384),w
  1850  1453  1683               	bsf	3,5	;RP0=1, select bank1
  1851  1454  1303               	bcf	3,6	;RP1=0, select bank1
  1852  1455  00AC               	movwf	((?_sprintf+3)^(0+128)+5)
  1853  1456  1683               	bsf	3,5	;RP0=1, select bank3
  1854  1457  1703               	bsf	3,6	;RP1=1, select bank3
  1855  1458  084A               	movf	(main@FeedBack+2)^(0+384),w
  1856  1459  1683               	bsf	3,5	;RP0=1, select bank1
  1857  145A  1303               	bcf	3,6	;RP1=0, select bank1
  1858  145B  00AB               	movwf	((?_sprintf+2)^(0+128)+5)
  1859  145C  1683               	bsf	3,5	;RP0=1, select bank3
  1860  145D  1703               	bsf	3,6	;RP1=1, select bank3
  1861  145E  0849               	movf	(main@FeedBack+1)^(0+384),w
  1862  145F  1683               	bsf	3,5	;RP0=1, select bank1
  1863  1460  1303               	bcf	3,6	;RP1=0, select bank1
  1864  1461  00AA               	movwf	((?_sprintf+1)^(0+128)+5)
  1865  1462  1683               	bsf	3,5	;RP0=1, select bank3
  1866  1463  1703               	bsf	3,6	;RP1=1, select bank3
  1867  1464  0848               	movf	main@FeedBack^(0+384),w
  1868  1465  1683               	bsf	3,5	;RP0=1, select bank1
  1869  1466  1303               	bcf	3,6	;RP1=0, select bank1
  1870  1467  00A9               	movwf	(?_sprintf^(0+128)+5)
  1871  1468  3090               	movlw	(low (main@Str| (0+256)))& (0+255)
  1872  1469  120A  118A  215E  160A  118A  	fcall	_sprintf
  1873  146E                     l3804:
  1874                           
  1875                           ;main.c: 38:             LCD_GoToXY(0,0);
  1876  146E  01F4               	clrf	LCD_GoToXY@Y
  1877  146F  3000               	movlw	0
  1878  1470  160A  158A  206C  160A  118A  	fcall	_LCD_GoToXY
  1879  1475                     l3806:
  1880                           
  1881                           ;main.c: 39:             LCD_Clear();
  1882  1475  120A  158A  20E0  160A  118A  	fcall	_LCD_Clear
  1883  147A                     l3808:
  1884                           
  1885                           ;main.c: 40:             LCD_Print(Str);
  1886  147A  3090               	movlw	(low (main@Str| (0+256)))& (0+255)
  1887  147B  00F4               	movwf	LCD_Print@Str
  1888  147C  3001               	movlw	1
  1889  147D  00F5               	movwf	LCD_Print@Str+1
  1890  147E  160A  158A  210C  160A  118A  	fcall	_LCD_Print
  1891  1483                     l3810:
  1892                           
  1893                           ;main.c: 41:             UART_SendTxt(Str);
  1894  1483  3090               	movlw	(low (main@Str| (0+256)))& (0+255)
  1895  1484  00F1               	movwf	UART_SendTxt@Str
  1896  1485  3001               	movlw	1
  1897  1486  00F2               	movwf	UART_SendTxt@Str+1
  1898  1487  160A  158A  2132  160A  118A  	fcall	_UART_SendTxt
  1899  148C                     l3812:
  1900                           
  1901                           ;main.c: 42:             UART_SendTxt("\r\n");
  1902  148C  30BA               	movlw	(low (((STR_1+16)-__stringbase)| (0+32768)))& (0+255)
  1903  148D  00F1               	movwf	UART_SendTxt@Str
  1904  148E  3080               	movlw	128
  1905  148F  00F2               	movwf	UART_SendTxt@Str+1
  1906  1490  160A  158A  2132  160A  118A  	fcall	_UART_SendTxt
  1907  1495                     l3814:
  1908                           
  1909                           ;main.c: 44:         if(FeedBack > (SetPoint + 0.2))
  1910  1495  303E               	movlw	62
  1911  1496  1283               	bcf	3,5	;RP0=0, select bank0
  1912  1497  1303               	bcf	3,6	;RP1=0, select bank0
  1913  1498  00D7               	movwf	___fladd@b+3
  1914  1499  304C               	movlw	76
  1915  149A  00D6               	movwf	___fladd@b+2
  1916  149B  30CC               	movlw	204
  1917  149C  00D5               	movwf	___fladd@b+1
  1918  149D  30CD               	movlw	205
  1919  149E  00D4               	movwf	___fladd@b
  1920  149F  1683               	bsf	3,5	;RP0=1, select bank3
  1921  14A0  1703               	bsf	3,6	;RP1=1, select bank3
  1922  14A1  0847               	movf	(main@SetPoint+3)^(0+384),w
  1923  14A2  1283               	bcf	3,5	;RP0=0, select bank0
  1924  14A3  1303               	bcf	3,6	;RP1=0, select bank0
  1925  14A4  00DB               	movwf	___fladd@a+3
  1926  14A5  1683               	bsf	3,5	;RP0=1, select bank3
  1927  14A6  1703               	bsf	3,6	;RP1=1, select bank3
  1928  14A7  0846               	movf	(main@SetPoint+2)^(0+384),w
  1929  14A8  1283               	bcf	3,5	;RP0=0, select bank0
  1930  14A9  1303               	bcf	3,6	;RP1=0, select bank0
  1931  14AA  00DA               	movwf	___fladd@a+2
  1932  14AB  1683               	bsf	3,5	;RP0=1, select bank3
  1933  14AC  1703               	bsf	3,6	;RP1=1, select bank3
  1934  14AD  0845               	movf	(main@SetPoint+1)^(0+384),w
  1935  14AE  1283               	bcf	3,5	;RP0=0, select bank0
  1936  14AF  1303               	bcf	3,6	;RP1=0, select bank0
  1937  14B0  00D9               	movwf	___fladd@a+1
  1938  14B1  1683               	bsf	3,5	;RP0=1, select bank3
  1939  14B2  1703               	bsf	3,6	;RP1=1, select bank3
  1940  14B3  0844               	movf	main@SetPoint^(0+384),w
  1941  14B4  1283               	bcf	3,5	;RP0=0, select bank0
  1942  14B5  1303               	bcf	3,6	;RP1=0, select bank0
  1943  14B6  00D8               	movwf	___fladd@a
  1944  14B7  160A  118A  2578  160A  118A  	fcall	___fladd
  1945  14BC  1283               	bcf	3,5	;RP0=0, select bank0
  1946  14BD  1303               	bcf	3,6	;RP1=0, select bank0
  1947  14BE  0857               	movf	?___fladd+3,w
  1948  14BF  00EB               	movwf	___flge@ff1+3
  1949  14C0  0856               	movf	?___fladd+2,w
  1950  14C1  00EA               	movwf	___flge@ff1+2
  1951  14C2  0855               	movf	?___fladd+1,w
  1952  14C3  00E9               	movwf	___flge@ff1+1
  1953  14C4  0854               	movf	?___fladd,w
  1954  14C5  00E8               	movwf	___flge@ff1
  1955  14C6  1683               	bsf	3,5	;RP0=1, select bank3
  1956  14C7  1703               	bsf	3,6	;RP1=1, select bank3
  1957  14C8  084B               	movf	(main@FeedBack+3)^(0+384),w
  1958  14C9  1283               	bcf	3,5	;RP0=0, select bank0
  1959  14CA  1303               	bcf	3,6	;RP1=0, select bank0
  1960  14CB  00EF               	movwf	___flge@ff2+3
  1961  14CC  1683               	bsf	3,5	;RP0=1, select bank3
  1962  14CD  1703               	bsf	3,6	;RP1=1, select bank3
  1963  14CE  084A               	movf	(main@FeedBack+2)^(0+384),w
  1964  14CF  1283               	bcf	3,5	;RP0=0, select bank0
  1965  14D0  1303               	bcf	3,6	;RP1=0, select bank0
  1966  14D1  00EE               	movwf	___flge@ff2+2
  1967  14D2  1683               	bsf	3,5	;RP0=1, select bank3
  1968  14D3  1703               	bsf	3,6	;RP1=1, select bank3
  1969  14D4  0849               	movf	(main@FeedBack+1)^(0+384),w
  1970  14D5  1283               	bcf	3,5	;RP0=0, select bank0
  1971  14D6  1303               	bcf	3,6	;RP1=0, select bank0
  1972  14D7  00ED               	movwf	___flge@ff2+1
  1973  14D8  1683               	bsf	3,5	;RP0=1, select bank3
  1974  14D9  1703               	bsf	3,6	;RP1=1, select bank3
  1975  14DA  0848               	movf	main@FeedBack^(0+384),w
  1976  14DB  1283               	bcf	3,5	;RP0=0, select bank0
  1977  14DC  1303               	bcf	3,6	;RP1=0, select bank0
  1978  14DD  00EC               	movwf	___flge@ff2
  1979  14DE  120A  118A  2050  160A  118A  	fcall	___flge
  1980  14E3  1803               	btfsc	3,0
  1981  14E4  2CE6               	goto	u6081
  1982  14E5  2CE7               	goto	u6080
  1983  14E6                     u6081:
  1984  14E6  2CFD               	goto	l3822
  1985  14E7                     u6080:
  1986  14E7                     l3816:
  1987                           
  1988                           ;main.c: 45:         {;main.c: 47:             if(DutyCycle > 0)
  1989  14E7  1683               	bsf	3,5	;RP0=1, select bank3
  1990  14E8  1703               	bsf	3,6	;RP1=1, select bank3
  1991  14E9  084C               	movf	main@DutyCycle^(0+384),w
  1992  14EA  1903               	btfsc	3,2
  1993  14EB  2CED               	goto	u6091
  1994  14EC  2CEE               	goto	u6090
  1995  14ED                     u6091:
  1996  14ED  2CF0               	goto	l3820
  1997  14EE                     u6090:
  1998  14EE                     l3818:
  1999                           
  2000                           ;main.c: 48:             {;main.c: 49:                 DutyCycle -= 5;
  2001  14EE  3005               	movlw	5
  2002  14EF  02CC               	subwf	main@DutyCycle^(0+384),f
  2003  14F0                     l3820:
  2004                           
  2005                           ;main.c: 51:             PWM_SetDutyCycle(0,DutyCycle);
  2006  14F0  084C               	movf	main@DutyCycle^(0+384),w
  2007  14F1  1683               	bsf	3,5	;RP0=1, select bank1
  2008  14F2  1303               	bcf	3,6	;RP1=0, select bank1
  2009  14F3  00CB               	movwf	??_main^(0+128)
  2010  14F4  084B               	movf	??_main^(0+128),w
  2011  14F5  00F0               	movwf	PWM_SetDutyCycle@dutyCycle
  2012  14F6  3000               	movlw	0
  2013  14F7  160A  158A  2158  160A  118A  	fcall	_PWM_SetDutyCycle
  2014                           
  2015                           ;main.c: 52:         }
  2016  14FC  2D69               	goto	l3830
  2017  14FD                     l3822:
  2018  14FD  1683               	bsf	3,5	;RP0=1, select bank3
  2019  14FE  1703               	bsf	3,6	;RP1=1, select bank3
  2020  14FF  084B               	movf	(main@FeedBack+3)^(0+384),w
  2021  1500  1283               	bcf	3,5	;RP0=0, select bank0
  2022  1501  1303               	bcf	3,6	;RP1=0, select bank0
  2023  1502  00EB               	movwf	___flge@ff1+3
  2024  1503  1683               	bsf	3,5	;RP0=1, select bank3
  2025  1504  1703               	bsf	3,6	;RP1=1, select bank3
  2026  1505  084A               	movf	(main@FeedBack+2)^(0+384),w
  2027  1506  1283               	bcf	3,5	;RP0=0, select bank0
  2028  1507  1303               	bcf	3,6	;RP1=0, select bank0
  2029  1508  00EA               	movwf	___flge@ff1+2
  2030  1509  1683               	bsf	3,5	;RP0=1, select bank3
  2031  150A  1703               	bsf	3,6	;RP1=1, select bank3
  2032  150B  0849               	movf	(main@FeedBack+1)^(0+384),w
  2033  150C  1283               	bcf	3,5	;RP0=0, select bank0
  2034  150D  1303               	bcf	3,6	;RP1=0, select bank0
  2035  150E  00E9               	movwf	___flge@ff1+1
  2036  150F  1683               	bsf	3,5	;RP0=1, select bank3
  2037  1510  1703               	bsf	3,6	;RP1=1, select bank3
  2038  1511  0848               	movf	main@FeedBack^(0+384),w
  2039  1512  1283               	bcf	3,5	;RP0=0, select bank0
  2040  1513  1303               	bcf	3,6	;RP1=0, select bank0
  2041  1514  00E8               	movwf	___flge@ff1
  2042  1515  30BE               	movlw	190
  2043  1516  00D7               	movwf	___fladd@b+3
  2044  1517  304C               	movlw	76
  2045  1518  00D6               	movwf	___fladd@b+2
  2046  1519  30CC               	movlw	204
  2047  151A  00D5               	movwf	___fladd@b+1
  2048  151B  30CD               	movlw	205
  2049  151C  00D4               	movwf	___fladd@b
  2050  151D  1683               	bsf	3,5	;RP0=1, select bank3
  2051  151E  1703               	bsf	3,6	;RP1=1, select bank3
  2052  151F  0847               	movf	(main@SetPoint+3)^(0+384),w
  2053  1520  1283               	bcf	3,5	;RP0=0, select bank0
  2054  1521  1303               	bcf	3,6	;RP1=0, select bank0
  2055  1522  00DB               	movwf	___fladd@a+3
  2056  1523  1683               	bsf	3,5	;RP0=1, select bank3
  2057  1524  1703               	bsf	3,6	;RP1=1, select bank3
  2058  1525  0846               	movf	(main@SetPoint+2)^(0+384),w
  2059  1526  1283               	bcf	3,5	;RP0=0, select bank0
  2060  1527  1303               	bcf	3,6	;RP1=0, select bank0
  2061  1528  00DA               	movwf	___fladd@a+2
  2062  1529  1683               	bsf	3,5	;RP0=1, select bank3
  2063  152A  1703               	bsf	3,6	;RP1=1, select bank3
  2064  152B  0845               	movf	(main@SetPoint+1)^(0+384),w
  2065  152C  1283               	bcf	3,5	;RP0=0, select bank0
  2066  152D  1303               	bcf	3,6	;RP1=0, select bank0
  2067  152E  00D9               	movwf	___fladd@a+1
  2068  152F  1683               	bsf	3,5	;RP0=1, select bank3
  2069  1530  1703               	bsf	3,6	;RP1=1, select bank3
  2070  1531  0844               	movf	main@SetPoint^(0+384),w
  2071  1532  1283               	bcf	3,5	;RP0=0, select bank0
  2072  1533  1303               	bcf	3,6	;RP1=0, select bank0
  2073  1534  00D8               	movwf	___fladd@a
  2074  1535  160A  118A  2578  160A  118A  	fcall	___fladd
  2075  153A  1283               	bcf	3,5	;RP0=0, select bank0
  2076  153B  1303               	bcf	3,6	;RP1=0, select bank0
  2077  153C  0857               	movf	?___fladd+3,w
  2078  153D  00EF               	movwf	___flge@ff2+3
  2079  153E  0856               	movf	?___fladd+2,w
  2080  153F  00EE               	movwf	___flge@ff2+2
  2081  1540  0855               	movf	?___fladd+1,w
  2082  1541  00ED               	movwf	___flge@ff2+1
  2083  1542  0854               	movf	?___fladd,w
  2084  1543  00EC               	movwf	___flge@ff2
  2085  1544  120A  118A  2050  160A  118A  	fcall	___flge
  2086  1549  1803               	btfsc	3,0
  2087  154A  2D4C               	goto	u6101
  2088  154B  2D4D               	goto	u6100
  2089  154C                     u6101:
  2090  154C  2D69               	goto	l3830
  2091  154D                     u6100:
  2092  154D                     l3824:
  2093                           
  2094                           ;main.c: 54:         {;main.c: 56:             if(DutyCycle < 100)
  2095  154D  3064               	movlw	100
  2096  154E  1683               	bsf	3,5	;RP0=1, select bank3
  2097  154F  1703               	bsf	3,6	;RP1=1, select bank3
  2098  1550  024C               	subwf	main@DutyCycle^(0+384),w
  2099  1551  1803               	skipnc
  2100  1552  2D54               	goto	u6111
  2101  1553  2D55               	goto	u6110
  2102  1554                     u6111:
  2103  1554  2D5D               	goto	l3828
  2104  1555                     u6110:
  2105  1555                     l3826:
  2106                           
  2107                           ;main.c: 57:             {;main.c: 58:                 DutyCycle += 5;
  2108  1555  3005               	movlw	5
  2109  1556  1683               	bsf	3,5	;RP0=1, select bank1
  2110  1557  1303               	bcf	3,6	;RP1=0, select bank1
  2111  1558  00CB               	movwf	??_main^(0+128)
  2112  1559  084B               	movf	??_main^(0+128),w
  2113  155A  1683               	bsf	3,5	;RP0=1, select bank3
  2114  155B  1703               	bsf	3,6	;RP1=1, select bank3
  2115  155C  07CC               	addwf	main@DutyCycle^(0+384),f
  2116  155D                     l3828:
  2117                           
  2118                           ;main.c: 60:             PWM_SetDutyCycle(0,DutyCycle);
  2119  155D  084C               	movf	main@DutyCycle^(0+384),w
  2120  155E  1683               	bsf	3,5	;RP0=1, select bank1
  2121  155F  1303               	bcf	3,6	;RP1=0, select bank1
  2122  1560  00CB               	movwf	??_main^(0+128)
  2123  1561  084B               	movf	??_main^(0+128),w
  2124  1562  00F0               	movwf	PWM_SetDutyCycle@dutyCycle
  2125  1563  3000               	movlw	0
  2126  1564  160A  158A  2158  160A  118A  	fcall	_PWM_SetDutyCycle
  2127  1569                     l3830:	
  2128                           ;main.c: 61:         }
  2129                           
  2130                           
  2131                           ;main.c: 66:         _delay((unsigned long)((5)*(16000000UL/4000.0)));
  2132  1569  301A               	movlw	26
  2133  156A  1683               	bsf	3,5	;RP0=1, select bank1
  2134  156B  1303               	bcf	3,6	;RP1=0, select bank1
  2135  156C  00CC               	movwf	(??_main^(0+128)+1)
  2136  156D  30F7               	movlw	247
  2137  156E  00CB               	movwf	??_main^(0+128)
  2138  156F                     u6127:
  2139  156F  0BCB               	decfsz	??_main^(0+128),f
  2140  1570  2D6F               	goto	u6127
  2141  1571  0BCC               	decfsz	(??_main^(0+128)+1),f
  2142  1572  2D6F               	goto	u6127
  2143  1573  2D74               	nop2
  2144  1574  2B44               	goto	l3790
  2145  1575  120A  118A  2800   	ljmp	start
  2146  1578                     __end_of_main:
  2147                           
  2148                           	psect	text1
  2149  015E                     __ptext1:	
  2150 ;; *************** function _sprintf *****************
  2151 ;; Defined at:
  2152 ;;		line 505 in file "C:\Program Files\Microchip\xc8\v2.35\pic\sources\c90\common\doprnt.c"
  2153 ;; Parameters:    Size  Location     Type
  2154 ;;  sp              1    wreg     PTR unsigned char 
  2155 ;;		 -> main@Str(50), 
  2156 ;;  f               1    4[BANK1 ] PTR const unsigned char 
  2157 ;;		 -> STR_3(25), 
  2158 ;; Auto vars:     Size  Location     Type
  2159 ;;  sp              1   35[BANK1 ] PTR unsigned char 
  2160 ;;		 -> main@Str(50), 
  2161 ;;  fval            4   38[BANK1 ] PTR unsigned char 
  2162 ;;  tmpval          4   31[BANK1 ] struct .
  2163 ;;  val             4   25[BANK1 ] unsigned long 
  2164 ;;  prec            2   36[BANK1 ] int 
  2165 ;;  eexp            2   29[BANK1 ] int 
  2166 ;;  flag            2   23[BANK1 ] unsigned short 
  2167 ;;  cp              2    0        PTR const unsigned char 
  2168 ;;  len             2    0        unsigned int 
  2169 ;;  width           2    0        int 
  2170 ;;  c               1   42[BANK1 ] unsigned char 
  2171 ;;  ap              1   22[BANK1 ] PTR void [1]
  2172 ;;		 -> ?_sprintf(2), 
  2173 ;;  d               1    0        unsigned char 
  2174 ;; Return value:  Size  Location     Type
  2175 ;;                  2    4[BANK1 ] int 
  2176 ;; Registers used:
  2177 ;;		wreg, fsr0l, fsr0h, status,2, status,0, btemp+1, pclath, cstack
  2178 ;; Tracked objects:
  2179 ;;		On entry : 0/0
  2180 ;;		On exit  : 0/0
  2181 ;;		Unchanged: 0/0
  2182 ;; Data sizes:     COMMON   BANK0   BANK1   BANK3   BANK2
  2183 ;;      Params:         0       0       9       0       0
  2184 ;;      Locals:         0       0      25       0       0
  2185 ;;      Temps:          0       0       5       0       0
  2186 ;;      Totals:         0       0      39       0       0
  2187 ;;Total ram usage:       39 bytes
  2188 ;; Hardware stack levels used: 1
  2189 ;; Hardware stack levels required when called: 3
  2190 ;; This function calls:
  2191 ;;		___awdiv
  2192 ;;		___fladd
  2193 ;;		___fleq
  2194 ;;		___flge
  2195 ;;		___flmul
  2196 ;;		___flneg
  2197 ;;		___flsub
  2198 ;;		___fltol
  2199 ;;		___lldiv
  2200 ;;		___llmod
  2201 ;;		___wmul
  2202 ;;		___xxtofl
  2203 ;;		__div_to_l_
  2204 ;;		__tdiv_to_l_
  2205 ;;		_fround
  2206 ;;		_isdigit
  2207 ;;		_scale
  2208 ;; This function is called by:
  2209 ;;		_main
  2210 ;; This function uses a non-reentrant model
  2211 ;;
  2212                           
  2213  015E                     _sprintf:	
  2214                           ;psect for function _sprintf
  2215                           
  2216                           
  2217                           ;incstack = 0
  2218                           ; Regs used in _sprintf: [wreg-fsr0h+status,2+status,0+btemp+1+pclath+cstack]
  2219                           ;sprintf@sp stored from wreg
  2220  015E  1683               	bsf	3,5	;RP0=1, select bank1
  2221  015F  1303               	bcf	3,6	;RP1=0, select bank1
  2222  0160  00C3               	movwf	sprintf@sp^(0+128)
  2223  0161                     l3420:
  2224                           
  2225                           ;C:\Program Files\Microchip\xc8\v2.35\pic\sources\c90\common\doprnt.c: 505: sprintf(char
      +                           * sp, const char * f, ...);C:\Program Files\Microchip\xc8\v2.35\pic\sources\c90\common\
      +                          doprnt.c: 506: {;C:\Program Files\Microchip\xc8\v2.35\pic\sources\c90\common\doprnt.c: 5
      +                          07:  va_list ap;;C:\Program Files\Microchip\xc8\v2.35\pic\sources\c90\common\doprnt.c: 5
      +                          12:  char c;;C:\Program Files\Microchip\xc8\v2.35\pic\sources\c90\common\doprnt.c: 514: 
      +                           int width;;C:\Program Files\Microchip\xc8\v2.35\pic\sources\c90\common\doprnt.c: 517:  
      +                          int prec;
  2226  0161  30A5               	movlw	(low ((?_sprintf| 0+1)))& (0+255)
  2227  0162  00AD               	movwf	??_sprintf^(0+128)
  2228  0163  082D               	movf	??_sprintf^(0+128),w
  2229  0164  00B6               	movwf	sprintf@ap^(0+128)
  2230                           
  2231                           ;C:\Program Files\Microchip\xc8\v2.35\pic\sources\c90\common\doprnt.c: 553:  while((c = 
      +                          *f++)) {
  2232  0165  2FD7               	goto	l3614
  2233  0166                     l3422:
  2234                           
  2235                           ;C:\Program Files\Microchip\xc8\v2.35\pic\sources\c90\common\doprnt.c: 555:   if(c != '%
      +                          ')
  2236  0166  3025               	movlw	37
  2237  0167  064A               	xorwf	sprintf@c^(0+128),w
  2238  0168  1903               	btfsc	3,2
  2239  0169  296B               	goto	u5431
  2240  016A  296C               	goto	u5430
  2241  016B                     u5431:
  2242  016B  2978               	goto	l3428
  2243  016C                     u5430:
  2244  016C                     l3424:
  2245                           
  2246                           ;C:\Program Files\Microchip\xc8\v2.35\pic\sources\c90\common\doprnt.c: 557:   {;C:\Progr
      +                          am Files\Microchip\xc8\v2.35\pic\sources\c90\common\doprnt.c: 558:    ((*sp++ = (c)));
  2247  016C  084A               	movf	sprintf@c^(0+128),w
  2248  016D  00AD               	movwf	??_sprintf^(0+128)
  2249  016E  0843               	movf	sprintf@sp^(0+128),w
  2250  016F  0084               	movwf	4
  2251  0170  082D               	movf	??_sprintf^(0+128),w
  2252  0171  1783               	bsf	3,7	;select IRP bank2
  2253  0172  0080               	movwf	0
  2254  0173                     l3426:
  2255  0173  3001               	movlw	1
  2256  0174  00AD               	movwf	??_sprintf^(0+128)
  2257  0175  082D               	movf	??_sprintf^(0+128),w
  2258  0176  07C3               	addwf	sprintf@sp^(0+128),f
  2259                           
  2260                           ;C:\Program Files\Microchip\xc8\v2.35\pic\sources\c90\common\doprnt.c: 559:    continue;
  2261  0177  2FD7               	goto	l3614
  2262  0178                     l3428:
  2263                           
  2264                           ;C:\Program Files\Microchip\xc8\v2.35\pic\sources\c90\common\doprnt.c: 565:   flag = 0;
  2265  0178  01B7               	clrf	sprintf@flag^(0+128)
  2266  0179  01B8               	clrf	(sprintf@flag+1)^(0+128)
  2267  017A                     l3430:
  2268                           
  2269                           ;C:\Program Files\Microchip\xc8\v2.35\pic\sources\c90\common\doprnt.c: 628:   if(*f == '
      +                          .') {
  2270  017A  0824               	movf	sprintf@f^(0+128),w
  2271  017B  0084               	movwf	4
  2272  017C  120A  158A  200A  120A  118A  	fcall	stringdir
  2273  0181  3A2E               	xorlw	46
  2274  0182  1D03               	skipz
  2275  0183  2985               	goto	u5441
  2276  0184  2986               	goto	u5440
  2277  0185                     u5441:
  2278  0185  29CB               	goto	l3446
  2279  0186                     u5440:
  2280  0186                     l3432:
  2281                           
  2282                           ;C:\Program Files\Microchip\xc8\v2.35\pic\sources\c90\common\doprnt.c: 629:    flag |= 0
      +                          x4000;
  2283  0186  1738               	bsf	(sprintf@flag^(0+128)+1),6
  2284  0187                     l3434:
  2285                           
  2286                           ;C:\Program Files\Microchip\xc8\v2.35\pic\sources\c90\common\doprnt.c: 630:    f++;
  2287  0187  3001               	movlw	1
  2288  0188  00AD               	movwf	??_sprintf^(0+128)
  2289  0189  082D               	movf	??_sprintf^(0+128),w
  2290  018A  07A4               	addwf	sprintf@f^(0+128),f
  2291  018B                     l3436:
  2292                           
  2293                           ;C:\Program Files\Microchip\xc8\v2.35\pic\sources\c90\common\doprnt.c: 644:    {;C:\Prog
      +                          ram Files\Microchip\xc8\v2.35\pic\sources\c90\common\doprnt.c: 645:     prec = 0;
  2294  018B  01C4               	clrf	sprintf@prec^(0+128)
  2295  018C  01C5               	clrf	(sprintf@prec+1)^(0+128)
  2296                           
  2297                           ;C:\Program Files\Microchip\xc8\v2.35\pic\sources\c90\common\doprnt.c: 646:     while(is
      +                          digit((unsigned)*f)) {
  2298  018D  29BA               	goto	l3444
  2299  018E                     l3438:
  2300                           
  2301                           ;C:\Program Files\Microchip\xc8\v2.35\pic\sources\c90\common\doprnt.c: 647:      prec *=
      +                           10;
  2302  018E  300A               	movlw	10
  2303  018F  00F0               	movwf	___wmul@multiplier
  2304  0190  3000               	movlw	0
  2305  0191  00F1               	movwf	___wmul@multiplier+1
  2306  0192  1683               	bsf	3,5	;RP0=1, select bank1
  2307  0193  1303               	bcf	3,6	;RP1=0, select bank1
  2308  0194  0845               	movf	(sprintf@prec+1)^(0+128),w
  2309  0195  00F3               	movwf	___wmul@multiplicand+1
  2310  0196  0844               	movf	sprintf@prec^(0+128),w
  2311  0197  00F2               	movwf	___wmul@multiplicand
  2312  0198  160A  158A  20E7  120A  118A  	fcall	___wmul
  2313  019D  0871               	movf	?___wmul+1,w
  2314  019E  1683               	bsf	3,5	;RP0=1, select bank1
  2315  019F  1303               	bcf	3,6	;RP1=0, select bank1
  2316  01A0  00C5               	movwf	(sprintf@prec+1)^(0+128)
  2317  01A1  0870               	movf	?___wmul,w
  2318  01A2  00C4               	movwf	sprintf@prec^(0+128)
  2319  01A3                     l3440:
  2320                           
  2321                           ;C:\Program Files\Microchip\xc8\v2.35\pic\sources\c90\common\doprnt.c: 648:         prec
      +                           += *f++ - '0';
  2322  01A3  0824               	movf	sprintf@f^(0+128),w
  2323  01A4  0084               	movwf	4
  2324  01A5  120A  158A  200A  120A  118A  	fcall	stringdir
  2325  01AA  3ED0               	addlw	208
  2326  01AB  00AD               	movwf	??_sprintf^(0+128)
  2327  01AC  30FF               	movlw	255
  2328  01AD  1803               	skipnc
  2329  01AE  3000               	movlw	0
  2330  01AF  00AE               	movwf	(??_sprintf^(0+128)+1)
  2331  01B0  082D               	movf	??_sprintf^(0+128),w
  2332  01B1  07C4               	addwf	sprintf@prec^(0+128),f
  2333  01B2  1803               	skipnc
  2334  01B3  0AC5               	incf	(sprintf@prec+1)^(0+128),f
  2335  01B4  082E               	movf	(??_sprintf+1)^(0+128),w
  2336  01B5  07C5               	addwf	(sprintf@prec+1)^(0+128),f
  2337  01B6                     l3442:
  2338  01B6  3001               	movlw	1
  2339  01B7  00AD               	movwf	??_sprintf^(0+128)
  2340  01B8  082D               	movf	??_sprintf^(0+128),w
  2341  01B9  07A4               	addwf	sprintf@f^(0+128),f
  2342  01BA                     l3444:
  2343                           
  2344                           ;C:\Program Files\Microchip\xc8\v2.35\pic\sources\c90\common\doprnt.c: 646:     while(is
      +                          digit((unsigned)*f)) {
  2345  01BA  0824               	movf	sprintf@f^(0+128),w
  2346  01BB  0084               	movwf	4
  2347  01BC  120A  158A  200A  120A  118A  	fcall	stringdir
  2348  01C1  160A  158A  2034  120A  118A  	fcall	_isdigit
  2349  01C6  1803               	btfsc	3,0
  2350  01C7  29C9               	goto	u5451
  2351  01C8  29CA               	goto	u5450
  2352  01C9                     u5451:
  2353  01C9  298E               	goto	l3438
  2354  01CA                     u5450:
  2355  01CA  29D1               	goto	l3452
  2356  01CB                     l3446:
  2357                           
  2358                           ;C:\Program Files\Microchip\xc8\v2.35\pic\sources\c90\common\doprnt.c: 652:    prec = 0;
  2359  01CB  01C4               	clrf	sprintf@prec^(0+128)
  2360  01CC  01C5               	clrf	(sprintf@prec+1)^(0+128)
  2361  01CD                     l3448:
  2362                           
  2363                           ;C:\Program Files\Microchip\xc8\v2.35\pic\sources\c90\common\doprnt.c: 654:    flag |= 0
      +                          x1000;
  2364  01CD  1638               	bsf	(sprintf@flag^(0+128)+1),4
  2365  01CE  29D1               	goto	l3452
  2366  01CF                     l312:	
  2367                           ;C:\Program Files\Microchip\xc8\v2.35\pic\sources\c90\common\doprnt.c: 688:   case 'f':
  2368                           
  2369                           
  2370                           ;C:\Program Files\Microchip\xc8\v2.35\pic\sources\c90\common\doprnt.c: 689:    flag |= 0
      +                          x400;
  2371  01CF  1538               	bsf	(sprintf@flag^(0+128)+1),2
  2372                           
  2373                           ;C:\Program Files\Microchip\xc8\v2.35\pic\sources\c90\common\doprnt.c: 690:    break;
  2374  01D0  29ED               	goto	l3454
  2375  01D1                     l3452:
  2376  01D1  3001               	movlw	1
  2377  01D2  1683               	bsf	3,5	;RP0=1, select bank1
  2378  01D3  1303               	bcf	3,6	;RP1=0, select bank1
  2379  01D4  07A4               	addwf	sprintf@f^(0+128),f
  2380  01D5  30FF               	movlw	-1
  2381  01D6  0724               	addwf	sprintf@f^(0+128),w
  2382  01D7  0084               	movwf	4
  2383  01D8  120A  158A  200A  120A  118A  	fcall	stringdir
  2384  01DD  00CA               	movwf	sprintf@c^(0+128)
  2385  01DE  00AD               	movwf	??_sprintf^(0+128)
  2386  01DF  01AE               	clrf	(??_sprintf^(0+128)+1)
  2387                           
  2388                           ; Switch on 2 bytes has been partitioned into a top level switch of size 1, and 1 sub-sw
      +                          itches
  2389                           ; Switch size 1, requested type "simple"
  2390                           ; Number of cases is 1, Range of values is 0 to 0
  2391                           ; switch strategies available:
  2392                           ; Name         Instructions Cycles
  2393                           ; simple_byte            4     3 (average)
  2394                           ; direct_byte           11     8 (fixed)
  2395                           ; jumptable            260     6 (fixed)
  2396                           ;	Chosen strategy is simple_byte
  2397  01E0  082E               	movf	(??_sprintf+1)^(0+128),w
  2398  01E1  3A00               	xorlw	0	; case 0
  2399  01E2  1903               	skipnz
  2400  01E3  29E5               	goto	l3902
  2401  01E4  2FD7               	goto	l3614
  2402  01E5                     l3902:
  2403                           
  2404                           ; Switch size 1, requested type "simple"
  2405                           ; Number of cases is 2, Range of values is 0 to 102
  2406                           ; switch strategies available:
  2407                           ; Name         Instructions Cycles
  2408                           ; simple_byte            7     4 (average)
  2409                           ; jumptable            260     6 (fixed)
  2410                           ;	Chosen strategy is simple_byte
  2411  01E5  082D               	movf	??_sprintf^(0+128),w
  2412  01E6  3A00               	xorlw	0	; case 0
  2413  01E7  1903               	skipnz
  2414  01E8  2FE9               	goto	l3616
  2415  01E9  3A66               	xorlw	102	; case 102
  2416  01EA  1903               	skipnz
  2417  01EB  29CF               	goto	l312
  2418  01EC  2FD7               	goto	l3614
  2419  01ED                     l3454:
  2420                           
  2421                           ;C:\Program Files\Microchip\xc8\v2.35\pic\sources\c90\common\doprnt.c: 851:   if(flag & 
      +                          (0x700)) {
  2422  01ED  3000               	movlw	0
  2423  01EE  0537               	andwf	sprintf@flag^(0+128),w
  2424  01EF  00AD               	movwf	??_sprintf^(0+128)
  2425  01F0  3007               	movlw	7
  2426  01F1  0538               	andwf	(sprintf@flag+1)^(0+128),w
  2427  01F2  00AE               	movwf	(??_sprintf+1)^(0+128)
  2428  01F3  082D               	movf	??_sprintf^(0+128),w
  2429  01F4  042E               	iorwf	(??_sprintf^(0+128)+1),w
  2430  01F5  1903               	btfsc	3,2
  2431  01F6  29F8               	goto	u5461
  2432  01F7  29F9               	goto	u5460
  2433  01F8                     u5461:
  2434  01F8  2F92               	goto	l3596
  2435  01F9                     u5460:
  2436  01F9                     l3456:
  2437                           
  2438                           ;C:\Program Files\Microchip\xc8\v2.35\pic\sources\c90\common\doprnt.c: 853:    if(flag &
      +                           0x1000)
  2439  01F9  1E38               	btfss	(sprintf@flag+1)^(0+128),4
  2440  01FA  29FC               	goto	u5471
  2441  01FB  29FD               	goto	u5470
  2442  01FC                     u5471:
  2443  01FC  2A01               	goto	l3460
  2444  01FD                     u5470:
  2445  01FD                     l3458:
  2446                           
  2447                           ;C:\Program Files\Microchip\xc8\v2.35\pic\sources\c90\common\doprnt.c: 855:     prec = 6
      +                          ;
  2448  01FD  3006               	movlw	6
  2449  01FE  00C4               	movwf	sprintf@prec^(0+128)
  2450  01FF  3000               	movlw	0
  2451  0200  00C5               	movwf	(sprintf@prec^(0+128)+1)
  2452  0201                     l3460:
  2453                           
  2454                           ;C:\Program Files\Microchip\xc8\v2.35\pic\sources\c90\common\doprnt.c: 856:    fval = (*
      +                          (double *)__va_arg((*(double **)ap), (double)0));
  2455  0201  0836               	movf	sprintf@ap^(0+128),w
  2456  0202  0084               	movwf	4
  2457  0203  1383               	bcf	3,7	;select IRP bank0
  2458  0204  0800               	movf	0,w
  2459  0205  00C6               	movwf	sprintf@fval^(0+128)
  2460  0206  0A84               	incf	4,f
  2461  0207  0800               	movf	0,w
  2462  0208  00C7               	movwf	(sprintf@fval+1)^(0+128)
  2463  0209  0A84               	incf	4,f
  2464  020A  0800               	movf	0,w
  2465  020B  00C8               	movwf	(sprintf@fval+2)^(0+128)
  2466  020C  0A84               	incf	4,f
  2467  020D  0800               	movf	0,w
  2468  020E  00C9               	movwf	(sprintf@fval+3)^(0+128)
  2469  020F                     l3462:
  2470  020F  3004               	movlw	4
  2471  0210  00AD               	movwf	??_sprintf^(0+128)
  2472  0211  082D               	movf	??_sprintf^(0+128),w
  2473  0212  07B6               	addwf	sprintf@ap^(0+128),f
  2474  0213                     l3464:
  2475                           
  2476                           ;C:\Program Files\Microchip\xc8\v2.35\pic\sources\c90\common\doprnt.c: 857:    if(fval <
      +                           0.0) {
  2477  0213  0849               	movf	(sprintf@fval+3)^(0+128),w
  2478  0214  1283               	bcf	3,5	;RP0=0, select bank0
  2479  0215  1303               	bcf	3,6	;RP1=0, select bank0
  2480  0216  00EB               	movwf	___flge@ff1+3
  2481  0217  1683               	bsf	3,5	;RP0=1, select bank1
  2482  0218  1303               	bcf	3,6	;RP1=0, select bank1
  2483  0219  0848               	movf	(sprintf@fval+2)^(0+128),w
  2484  021A  1283               	bcf	3,5	;RP0=0, select bank0
  2485  021B  1303               	bcf	3,6	;RP1=0, select bank0
  2486  021C  00EA               	movwf	___flge@ff1+2
  2487  021D  1683               	bsf	3,5	;RP0=1, select bank1
  2488  021E  1303               	bcf	3,6	;RP1=0, select bank1
  2489  021F  0847               	movf	(sprintf@fval+1)^(0+128),w
  2490  0220  1283               	bcf	3,5	;RP0=0, select bank0
  2491  0221  1303               	bcf	3,6	;RP1=0, select bank0
  2492  0222  00E9               	movwf	___flge@ff1+1
  2493  0223  1683               	bsf	3,5	;RP0=1, select bank1
  2494  0224  1303               	bcf	3,6	;RP1=0, select bank1
  2495  0225  0846               	movf	sprintf@fval^(0+128),w
  2496  0226  1283               	bcf	3,5	;RP0=0, select bank0
  2497  0227  1303               	bcf	3,6	;RP1=0, select bank0
  2498  0228  00E8               	movwf	___flge@ff1
  2499  0229  3000               	movlw	0
  2500  022A  00EF               	movwf	___flge@ff2+3
  2501  022B  3000               	movlw	0
  2502  022C  00EE               	movwf	___flge@ff2+2
  2503  022D  3000               	movlw	0
  2504  022E  00ED               	movwf	___flge@ff2+1
  2505  022F  3000               	movlw	0
  2506  0230  00EC               	movwf	___flge@ff2
  2507  0231  120A  118A  2050  120A  118A  	fcall	___flge
  2508  0236  1803               	btfsc	3,0
  2509  0237  2A39               	goto	u5481
  2510  0238  2A3A               	goto	u5480
  2511  0239                     u5481:
  2512  0239  2A57               	goto	l3470
  2513  023A                     u5480:
  2514  023A                     l3466:
  2515                           
  2516                           ;C:\Program Files\Microchip\xc8\v2.35\pic\sources\c90\common\doprnt.c: 858:     fval = -
      +                          fval;
  2517  023A  1683               	bsf	3,5	;RP0=1, select bank1
  2518  023B  1303               	bcf	3,6	;RP1=0, select bank1
  2519  023C  0849               	movf	(sprintf@fval+3)^(0+128),w
  2520  023D  00F3               	movwf	___flneg@f1+3
  2521  023E  0848               	movf	(sprintf@fval+2)^(0+128),w
  2522  023F  00F2               	movwf	___flneg@f1+2
  2523  0240  0847               	movf	(sprintf@fval+1)^(0+128),w
  2524  0241  00F1               	movwf	___flneg@f1+1
  2525  0242  0846               	movf	sprintf@fval^(0+128),w
  2526  0243  00F0               	movwf	___flneg@f1
  2527  0244  160A  158A  201D  120A  118A  	fcall	___flneg
  2528  0249  0873               	movf	?___flneg+3,w
  2529  024A  1683               	bsf	3,5	;RP0=1, select bank1
  2530  024B  1303               	bcf	3,6	;RP1=0, select bank1
  2531  024C  00C9               	movwf	(sprintf@fval+3)^(0+128)
  2532  024D  0872               	movf	?___flneg+2,w
  2533  024E  00C8               	movwf	(sprintf@fval+2)^(0+128)
  2534  024F  0871               	movf	?___flneg+1,w
  2535  0250  00C7               	movwf	(sprintf@fval+1)^(0+128)
  2536  0251  0870               	movf	?___flneg,w
  2537  0252  00C6               	movwf	sprintf@fval^(0+128)
  2538  0253                     l3468:
  2539                           
  2540                           ;C:\Program Files\Microchip\xc8\v2.35\pic\sources\c90\common\doprnt.c: 859:     flag |= 
      +                          0x03;
  2541  0253  3003               	movlw	3
  2542  0254  04B7               	iorwf	sprintf@flag^(0+128),f
  2543  0255  3000               	movlw	0
  2544  0256  04B8               	iorwf	(sprintf@flag+1)^(0+128),f
  2545  0257                     l3470:
  2546                           
  2547                           ;C:\Program Files\Microchip\xc8\v2.35\pic\sources\c90\common\doprnt.c: 861:    eexp = 0;
  2548  0257  1683               	bsf	3,5	;RP0=1, select bank1
  2549  0258  1303               	bcf	3,6	;RP1=0, select bank1
  2550  0259  01BD               	clrf	sprintf@eexp^(0+128)
  2551  025A  01BE               	clrf	(sprintf@eexp+1)^(0+128)
  2552  025B                     l3472:
  2553                           
  2554                           ;C:\Program Files\Microchip\xc8\v2.35\pic\sources\c90\common\doprnt.c: 862:    if( fval!
      +                          =0) {
  2555  025B  0849               	movf	(sprintf@fval+3)^(0+128),w
  2556  025C  00F3               	movwf	___fleq@ff1+3
  2557  025D  0848               	movf	(sprintf@fval+2)^(0+128),w
  2558  025E  00F2               	movwf	___fleq@ff1+2
  2559  025F  0847               	movf	(sprintf@fval+1)^(0+128),w
  2560  0260  00F1               	movwf	___fleq@ff1+1
  2561  0261  0846               	movf	sprintf@fval^(0+128),w
  2562  0262  00F0               	movwf	___fleq@ff1
  2563  0263  3000               	movlw	0
  2564  0264  00F7               	movwf	___fleq@ff2+3
  2565  0265  3000               	movlw	0
  2566  0266  00F6               	movwf	___fleq@ff2+2
  2567  0267  3000               	movlw	0
  2568  0268  00F5               	movwf	___fleq@ff2+1
  2569  0269  3000               	movlw	0
  2570  026A  00F4               	movwf	___fleq@ff2
  2571  026B  160A  158A  22BD  120A  118A  	fcall	___fleq
  2572  0270  1803               	btfsc	3,0
  2573  0271  2A73               	goto	u5491
  2574  0272  2A74               	goto	u5490
  2575  0273                     u5491:
  2576  0273  2B80               	goto	l3498
  2577  0274                     u5490:
  2578  0274                     l3474:
  2579                           
  2580                           ;C:\Program Files\Microchip\xc8\v2.35\pic\sources\c90\common\doprnt.c: 863:     (void)(*
      +                          (&eexp) = (unsigned char)((*(unsigned long *)&fval >> 23) & 255) - 126);
  2581  0274  1003               	clrc
  2582  0275  1683               	bsf	3,5	;RP0=1, select bank1
  2583  0276  1303               	bcf	3,6	;RP1=0, select bank1
  2584  0277  0D48               	rlf	(sprintf@fval+2)^(0+128),w
  2585  0278  0D49               	rlf	(sprintf@fval+3)^(0+128),w
  2586  0279  3E82               	addlw	130
  2587  027A  00BD               	movwf	sprintf@eexp^(0+128)
  2588  027B  30FF               	movlw	255
  2589  027C  1803               	skipnc
  2590  027D  3000               	movlw	0
  2591  027E  00BE               	movwf	(sprintf@eexp^(0+128)+1)
  2592  027F                     l3476:
  2593                           
  2594                           ;C:\Program Files\Microchip\xc8\v2.35\pic\sources\c90\common\doprnt.c: 864:     eexp--;
  2595  027F  30FF               	movlw	255
  2596  0280  07BD               	addwf	sprintf@eexp^(0+128),f
  2597  0281  1803               	skipnc
  2598  0282  0ABE               	incf	(sprintf@eexp+1)^(0+128),f
  2599  0283  30FF               	movlw	255
  2600  0284  07BE               	addwf	(sprintf@eexp+1)^(0+128),f
  2601  0285                     l3478:
  2602                           
  2603                           ;C:\Program Files\Microchip\xc8\v2.35\pic\sources\c90\common\doprnt.c: 865:     eexp *= 
      +                          3;
  2604  0285  3003               	movlw	3
  2605  0286  00F0               	movwf	___wmul@multiplier
  2606  0287  3000               	movlw	0
  2607  0288  00F1               	movwf	___wmul@multiplier+1
  2608  0289  083E               	movf	(sprintf@eexp+1)^(0+128),w
  2609  028A  00F3               	movwf	___wmul@multiplicand+1
  2610  028B  083D               	movf	sprintf@eexp^(0+128),w
  2611  028C  00F2               	movwf	___wmul@multiplicand
  2612  028D  160A  158A  20E7  120A  118A  	fcall	___wmul
  2613  0292  0871               	movf	?___wmul+1,w
  2614  0293  1683               	bsf	3,5	;RP0=1, select bank1
  2615  0294  1303               	bcf	3,6	;RP1=0, select bank1
  2616  0295  00BE               	movwf	(sprintf@eexp+1)^(0+128)
  2617  0296  0870               	movf	?___wmul,w
  2618  0297  00BD               	movwf	sprintf@eexp^(0+128)
  2619  0298                     l3480:
  2620                           
  2621                           ;C:\Program Files\Microchip\xc8\v2.35\pic\sources\c90\common\doprnt.c: 866:     eexp /= 
      +                          10;
  2622  0298  300A               	movlw	10
  2623  0299  00F7               	movwf	___awdiv@divisor
  2624  029A  3000               	movlw	0
  2625  029B  00F8               	movwf	___awdiv@divisor+1
  2626  029C  083E               	movf	(sprintf@eexp+1)^(0+128),w
  2627  029D  00FA               	movwf	___awdiv@dividend+1
  2628  029E  083D               	movf	sprintf@eexp^(0+128),w
  2629  029F  00F9               	movwf	___awdiv@dividend
  2630  02A0  160A  158A  23C5  120A  118A  	fcall	___awdiv
  2631  02A5  0878               	movf	?___awdiv+1,w
  2632  02A6  1683               	bsf	3,5	;RP0=1, select bank1
  2633  02A7  1303               	bcf	3,6	;RP1=0, select bank1
  2634  02A8  00BE               	movwf	(sprintf@eexp+1)^(0+128)
  2635  02A9  0877               	movf	?___awdiv,w
  2636  02AA  00BD               	movwf	sprintf@eexp^(0+128)
  2637  02AB                     l3482:
  2638                           
  2639                           ;C:\Program Files\Microchip\xc8\v2.35\pic\sources\c90\common\doprnt.c: 867:     if(eexp 
      +                          < 0)
  2640  02AB  1FBE               	btfss	(sprintf@eexp+1)^(0+128),7
  2641  02AC  2AAE               	goto	u5501
  2642  02AD  2AAF               	goto	u5500
  2643  02AE                     u5501:
  2644  02AE  2AB5               	goto	l3486
  2645  02AF                     u5500:
  2646  02AF                     l3484:
  2647                           
  2648                           ;C:\Program Files\Microchip\xc8\v2.35\pic\sources\c90\common\doprnt.c: 868:      eexp--;
  2649  02AF  30FF               	movlw	255
  2650  02B0  07BD               	addwf	sprintf@eexp^(0+128),f
  2651  02B1  1803               	skipnc
  2652  02B2  0ABE               	incf	(sprintf@eexp+1)^(0+128),f
  2653  02B3  30FF               	movlw	255
  2654  02B4  07BE               	addwf	(sprintf@eexp+1)^(0+128),f
  2655  02B5                     l3486:
  2656                           
  2657                           ;C:\Program Files\Microchip\xc8\v2.35\pic\sources\c90\common\doprnt.c: 872:     tmpval.i
      +                          nteg = scale(-eexp);
  2658  02B5  033D               	decf	sprintf@eexp^(0+128),w
  2659  02B6  3AFF               	xorlw	255
  2660  02B7  120A  158A  2140  120A  118A  	fcall	_scale
  2661  02BC  1283               	bcf	3,5	;RP0=0, select bank0
  2662  02BD  1303               	bcf	3,6	;RP1=0, select bank0
  2663  02BE  0843               	movf	?_scale+3,w
  2664  02BF  1683               	bsf	3,5	;RP0=1, select bank1
  2665  02C0  1303               	bcf	3,6	;RP1=0, select bank1
  2666  02C1  00C2               	movwf	(sprintf@tmpval+3)^(0+128)
  2667  02C2  1283               	bcf	3,5	;RP0=0, select bank0
  2668  02C3  1303               	bcf	3,6	;RP1=0, select bank0
  2669  02C4  0842               	movf	?_scale+2,w
  2670  02C5  1683               	bsf	3,5	;RP0=1, select bank1
  2671  02C6  1303               	bcf	3,6	;RP1=0, select bank1
  2672  02C7  00C1               	movwf	(sprintf@tmpval+2)^(0+128)
  2673  02C8  1283               	bcf	3,5	;RP0=0, select bank0
  2674  02C9  1303               	bcf	3,6	;RP1=0, select bank0
  2675  02CA  0841               	movf	?_scale+1,w
  2676  02CB  1683               	bsf	3,5	;RP0=1, select bank1
  2677  02CC  1303               	bcf	3,6	;RP1=0, select bank1
  2678  02CD  00C0               	movwf	(sprintf@tmpval+1)^(0+128)
  2679  02CE  1283               	bcf	3,5	;RP0=0, select bank0
  2680  02CF  1303               	bcf	3,6	;RP1=0, select bank0
  2681  02D0  0840               	movf	?_scale,w
  2682  02D1  1683               	bsf	3,5	;RP0=1, select bank1
  2683  02D2  1303               	bcf	3,6	;RP1=0, select bank1
  2684  02D3  00BF               	movwf	sprintf@tmpval^(0+128)
  2685  02D4                     l3488:
  2686                           
  2687                           ;C:\Program Files\Microchip\xc8\v2.35\pic\sources\c90\common\doprnt.c: 873:     tmpval.i
      +                          nteg *= fval;
  2688  02D4  0849               	movf	(sprintf@fval+3)^(0+128),w
  2689  02D5  1283               	bcf	3,5	;RP0=0, select bank0
  2690  02D6  1303               	bcf	3,6	;RP1=0, select bank0
  2691  02D7  00A9               	movwf	___flmul@b+3
  2692  02D8  1683               	bsf	3,5	;RP0=1, select bank1
  2693  02D9  1303               	bcf	3,6	;RP1=0, select bank1
  2694  02DA  0848               	movf	(sprintf@fval+2)^(0+128),w
  2695  02DB  1283               	bcf	3,5	;RP0=0, select bank0
  2696  02DC  1303               	bcf	3,6	;RP1=0, select bank0
  2697  02DD  00A8               	movwf	___flmul@b+2
  2698  02DE  1683               	bsf	3,5	;RP0=1, select bank1
  2699  02DF  1303               	bcf	3,6	;RP1=0, select bank1
  2700  02E0  0847               	movf	(sprintf@fval+1)^(0+128),w
  2701  02E1  1283               	bcf	3,5	;RP0=0, select bank0
  2702  02E2  1303               	bcf	3,6	;RP1=0, select bank0
  2703  02E3  00A7               	movwf	___flmul@b+1
  2704  02E4  1683               	bsf	3,5	;RP0=1, select bank1
  2705  02E5  1303               	bcf	3,6	;RP1=0, select bank1
  2706  02E6  0846               	movf	sprintf@fval^(0+128),w
  2707  02E7  1283               	bcf	3,5	;RP0=0, select bank0
  2708  02E8  1303               	bcf	3,6	;RP1=0, select bank0
  2709  02E9  00A6               	movwf	___flmul@b
  2710  02EA  1683               	bsf	3,5	;RP0=1, select bank1
  2711  02EB  1303               	bcf	3,6	;RP1=0, select bank1
  2712  02EC  0842               	movf	(sprintf@tmpval+3)^(0+128),w
  2713  02ED  1283               	bcf	3,5	;RP0=0, select bank0
  2714  02EE  1303               	bcf	3,6	;RP1=0, select bank0
  2715  02EF  00AD               	movwf	___flmul@a+3
  2716  02F0  1683               	bsf	3,5	;RP0=1, select bank1
  2717  02F1  1303               	bcf	3,6	;RP1=0, select bank1
  2718  02F2  0841               	movf	(sprintf@tmpval+2)^(0+128),w
  2719  02F3  1283               	bcf	3,5	;RP0=0, select bank0
  2720  02F4  1303               	bcf	3,6	;RP1=0, select bank0
  2721  02F5  00AC               	movwf	___flmul@a+2
  2722  02F6  1683               	bsf	3,5	;RP0=1, select bank1
  2723  02F7  1303               	bcf	3,6	;RP1=0, select bank1
  2724  02F8  0840               	movf	(sprintf@tmpval+1)^(0+128),w
  2725  02F9  1283               	bcf	3,5	;RP0=0, select bank0
  2726  02FA  1303               	bcf	3,6	;RP1=0, select bank0
  2727  02FB  00AB               	movwf	___flmul@a+1
  2728  02FC  1683               	bsf	3,5	;RP0=1, select bank1
  2729  02FD  1303               	bcf	3,6	;RP1=0, select bank1
  2730  02FE  083F               	movf	sprintf@tmpval^(0+128),w
  2731  02FF  1283               	bcf	3,5	;RP0=0, select bank0
  2732  0300  1303               	bcf	3,6	;RP1=0, select bank0
  2733  0301  00AA               	movwf	___flmul@a
  2734  0302  120A  158A  249F  120A  118A  	fcall	___flmul
  2735  0307  1283               	bcf	3,5	;RP0=0, select bank0
  2736  0308  1303               	bcf	3,6	;RP1=0, select bank0
  2737  0309  0829               	movf	?___flmul+3,w
  2738  030A  1683               	bsf	3,5	;RP0=1, select bank1
  2739  030B  1303               	bcf	3,6	;RP1=0, select bank1
  2740  030C  00C2               	movwf	(sprintf@tmpval+3)^(0+128)
  2741  030D  1283               	bcf	3,5	;RP0=0, select bank0
  2742  030E  1303               	bcf	3,6	;RP1=0, select bank0
  2743  030F  0828               	movf	?___flmul+2,w
  2744  0310  1683               	bsf	3,5	;RP0=1, select bank1
  2745  0311  1303               	bcf	3,6	;RP1=0, select bank1
  2746  0312  00C1               	movwf	(sprintf@tmpval+2)^(0+128)
  2747  0313  1283               	bcf	3,5	;RP0=0, select bank0
  2748  0314  1303               	bcf	3,6	;RP1=0, select bank0
  2749  0315  0827               	movf	?___flmul+1,w
  2750  0316  1683               	bsf	3,5	;RP0=1, select bank1
  2751  0317  1303               	bcf	3,6	;RP1=0, select bank1
  2752  0318  00C0               	movwf	(sprintf@tmpval+1)^(0+128)
  2753  0319  1283               	bcf	3,5	;RP0=0, select bank0
  2754  031A  1303               	bcf	3,6	;RP1=0, select bank0
  2755  031B  0826               	movf	?___flmul,w
  2756  031C  1683               	bsf	3,5	;RP0=1, select bank1
  2757  031D  1303               	bcf	3,6	;RP1=0, select bank1
  2758  031E  00BF               	movwf	sprintf@tmpval^(0+128)
  2759  031F                     l3490:
  2760                           
  2761                           ;C:\Program Files\Microchip\xc8\v2.35\pic\sources\c90\common\doprnt.c: 874:     if(tmpva
      +                          l.integ < 1.0)
  2762  031F  0842               	movf	(sprintf@tmpval+3)^(0+128),w
  2763  0320  1283               	bcf	3,5	;RP0=0, select bank0
  2764  0321  1303               	bcf	3,6	;RP1=0, select bank0
  2765  0322  00EB               	movwf	___flge@ff1+3
  2766  0323  1683               	bsf	3,5	;RP0=1, select bank1
  2767  0324  1303               	bcf	3,6	;RP1=0, select bank1
  2768  0325  0841               	movf	(sprintf@tmpval+2)^(0+128),w
  2769  0326  1283               	bcf	3,5	;RP0=0, select bank0
  2770  0327  1303               	bcf	3,6	;RP1=0, select bank0
  2771  0328  00EA               	movwf	___flge@ff1+2
  2772  0329  1683               	bsf	3,5	;RP0=1, select bank1
  2773  032A  1303               	bcf	3,6	;RP1=0, select bank1
  2774  032B  0840               	movf	(sprintf@tmpval+1)^(0+128),w
  2775  032C  1283               	bcf	3,5	;RP0=0, select bank0
  2776  032D  1303               	bcf	3,6	;RP1=0, select bank0
  2777  032E  00E9               	movwf	___flge@ff1+1
  2778  032F  1683               	bsf	3,5	;RP0=1, select bank1
  2779  0330  1303               	bcf	3,6	;RP1=0, select bank1
  2780  0331  083F               	movf	sprintf@tmpval^(0+128),w
  2781  0332  1283               	bcf	3,5	;RP0=0, select bank0
  2782  0333  1303               	bcf	3,6	;RP1=0, select bank0
  2783  0334  00E8               	movwf	___flge@ff1
  2784  0335  303F               	movlw	63
  2785  0336  00EF               	movwf	___flge@ff2+3
  2786  0337  3080               	movlw	128
  2787  0338  00EE               	movwf	___flge@ff2+2
  2788  0339  3000               	movlw	0
  2789  033A  00ED               	movwf	___flge@ff2+1
  2790  033B  3000               	movlw	0
  2791  033C  00EC               	movwf	___flge@ff2
  2792  033D  120A  118A  2050  120A  118A  	fcall	___flge
  2793  0342  1803               	btfsc	3,0
  2794  0343  2B45               	goto	u5511
  2795  0344  2B46               	goto	u5510
  2796  0345                     u5511:
  2797  0345  2B4F               	goto	l3494
  2798  0346                     u5510:
  2799  0346                     l3492:
  2800                           
  2801                           ;C:\Program Files\Microchip\xc8\v2.35\pic\sources\c90\common\doprnt.c: 875:      eexp--;
  2802  0346  30FF               	movlw	255
  2803  0347  1683               	bsf	3,5	;RP0=1, select bank1
  2804  0348  1303               	bcf	3,6	;RP1=0, select bank1
  2805  0349  07BD               	addwf	sprintf@eexp^(0+128),f
  2806  034A  1803               	skipnc
  2807  034B  0ABE               	incf	(sprintf@eexp+1)^(0+128),f
  2808  034C  30FF               	movlw	255
  2809  034D  07BE               	addwf	(sprintf@eexp+1)^(0+128),f
  2810  034E  2B80               	goto	l3498
  2811  034F                     l3494:
  2812  034F  1683               	bsf	3,5	;RP0=1, select bank1
  2813  0350  1303               	bcf	3,6	;RP1=0, select bank1
  2814  0351  0842               	movf	(sprintf@tmpval+3)^(0+128),w
  2815  0352  1283               	bcf	3,5	;RP0=0, select bank0
  2816  0353  1303               	bcf	3,6	;RP1=0, select bank0
  2817  0354  00EB               	movwf	___flge@ff1+3
  2818  0355  1683               	bsf	3,5	;RP0=1, select bank1
  2819  0356  1303               	bcf	3,6	;RP1=0, select bank1
  2820  0357  0841               	movf	(sprintf@tmpval+2)^(0+128),w
  2821  0358  1283               	bcf	3,5	;RP0=0, select bank0
  2822  0359  1303               	bcf	3,6	;RP1=0, select bank0
  2823  035A  00EA               	movwf	___flge@ff1+2
  2824  035B  1683               	bsf	3,5	;RP0=1, select bank1
  2825  035C  1303               	bcf	3,6	;RP1=0, select bank1
  2826  035D  0840               	movf	(sprintf@tmpval+1)^(0+128),w
  2827  035E  1283               	bcf	3,5	;RP0=0, select bank0
  2828  035F  1303               	bcf	3,6	;RP1=0, select bank0
  2829  0360  00E9               	movwf	___flge@ff1+1
  2830  0361  1683               	bsf	3,5	;RP0=1, select bank1
  2831  0362  1303               	bcf	3,6	;RP1=0, select bank1
  2832  0363  083F               	movf	sprintf@tmpval^(0+128),w
  2833  0364  1283               	bcf	3,5	;RP0=0, select bank0
  2834  0365  1303               	bcf	3,6	;RP1=0, select bank0
  2835  0366  00E8               	movwf	___flge@ff1
  2836  0367  3041               	movlw	65
  2837  0368  00EF               	movwf	___flge@ff2+3
  2838  0369  3020               	movlw	32
  2839  036A  00EE               	movwf	___flge@ff2+2
  2840  036B  3000               	movlw	0
  2841  036C  00ED               	movwf	___flge@ff2+1
  2842  036D  3000               	movlw	0
  2843  036E  00EC               	movwf	___flge@ff2
  2844  036F  120A  118A  2050  120A  118A  	fcall	___flge
  2845  0374  1C03               	btfss	3,0
  2846  0375  2B77               	goto	u5521
  2847  0376  2B78               	goto	u5520
  2848  0377                     u5521:
  2849  0377  2B80               	goto	l3498
  2850  0378                     u5520:
  2851  0378                     l3496:
  2852                           
  2853                           ;C:\Program Files\Microchip\xc8\v2.35\pic\sources\c90\common\doprnt.c: 877:      eexp++;
  2854  0378  3001               	movlw	1
  2855  0379  1683               	bsf	3,5	;RP0=1, select bank1
  2856  037A  1303               	bcf	3,6	;RP1=0, select bank1
  2857  037B  07BD               	addwf	sprintf@eexp^(0+128),f
  2858  037C  1803               	skipnc
  2859  037D  0ABE               	incf	(sprintf@eexp+1)^(0+128),f
  2860  037E  3000               	movlw	0
  2861  037F  07BE               	addwf	(sprintf@eexp+1)^(0+128),f
  2862  0380                     l3498:
  2863                           
  2864                           ;C:\Program Files\Microchip\xc8\v2.35\pic\sources\c90\common\doprnt.c: 1138:      if(pre
      +                          c <= 12)
  2865  0380  1683               	bsf	3,5	;RP0=1, select bank1
  2866  0381  1303               	bcf	3,6	;RP1=0, select bank1
  2867  0382  0845               	movf	(sprintf@prec+1)^(0+128),w
  2868  0383  3A80               	xorlw	128
  2869  0384  00FF               	movwf	btemp+1
  2870  0385  3080               	movlw	128
  2871  0386  027F               	subwf	btemp+1,w
  2872  0387  1D03               	skipz
  2873  0388  2B8B               	goto	u5535
  2874  0389  300D               	movlw	13
  2875  038A  0244               	subwf	sprintf@prec^(0+128),w
  2876  038B                     u5535:
  2877  038B  1803               	skipnc
  2878  038C  2B8E               	goto	u5531
  2879  038D  2B8F               	goto	u5530
  2880  038E                     u5531:
  2881  038E  2BD6               	goto	l3502
  2882  038F                     u5530:
  2883  038F                     l3500:
  2884                           
  2885                           ;C:\Program Files\Microchip\xc8\v2.35\pic\sources\c90\common\doprnt.c: 1139:       fval 
      +                          += fround((unsigned int)prec);
  2886  038F  1683               	bsf	3,5	;RP0=1, select bank1
  2887  0390  1303               	bcf	3,6	;RP1=0, select bank1
  2888  0391  0844               	movf	sprintf@prec^(0+128),w
  2889  0392  160A  118A  20EB  120A  118A  	fcall	_fround
  2890  0397  1283               	bcf	3,5	;RP0=0, select bank0
  2891  0398  1303               	bcf	3,6	;RP1=0, select bank0
  2892  0399  0843               	movf	?_fround+3,w
  2893  039A  00D7               	movwf	___fladd@b+3
  2894  039B  0842               	movf	?_fround+2,w
  2895  039C  00D6               	movwf	___fladd@b+2
  2896  039D  0841               	movf	?_fround+1,w
  2897  039E  00D5               	movwf	___fladd@b+1
  2898  039F  0840               	movf	?_fround,w
  2899  03A0  00D4               	movwf	___fladd@b
  2900  03A1  1683               	bsf	3,5	;RP0=1, select bank1
  2901  03A2  1303               	bcf	3,6	;RP1=0, select bank1
  2902  03A3  0849               	movf	(sprintf@fval+3)^(0+128),w
  2903  03A4  1283               	bcf	3,5	;RP0=0, select bank0
  2904  03A5  1303               	bcf	3,6	;RP1=0, select bank0
  2905  03A6  00DB               	movwf	___fladd@a+3
  2906  03A7  1683               	bsf	3,5	;RP0=1, select bank1
  2907  03A8  1303               	bcf	3,6	;RP1=0, select bank1
  2908  03A9  0848               	movf	(sprintf@fval+2)^(0+128),w
  2909  03AA  1283               	bcf	3,5	;RP0=0, select bank0
  2910  03AB  1303               	bcf	3,6	;RP1=0, select bank0
  2911  03AC  00DA               	movwf	___fladd@a+2
  2912  03AD  1683               	bsf	3,5	;RP0=1, select bank1
  2913  03AE  1303               	bcf	3,6	;RP1=0, select bank1
  2914  03AF  0847               	movf	(sprintf@fval+1)^(0+128),w
  2915  03B0  1283               	bcf	3,5	;RP0=0, select bank0
  2916  03B1  1303               	bcf	3,6	;RP1=0, select bank0
  2917  03B2  00D9               	movwf	___fladd@a+1
  2918  03B3  1683               	bsf	3,5	;RP0=1, select bank1
  2919  03B4  1303               	bcf	3,6	;RP1=0, select bank1
  2920  03B5  0846               	movf	sprintf@fval^(0+128),w
  2921  03B6  1283               	bcf	3,5	;RP0=0, select bank0
  2922  03B7  1303               	bcf	3,6	;RP1=0, select bank0
  2923  03B8  00D8               	movwf	___fladd@a
  2924  03B9  160A  118A  2578  120A  118A  	fcall	___fladd
  2925  03BE  1283               	bcf	3,5	;RP0=0, select bank0
  2926  03BF  1303               	bcf	3,6	;RP1=0, select bank0
  2927  03C0  0857               	movf	?___fladd+3,w
  2928  03C1  1683               	bsf	3,5	;RP0=1, select bank1
  2929  03C2  1303               	bcf	3,6	;RP1=0, select bank1
  2930  03C3  00C9               	movwf	(sprintf@fval+3)^(0+128)
  2931  03C4  1283               	bcf	3,5	;RP0=0, select bank0
  2932  03C5  1303               	bcf	3,6	;RP1=0, select bank0
  2933  03C6  0856               	movf	?___fladd+2,w
  2934  03C7  1683               	bsf	3,5	;RP0=1, select bank1
  2935  03C8  1303               	bcf	3,6	;RP1=0, select bank1
  2936  03C9  00C8               	movwf	(sprintf@fval+2)^(0+128)
  2937  03CA  1283               	bcf	3,5	;RP0=0, select bank0
  2938  03CB  1303               	bcf	3,6	;RP1=0, select bank0
  2939  03CC  0855               	movf	?___fladd+1,w
  2940  03CD  1683               	bsf	3,5	;RP0=1, select bank1
  2941  03CE  1303               	bcf	3,6	;RP1=0, select bank1
  2942  03CF  00C7               	movwf	(sprintf@fval+1)^(0+128)
  2943  03D0  1283               	bcf	3,5	;RP0=0, select bank0
  2944  03D1  1303               	bcf	3,6	;RP1=0, select bank0
  2945  03D2  0854               	movf	?___fladd,w
  2946  03D3  1683               	bsf	3,5	;RP0=1, select bank1
  2947  03D4  1303               	bcf	3,6	;RP1=0, select bank1
  2948  03D5  00C6               	movwf	sprintf@fval^(0+128)
  2949  03D6                     l3502:
  2950                           
  2951                           ;C:\Program Files\Microchip\xc8\v2.35\pic\sources\c90\common\doprnt.c: 1142:     if((eex
      +                          p > 9)||(fval != 0 && (unsigned long)fval == 0 && eexp > 1)) {
  2952  03D6  1683               	bsf	3,5	;RP0=1, select bank1
  2953  03D7  1303               	bcf	3,6	;RP1=0, select bank1
  2954  03D8  083E               	movf	(sprintf@eexp+1)^(0+128),w
  2955  03D9  3A80               	xorlw	128
  2956  03DA  00FF               	movwf	btemp+1
  2957  03DB  3080               	movlw	128
  2958  03DC  027F               	subwf	btemp+1,w
  2959  03DD  1D03               	skipz
  2960  03DE  2BE1               	goto	u5545
  2961  03DF  300A               	movlw	10
  2962  03E0  023D               	subwf	sprintf@eexp^(0+128),w
  2963  03E1                     u5545:
  2964  03E1  1803               	skipnc
  2965  03E2  2BE4               	goto	u5541
  2966  03E3  2BE5               	goto	u5540
  2967  03E4                     u5541:
  2968  03E4  2C36               	goto	l3510
  2969  03E5                     u5540:
  2970  03E5                     l3504:
  2971  03E5  1683               	bsf	3,5	;RP0=1, select bank1
  2972  03E6  1303               	bcf	3,6	;RP1=0, select bank1
  2973  03E7  0849               	movf	(sprintf@fval+3)^(0+128),w
  2974  03E8  00F3               	movwf	___fleq@ff1+3
  2975  03E9  0848               	movf	(sprintf@fval+2)^(0+128),w
  2976  03EA  00F2               	movwf	___fleq@ff1+2
  2977  03EB  0847               	movf	(sprintf@fval+1)^(0+128),w
  2978  03EC  00F1               	movwf	___fleq@ff1+1
  2979  03ED  0846               	movf	sprintf@fval^(0+128),w
  2980  03EE  00F0               	movwf	___fleq@ff1
  2981  03EF  3000               	movlw	0
  2982  03F0  00F7               	movwf	___fleq@ff2+3
  2983  03F1  3000               	movlw	0
  2984  03F2  00F6               	movwf	___fleq@ff2+2
  2985  03F3  3000               	movlw	0
  2986  03F4  00F5               	movwf	___fleq@ff2+1
  2987  03F5  3000               	movlw	0
  2988  03F6  00F4               	movwf	___fleq@ff2
  2989  03F7  160A  158A  22BD  120A  118A  	fcall	___fleq
  2990  03FC  1803               	btfsc	3,0
  2991  03FD  2BFF               	goto	u5551
  2992  03FE  2C00               	goto	u5550
  2993  03FF                     u5551:
  2994  03FF  2CB6               	goto	l3524
  2995  0400                     u5550:
  2996  0400                     l3506:
  2997  0400  1683               	bsf	3,5	;RP0=1, select bank1
  2998  0401  1303               	bcf	3,6	;RP1=0, select bank1
  2999  0402  0849               	movf	(sprintf@fval+3)^(0+128),w
  3000  0403  1283               	bcf	3,5	;RP0=0, select bank0
  3001  0404  1303               	bcf	3,6	;RP1=0, select bank0
  3002  0405  00D6               	movwf	___fltol@f1+3
  3003  0406  1683               	bsf	3,5	;RP0=1, select bank1
  3004  0407  1303               	bcf	3,6	;RP1=0, select bank1
  3005  0408  0848               	movf	(sprintf@fval+2)^(0+128),w
  3006  0409  1283               	bcf	3,5	;RP0=0, select bank0
  3007  040A  1303               	bcf	3,6	;RP1=0, select bank0
  3008  040B  00D5               	movwf	___fltol@f1+2
  3009  040C  1683               	bsf	3,5	;RP0=1, select bank1
  3010  040D  1303               	bcf	3,6	;RP1=0, select bank1
  3011  040E  0847               	movf	(sprintf@fval+1)^(0+128),w
  3012  040F  1283               	bcf	3,5	;RP0=0, select bank0
  3013  0410  1303               	bcf	3,6	;RP1=0, select bank0
  3014  0411  00D4               	movwf	___fltol@f1+1
  3015  0412  1683               	bsf	3,5	;RP0=1, select bank1
  3016  0413  1303               	bcf	3,6	;RP1=0, select bank1
  3017  0414  0846               	movf	sprintf@fval^(0+128),w
  3018  0415  1283               	bcf	3,5	;RP0=0, select bank0
  3019  0416  1303               	bcf	3,6	;RP1=0, select bank0
  3020  0417  00D3               	movwf	___fltol@f1
  3021  0418  160A  158A  242E  120A  118A  	fcall	___fltol
  3022  041D  1283               	bcf	3,5	;RP0=0, select bank0
  3023  041E  1303               	bcf	3,6	;RP1=0, select bank0
  3024  041F  0856               	movf	?___fltol+3,w
  3025  0420  0455               	iorwf	?___fltol+2,w
  3026  0421  0454               	iorwf	?___fltol+1,w
  3027  0422  0453               	iorwf	?___fltol,w
  3028  0423  1D03               	skipz
  3029  0424  2C26               	goto	u5561
  3030  0425  2C27               	goto	u5560
  3031  0426                     u5561:
  3032  0426  2CB6               	goto	l3524
  3033  0427                     u5560:
  3034  0427                     l3508:
  3035  0427  1683               	bsf	3,5	;RP0=1, select bank1
  3036  0428  1303               	bcf	3,6	;RP1=0, select bank1
  3037  0429  083E               	movf	(sprintf@eexp+1)^(0+128),w
  3038  042A  3A80               	xorlw	128
  3039  042B  00FF               	movwf	btemp+1
  3040  042C  3080               	movlw	128
  3041  042D  027F               	subwf	btemp+1,w
  3042  042E  1D03               	skipz
  3043  042F  2C32               	goto	u5575
  3044  0430  3002               	movlw	2
  3045  0431  023D               	subwf	sprintf@eexp^(0+128),w
  3046  0432                     u5575:
  3047  0432  1C03               	skipc
  3048  0433  2C35               	goto	u5571
  3049  0434  2C36               	goto	u5570
  3050  0435                     u5571:
  3051  0435  2CB6               	goto	l3524
  3052  0436                     u5570:
  3053  0436                     l3510:
  3054                           
  3055                           ;C:\Program Files\Microchip\xc8\v2.35\pic\sources\c90\common\doprnt.c: 1146:      if(tmp
      +                          val.integ < 4.294967296){
  3056  0436  1683               	bsf	3,5	;RP0=1, select bank1
  3057  0437  1303               	bcf	3,6	;RP1=0, select bank1
  3058  0438  0842               	movf	(sprintf@tmpval+3)^(0+128),w
  3059  0439  1283               	bcf	3,5	;RP0=0, select bank0
  3060  043A  1303               	bcf	3,6	;RP1=0, select bank0
  3061  043B  00EB               	movwf	___flge@ff1+3
  3062  043C  1683               	bsf	3,5	;RP0=1, select bank1
  3063  043D  1303               	bcf	3,6	;RP1=0, select bank1
  3064  043E  0841               	movf	(sprintf@tmpval+2)^(0+128),w
  3065  043F  1283               	bcf	3,5	;RP0=0, select bank0
  3066  0440  1303               	bcf	3,6	;RP1=0, select bank0
  3067  0441  00EA               	movwf	___flge@ff1+2
  3068  0442  1683               	bsf	3,5	;RP0=1, select bank1
  3069  0443  1303               	bcf	3,6	;RP1=0, select bank1
  3070  0444  0840               	movf	(sprintf@tmpval+1)^(0+128),w
  3071  0445  1283               	bcf	3,5	;RP0=0, select bank0
  3072  0446  1303               	bcf	3,6	;RP1=0, select bank0
  3073  0447  00E9               	movwf	___flge@ff1+1
  3074  0448  1683               	bsf	3,5	;RP0=1, select bank1
  3075  0449  1303               	bcf	3,6	;RP1=0, select bank1
  3076  044A  083F               	movf	sprintf@tmpval^(0+128),w
  3077  044B  1283               	bcf	3,5	;RP0=0, select bank0
  3078  044C  1303               	bcf	3,6	;RP1=0, select bank0
  3079  044D  00E8               	movwf	___flge@ff1
  3080  044E  3040               	movlw	64
  3081  044F  00EF               	movwf	___flge@ff2+3
  3082  0450  3089               	movlw	137
  3083  0451  00EE               	movwf	___flge@ff2+2
  3084  0452  3070               	movlw	112
  3085  0453  00ED               	movwf	___flge@ff2+1
  3086  0454  305F               	movlw	95
  3087  0455  00EC               	movwf	___flge@ff2
  3088  0456  120A  118A  2050  120A  118A  	fcall	___flge
  3089  045B  1803               	btfsc	3,0
  3090  045C  2C5E               	goto	u5581
  3091  045D  2C5F               	goto	u5580
  3092  045E                     u5581:
  3093  045E  2C68               	goto	l3514
  3094  045F                     u5580:
  3095  045F                     l3512:
  3096                           
  3097                           ;C:\Program Files\Microchip\xc8\v2.35\pic\sources\c90\common\doprnt.c: 1147:       eexp 
      +                          -= (sizeof dpowers/sizeof dpowers[0])-1;
  3098  045F  30F7               	movlw	247
  3099  0460  1683               	bsf	3,5	;RP0=1, select bank1
  3100  0461  1303               	bcf	3,6	;RP1=0, select bank1
  3101  0462  07BD               	addwf	sprintf@eexp^(0+128),f
  3102  0463  1803               	skipnc
  3103  0464  0ABE               	incf	(sprintf@eexp+1)^(0+128),f
  3104  0465  30FF               	movlw	255
  3105  0466  07BE               	addwf	(sprintf@eexp+1)^(0+128),f
  3106                           
  3107                           ;C:\Program Files\Microchip\xc8\v2.35\pic\sources\c90\common\doprnt.c: 1148:      }else{
  3108  0467  2C70               	goto	l3516
  3109  0468                     l3514:
  3110                           
  3111                           ;C:\Program Files\Microchip\xc8\v2.35\pic\sources\c90\common\doprnt.c: 1149:       eexp 
      +                          -= (sizeof dpowers/sizeof dpowers[0])-2;
  3112  0468  30F8               	movlw	248
  3113  0469  1683               	bsf	3,5	;RP0=1, select bank1
  3114  046A  1303               	bcf	3,6	;RP1=0, select bank1
  3115  046B  07BD               	addwf	sprintf@eexp^(0+128),f
  3116  046C  1803               	skipnc
  3117  046D  0ABE               	incf	(sprintf@eexp+1)^(0+128),f
  3118  046E  30FF               	movlw	255
  3119  046F  07BE               	addwf	(sprintf@eexp+1)^(0+128),f
  3120  0470                     l3516:
  3121                           
  3122                           ;C:\Program Files\Microchip\xc8\v2.35\pic\sources\c90\common\doprnt.c: 1152:      val = 
      +                          ((sizeof(double)== 3) ? _tdiv_to_l_(fval,tmpval.integ) : _div_to_l_(fval,tmpval.integ));
  3123  0470  083D               	movf	sprintf@eexp^(0+128),w
  3124  0471  120A  158A  2140  120A  118A  	fcall	_scale
  3125  0476  1283               	bcf	3,5	;RP0=0, select bank0
  3126  0477  1303               	bcf	3,6	;RP1=0, select bank0
  3127  0478  0843               	movf	?_scale+3,w
  3128  0479  1683               	bsf	3,5	;RP0=1, select bank1
  3129  047A  1303               	bcf	3,6	;RP1=0, select bank1
  3130  047B  00C2               	movwf	(sprintf@tmpval+3)^(0+128)
  3131  047C  1283               	bcf	3,5	;RP0=0, select bank0
  3132  047D  1303               	bcf	3,6	;RP1=0, select bank0
  3133  047E  0842               	movf	?_scale+2,w
  3134  047F  1683               	bsf	3,5	;RP0=1, select bank1
  3135  0480  1303               	bcf	3,6	;RP1=0, select bank1
  3136  0481  00C1               	movwf	(sprintf@tmpval+2)^(0+128)
  3137  0482  1283               	bcf	3,5	;RP0=0, select bank0
  3138  0483  1303               	bcf	3,6	;RP1=0, select bank0
  3139  0484  0841               	movf	?_scale+1,w
  3140  0485  1683               	bsf	3,5	;RP0=1, select bank1
  3141  0486  1303               	bcf	3,6	;RP1=0, select bank1
  3142  0487  00C0               	movwf	(sprintf@tmpval+1)^(0+128)
  3143  0488  1283               	bcf	3,5	;RP0=0, select bank0
  3144  0489  1303               	bcf	3,6	;RP1=0, select bank0
  3145  048A  0840               	movf	?_scale,w
  3146  048B  1683               	bsf	3,5	;RP0=1, select bank1
  3147  048C  1303               	bcf	3,6	;RP1=0, select bank1
  3148  048D  00BF               	movwf	sprintf@tmpval^(0+128)
  3149  048E                     l3518:
  3150  048E  0849               	movf	(sprintf@fval+3)^(0+128),w
  3151  048F  00F3               	movwf	__div_to_l_@f1+3
  3152  0490  0848               	movf	(sprintf@fval+2)^(0+128),w
  3153  0491  00F2               	movwf	__div_to_l_@f1+2
  3154  0492  0847               	movf	(sprintf@fval+1)^(0+128),w
  3155  0493  00F1               	movwf	__div_to_l_@f1+1
  3156  0494  0846               	movf	sprintf@fval^(0+128),w
  3157  0495  00F0               	movwf	__div_to_l_@f1
  3158  0496  0842               	movf	(sprintf@tmpval+3)^(0+128),w
  3159  0497  00F7               	movwf	__div_to_l_@f2+3
  3160  0498  0841               	movf	(sprintf@tmpval+2)^(0+128),w
  3161  0499  00F6               	movwf	__div_to_l_@f2+2
  3162  049A  0840               	movf	(sprintf@tmpval+1)^(0+128),w
  3163  049B  00F5               	movwf	__div_to_l_@f2+1
  3164  049C  083F               	movf	sprintf@tmpval^(0+128),w
  3165  049D  00F4               	movwf	__div_to_l_@f2
  3166  049E  160A  118A  202D  120A  118A  	fcall	__div_to_l_
  3167  04A3  0873               	movf	?__div_to_l_+3,w
  3168  04A4  1683               	bsf	3,5	;RP0=1, select bank1
  3169  04A5  1303               	bcf	3,6	;RP1=0, select bank1
  3170  04A6  00BC               	movwf	(sprintf@val+3)^(0+128)
  3171  04A7  0872               	movf	?__div_to_l_+2,w
  3172  04A8  00BB               	movwf	(sprintf@val+2)^(0+128)
  3173  04A9  0871               	movf	?__div_to_l_+1,w
  3174  04AA  00BA               	movwf	(sprintf@val+1)^(0+128)
  3175  04AB  0870               	movf	?__div_to_l_,w
  3176  04AC  00B9               	movwf	sprintf@val^(0+128)
  3177  04AD                     l3522:
  3178                           
  3179                           ;C:\Program Files\Microchip\xc8\v2.35\pic\sources\c90\common\doprnt.c: 1155:      fval =
      +                           0.0;
  3180  04AD  3000               	movlw	0
  3181  04AE  00C9               	movwf	(sprintf@fval+3)^(0+128)
  3182  04AF  3000               	movlw	0
  3183  04B0  00C8               	movwf	(sprintf@fval+2)^(0+128)
  3184  04B1  3000               	movlw	0
  3185  04B2  00C7               	movwf	(sprintf@fval+1)^(0+128)
  3186  04B3  3000               	movlw	0
  3187  04B4  00C6               	movwf	sprintf@fval^(0+128)
  3188                           
  3189                           ;C:\Program Files\Microchip\xc8\v2.35\pic\sources\c90\common\doprnt.c: 1156:     } else 
      +                          {
  3190  04B5  2D3A               	goto	l3530
  3191  04B6                     l3524:
  3192                           
  3193                           ;C:\Program Files\Microchip\xc8\v2.35\pic\sources\c90\common\doprnt.c: 1157:      val = 
      +                          (unsigned long)fval;
  3194  04B6  1683               	bsf	3,5	;RP0=1, select bank1
  3195  04B7  1303               	bcf	3,6	;RP1=0, select bank1
  3196  04B8  0849               	movf	(sprintf@fval+3)^(0+128),w
  3197  04B9  1283               	bcf	3,5	;RP0=0, select bank0
  3198  04BA  1303               	bcf	3,6	;RP1=0, select bank0
  3199  04BB  00D6               	movwf	___fltol@f1+3
  3200  04BC  1683               	bsf	3,5	;RP0=1, select bank1
  3201  04BD  1303               	bcf	3,6	;RP1=0, select bank1
  3202  04BE  0848               	movf	(sprintf@fval+2)^(0+128),w
  3203  04BF  1283               	bcf	3,5	;RP0=0, select bank0
  3204  04C0  1303               	bcf	3,6	;RP1=0, select bank0
  3205  04C1  00D5               	movwf	___fltol@f1+2
  3206  04C2  1683               	bsf	3,5	;RP0=1, select bank1
  3207  04C3  1303               	bcf	3,6	;RP1=0, select bank1
  3208  04C4  0847               	movf	(sprintf@fval+1)^(0+128),w
  3209  04C5  1283               	bcf	3,5	;RP0=0, select bank0
  3210  04C6  1303               	bcf	3,6	;RP1=0, select bank0
  3211  04C7  00D4               	movwf	___fltol@f1+1
  3212  04C8  1683               	bsf	3,5	;RP0=1, select bank1
  3213  04C9  1303               	bcf	3,6	;RP1=0, select bank1
  3214  04CA  0846               	movf	sprintf@fval^(0+128),w
  3215  04CB  1283               	bcf	3,5	;RP0=0, select bank0
  3216  04CC  1303               	bcf	3,6	;RP1=0, select bank0
  3217  04CD  00D3               	movwf	___fltol@f1
  3218  04CE  160A  158A  242E  120A  118A  	fcall	___fltol
  3219  04D3  1283               	bcf	3,5	;RP0=0, select bank0
  3220  04D4  1303               	bcf	3,6	;RP1=0, select bank0
  3221  04D5  0856               	movf	?___fltol+3,w
  3222  04D6  1683               	bsf	3,5	;RP0=1, select bank1
  3223  04D7  1303               	bcf	3,6	;RP1=0, select bank1
  3224  04D8  00BC               	movwf	(sprintf@val+3)^(0+128)
  3225  04D9  1283               	bcf	3,5	;RP0=0, select bank0
  3226  04DA  1303               	bcf	3,6	;RP1=0, select bank0
  3227  04DB  0855               	movf	?___fltol+2,w
  3228  04DC  1683               	bsf	3,5	;RP0=1, select bank1
  3229  04DD  1303               	bcf	3,6	;RP1=0, select bank1
  3230  04DE  00BB               	movwf	(sprintf@val+2)^(0+128)
  3231  04DF  1283               	bcf	3,5	;RP0=0, select bank0
  3232  04E0  1303               	bcf	3,6	;RP1=0, select bank0
  3233  04E1  0854               	movf	?___fltol+1,w
  3234  04E2  1683               	bsf	3,5	;RP0=1, select bank1
  3235  04E3  1303               	bcf	3,6	;RP1=0, select bank1
  3236  04E4  00BA               	movwf	(sprintf@val+1)^(0+128)
  3237  04E5  1283               	bcf	3,5	;RP0=0, select bank0
  3238  04E6  1303               	bcf	3,6	;RP1=0, select bank0
  3239  04E7  0853               	movf	?___fltol,w
  3240  04E8  1683               	bsf	3,5	;RP0=1, select bank1
  3241  04E9  1303               	bcf	3,6	;RP1=0, select bank1
  3242  04EA  00B9               	movwf	sprintf@val^(0+128)
  3243  04EB                     l3526:
  3244                           
  3245                           ;C:\Program Files\Microchip\xc8\v2.35\pic\sources\c90\common\doprnt.c: 1158:      fval -
      +                          = (double)val;
  3246  04EB  083C               	movf	(sprintf@val+3)^(0+128),w
  3247  04EC  00F7               	movwf	___xxtofl@val+3
  3248  04ED  083B               	movf	(sprintf@val+2)^(0+128),w
  3249  04EE  00F6               	movwf	___xxtofl@val+2
  3250  04EF  083A               	movf	(sprintf@val+1)^(0+128),w
  3251  04F0  00F5               	movwf	___xxtofl@val+1
  3252  04F1  0839               	movf	sprintf@val^(0+128),w
  3253  04F2  00F4               	movwf	___xxtofl@val
  3254  04F3  3000               	movlw	0
  3255  04F4  160A  158A  24AA  120A  118A  	fcall	___xxtofl
  3256  04F9  0877               	movf	?___xxtofl+3,w
  3257  04FA  1283               	bcf	3,5	;RP0=0, select bank0
  3258  04FB  1303               	bcf	3,6	;RP1=0, select bank0
  3259  04FC  00EB               	movwf	___flsub@a+3
  3260  04FD  0876               	movf	?___xxtofl+2,w
  3261  04FE  00EA               	movwf	___flsub@a+2
  3262  04FF  0875               	movf	?___xxtofl+1,w
  3263  0500  00E9               	movwf	___flsub@a+1
  3264  0501  0874               	movf	?___xxtofl,w
  3265  0502  00E8               	movwf	___flsub@a
  3266  0503  1683               	bsf	3,5	;RP0=1, select bank1
  3267  0504  1303               	bcf	3,6	;RP1=0, select bank1
  3268  0505  0849               	movf	(sprintf@fval+3)^(0+128),w
  3269  0506  1283               	bcf	3,5	;RP0=0, select bank0
  3270  0507  1303               	bcf	3,6	;RP1=0, select bank0
  3271  0508  00EF               	movwf	___flsub@b+3
  3272  0509  1683               	bsf	3,5	;RP0=1, select bank1
  3273  050A  1303               	bcf	3,6	;RP1=0, select bank1
  3274  050B  0848               	movf	(sprintf@fval+2)^(0+128),w
  3275  050C  1283               	bcf	3,5	;RP0=0, select bank0
  3276  050D  1303               	bcf	3,6	;RP1=0, select bank0
  3277  050E  00EE               	movwf	___flsub@b+2
  3278  050F  1683               	bsf	3,5	;RP0=1, select bank1
  3279  0510  1303               	bcf	3,6	;RP1=0, select bank1
  3280  0511  0847               	movf	(sprintf@fval+1)^(0+128),w
  3281  0512  1283               	bcf	3,5	;RP0=0, select bank0
  3282  0513  1303               	bcf	3,6	;RP1=0, select bank0
  3283  0514  00ED               	movwf	___flsub@b+1
  3284  0515  1683               	bsf	3,5	;RP0=1, select bank1
  3285  0516  1303               	bcf	3,6	;RP1=0, select bank1
  3286  0517  0846               	movf	sprintf@fval^(0+128),w
  3287  0518  1283               	bcf	3,5	;RP0=0, select bank0
  3288  0519  1303               	bcf	3,6	;RP1=0, select bank0
  3289  051A  00EC               	movwf	___flsub@b
  3290  051B  160A  158A  20C3  120A  118A  	fcall	___flsub
  3291  0520  1283               	bcf	3,5	;RP0=0, select bank0
  3292  0521  1303               	bcf	3,6	;RP1=0, select bank0
  3293  0522  086B               	movf	?___flsub+3,w
  3294  0523  1683               	bsf	3,5	;RP0=1, select bank1
  3295  0524  1303               	bcf	3,6	;RP1=0, select bank1
  3296  0525  00C9               	movwf	(sprintf@fval+3)^(0+128)
  3297  0526  1283               	bcf	3,5	;RP0=0, select bank0
  3298  0527  1303               	bcf	3,6	;RP1=0, select bank0
  3299  0528  086A               	movf	?___flsub+2,w
  3300  0529  1683               	bsf	3,5	;RP0=1, select bank1
  3301  052A  1303               	bcf	3,6	;RP1=0, select bank1
  3302  052B  00C8               	movwf	(sprintf@fval+2)^(0+128)
  3303  052C  1283               	bcf	3,5	;RP0=0, select bank0
  3304  052D  1303               	bcf	3,6	;RP1=0, select bank0
  3305  052E  0869               	movf	?___flsub+1,w
  3306  052F  1683               	bsf	3,5	;RP0=1, select bank1
  3307  0530  1303               	bcf	3,6	;RP1=0, select bank1
  3308  0531  00C7               	movwf	(sprintf@fval+1)^(0+128)
  3309  0532  1283               	bcf	3,5	;RP0=0, select bank0
  3310  0533  1303               	bcf	3,6	;RP1=0, select bank0
  3311  0534  0868               	movf	?___flsub,w
  3312  0535  1683               	bsf	3,5	;RP0=1, select bank1
  3313  0536  1303               	bcf	3,6	;RP1=0, select bank1
  3314  0537  00C6               	movwf	sprintf@fval^(0+128)
  3315  0538                     l3528:
  3316                           
  3317                           ;C:\Program Files\Microchip\xc8\v2.35\pic\sources\c90\common\doprnt.c: 1159:      eexp =
      +                           0;
  3318  0538  01BD               	clrf	sprintf@eexp^(0+128)
  3319  0539  01BE               	clrf	(sprintf@eexp+1)^(0+128)
  3320  053A                     l3530:
  3321                           
  3322                           ;C:\Program Files\Microchip\xc8\v2.35\pic\sources\c90\common\doprnt.c: 1162:     for(c =
      +                           1 ; c != (sizeof dpowers/sizeof dpowers[0]) ; c++)
  3323  053A  01CA               	clrf	sprintf@c^(0+128)
  3324  053B  0ACA               	incf	sprintf@c^(0+128),f
  3325  053C                     l3536:
  3326                           
  3327                           ;C:\Program Files\Microchip\xc8\v2.35\pic\sources\c90\common\doprnt.c: 1163:      if(val
      +                           < dpowers[c])
  3328  053C  084A               	movf	sprintf@c^(0+128),w
  3329  053D  00AD               	movwf	??_sprintf^(0+128)
  3330  053E  3001               	movlw	1
  3331  053F                     u5595:
  3332  053F  1003               	clrc
  3333  0540  0DAD               	rlf	??_sprintf^(0+128),f
  3334  0541  3EFF               	addlw	-1
  3335  0542  1D03               	skipz
  3336  0543  2D3F               	goto	u5595
  3337  0544  1003               	clrc
  3338  0545  0D2D               	rlf	??_sprintf^(0+128),w
  3339  0546  3E69               	addlw	low ((_dpowers-__stringbase)| (0+32768))
  3340  0547  0084               	movwf	4
  3341  0548  120A  158A  200A  120A  118A  	fcall	stringdir
  3342  054D  00AE               	movwf	(??_sprintf+1)^(0+128)
  3343  054E  120A  158A  200A  120A  118A  	fcall	stringdir
  3344  0553  00AF               	movwf	((??_sprintf+1)^(0+128)+1)
  3345  0554  120A  158A  200A  120A  118A  	fcall	stringdir
  3346  0559  00B0               	movwf	((??_sprintf+1)^(0+128)+2)
  3347  055A  120A  158A  200A  120A  118A  	fcall	stringdir
  3348  055F  00B1               	movwf	((??_sprintf+1)^(0+128)+3)
  3349  0560  0831               	movf	(??_sprintf+4)^(0+128),w
  3350  0561  023C               	subwf	(sprintf@val+3)^(0+128),w
  3351  0562  1D03               	skipz
  3352  0563  2D6E               	goto	u5605
  3353  0564  0830               	movf	(??_sprintf+3)^(0+128),w
  3354  0565  023B               	subwf	(sprintf@val+2)^(0+128),w
  3355  0566  1D03               	skipz
  3356  0567  2D6E               	goto	u5605
  3357  0568  082F               	movf	(??_sprintf+2)^(0+128),w
  3358  0569  023A               	subwf	(sprintf@val+1)^(0+128),w
  3359  056A  1D03               	skipz
  3360  056B  2D6E               	goto	u5605
  3361  056C  082E               	movf	(??_sprintf+1)^(0+128),w
  3362  056D  0239               	subwf	sprintf@val^(0+128),w
  3363  056E                     u5605:
  3364  056E  1803               	skipnc
  3365  056F  2D71               	goto	u5601
  3366  0570  2D72               	goto	u5600
  3367  0571                     u5601:
  3368  0571  2D73               	goto	l3540
  3369  0572                     u5600:
  3370  0572  2D7D               	goto	l3542
  3371  0573                     l3540:
  3372  0573  3001               	movlw	1
  3373  0574  00AD               	movwf	??_sprintf^(0+128)
  3374  0575  082D               	movf	??_sprintf^(0+128),w
  3375  0576  07CA               	addwf	sprintf@c^(0+128),f
  3376  0577  300A               	movlw	10
  3377  0578  064A               	xorwf	sprintf@c^(0+128),w
  3378  0579  1D03               	btfss	3,2
  3379  057A  2D7C               	goto	u5611
  3380  057B  2D7D               	goto	u5610
  3381  057C                     u5611:
  3382  057C  2D3C               	goto	l3536
  3383  057D                     u5610:
  3384  057D                     l3542:
  3385                           
  3386                           ;C:\Program Files\Microchip\xc8\v2.35\pic\sources\c90\common\doprnt.c: 1201:     {;C:\Pr
      +                          ogram Files\Microchip\xc8\v2.35\pic\sources\c90\common\doprnt.c: 1214:     if(flag & 0x0
      +                          3)
  3387  057D  3003               	movlw	3
  3388  057E  0537               	andwf	sprintf@flag^(0+128),w
  3389  057F  00AD               	movwf	??_sprintf^(0+128)
  3390  0580  3000               	movlw	0
  3391  0581  0538               	andwf	(sprintf@flag+1)^(0+128),w
  3392  0582  00AE               	movwf	(??_sprintf+1)^(0+128)
  3393  0583  082D               	movf	??_sprintf^(0+128),w
  3394  0584  042E               	iorwf	(??_sprintf^(0+128)+1),w
  3395  0585  1903               	btfsc	3,2
  3396  0586  2D88               	goto	u5621
  3397  0587  2D89               	goto	u5620
  3398  0588                     u5621:
  3399  0588  2DFB               	goto	l338
  3400  0589                     u5620:
  3401  0589                     l3544:
  3402                           
  3403                           ;C:\Program Files\Microchip\xc8\v2.35\pic\sources\c90\common\doprnt.c: 1216:      ((*sp+
      +                          + = ('-')));
  3404  0589  302D               	movlw	45
  3405  058A  00AD               	movwf	??_sprintf^(0+128)
  3406  058B  0843               	movf	sprintf@sp^(0+128),w
  3407  058C  0084               	movwf	4
  3408  058D  082D               	movf	??_sprintf^(0+128),w
  3409  058E  1783               	bsf	3,7	;select IRP bank2
  3410  058F  0080               	movwf	0
  3411  0590                     l3546:
  3412  0590  3001               	movlw	1
  3413  0591  00AD               	movwf	??_sprintf^(0+128)
  3414  0592  082D               	movf	??_sprintf^(0+128),w
  3415  0593  07C3               	addwf	sprintf@sp^(0+128),f
  3416  0594  2DFB               	goto	l338
  3417  0595                     l3548:
  3418                           
  3419                           ;C:\Program Files\Microchip\xc8\v2.35\pic\sources\c90\common\doprnt.c: 1226:     {;C:\Pr
      +                          ogram Files\Microchip\xc8\v2.35\pic\sources\c90\common\doprnt.c: 1227:      tmpval.vd = 
      +                          val/dpowers[c];
  3420  0595  084A               	movf	sprintf@c^(0+128),w
  3421  0596  00AD               	movwf	??_sprintf^(0+128)
  3422  0597  3001               	movlw	1
  3423  0598                     u5635:
  3424  0598  1003               	clrc
  3425  0599  0DAD               	rlf	??_sprintf^(0+128),f
  3426  059A  3EFF               	addlw	-1
  3427  059B  1D03               	skipz
  3428  059C  2D98               	goto	u5635
  3429  059D  1003               	clrc
  3430  059E  0D2D               	rlf	??_sprintf^(0+128),w
  3431  059F  3E69               	addlw	low ((_dpowers-__stringbase)| (0+32768))
  3432  05A0  0084               	movwf	4
  3433  05A1  120A  158A  200A  120A  118A  	fcall	stringdir
  3434  05A6  00F0               	movwf	___lldiv@divisor
  3435  05A7  120A  158A  200A  120A  118A  	fcall	stringdir
  3436  05AC  00F1               	movwf	___lldiv@divisor+1
  3437  05AD  120A  158A  200A  120A  118A  	fcall	stringdir
  3438  05B2  00F2               	movwf	___lldiv@divisor+2
  3439  05B3  120A  158A  200A  120A  118A  	fcall	stringdir
  3440  05B8  00F3               	movwf	___lldiv@divisor+3
  3441  05B9  083C               	movf	(sprintf@val+3)^(0+128),w
  3442  05BA  00F7               	movwf	___lldiv@dividend+3
  3443  05BB  083B               	movf	(sprintf@val+2)^(0+128),w
  3444  05BC  00F6               	movwf	___lldiv@dividend+2
  3445  05BD  083A               	movf	(sprintf@val+1)^(0+128),w
  3446  05BE  00F5               	movwf	___lldiv@dividend+1
  3447  05BF  0839               	movf	sprintf@val^(0+128),w
  3448  05C0  00F4               	movwf	___lldiv@dividend
  3449  05C1  160A  158A  235F  120A  118A  	fcall	___lldiv
  3450  05C6  0873               	movf	?___lldiv+3,w
  3451  05C7  1683               	bsf	3,5	;RP0=1, select bank1
  3452  05C8  1303               	bcf	3,6	;RP1=0, select bank1
  3453  05C9  00C2               	movwf	(sprintf@tmpval+3)^(0+128)
  3454  05CA  0872               	movf	?___lldiv+2,w
  3455  05CB  00C1               	movwf	(sprintf@tmpval+2)^(0+128)
  3456  05CC  0871               	movf	?___lldiv+1,w
  3457  05CD  00C0               	movwf	(sprintf@tmpval+1)^(0+128)
  3458  05CE  0870               	movf	?___lldiv,w
  3459  05CF  00BF               	movwf	sprintf@tmpval^(0+128)
  3460  05D0                     l3550:
  3461                           
  3462                           ;C:\Program Files\Microchip\xc8\v2.35\pic\sources\c90\common\doprnt.c: 1228:      tmpval
      +                          .vd %= 10;
  3463  05D0  3000               	movlw	0
  3464  05D1  00F3               	movwf	___llmod@divisor+3
  3465  05D2  3000               	movlw	0
  3466  05D3  00F2               	movwf	___llmod@divisor+2
  3467  05D4  3000               	movlw	0
  3468  05D5  00F1               	movwf	___llmod@divisor+1
  3469  05D6  300A               	movlw	10
  3470  05D7  00F0               	movwf	___llmod@divisor
  3471  05D8  0842               	movf	(sprintf@tmpval+3)^(0+128),w
  3472  05D9  00F7               	movwf	___llmod@dividend+3
  3473  05DA  0841               	movf	(sprintf@tmpval+2)^(0+128),w
  3474  05DB  00F6               	movwf	___llmod@dividend+2
  3475  05DC  0840               	movf	(sprintf@tmpval+1)^(0+128),w
  3476  05DD  00F5               	movwf	___llmod@dividend+1
  3477  05DE  083F               	movf	sprintf@tmpval^(0+128),w
  3478  05DF  00F4               	movwf	___llmod@dividend
  3479  05E0  160A  158A  230B  120A  118A  	fcall	___llmod
  3480  05E5  0873               	movf	?___llmod+3,w
  3481  05E6  1683               	bsf	3,5	;RP0=1, select bank1
  3482  05E7  1303               	bcf	3,6	;RP1=0, select bank1
  3483  05E8  00C2               	movwf	(sprintf@tmpval+3)^(0+128)
  3484  05E9  0872               	movf	?___llmod+2,w
  3485  05EA  00C1               	movwf	(sprintf@tmpval+2)^(0+128)
  3486  05EB  0871               	movf	?___llmod+1,w
  3487  05EC  00C0               	movwf	(sprintf@tmpval+1)^(0+128)
  3488  05ED  0870               	movf	?___llmod,w
  3489  05EE  00BF               	movwf	sprintf@tmpval^(0+128)
  3490  05EF                     l3552:
  3491                           
  3492                           ;C:\Program Files\Microchip\xc8\v2.35\pic\sources\c90\common\doprnt.c: 1229:      ((*sp+
      +                          + = ('0' + tmpval.vd)));
  3493  05EF  083F               	movf	sprintf@tmpval^(0+128),w
  3494  05F0  3E30               	addlw	48
  3495  05F1  00AD               	movwf	??_sprintf^(0+128)
  3496  05F2  0843               	movf	sprintf@sp^(0+128),w
  3497  05F3  0084               	movwf	4
  3498  05F4  082D               	movf	??_sprintf^(0+128),w
  3499  05F5  1783               	bsf	3,7	;select IRP bank2
  3500  05F6  0080               	movwf	0
  3501  05F7  3001               	movlw	1
  3502  05F8  00AD               	movwf	??_sprintf^(0+128)
  3503  05F9  082D               	movf	??_sprintf^(0+128),w
  3504  05FA  07C3               	addwf	sprintf@sp^(0+128),f
  3505  05FB                     l338:	
  3506                           ;C:\Program Files\Microchip\xc8\v2.35\pic\sources\c90\common\doprnt.c: 1230:     };C:\Pr
      +                          ogram Files\Microchip\xc8\v2.35\pic\sources\c90\common\doprnt.c: 1232:    }
  3507                           
  3508                           
  3509                           ;C:\Program Files\Microchip\xc8\v2.35\pic\sources\c90\common\doprnt.c: 1222:    while(c-
      +                          -) {
  3510  05FB  3001               	movlw	1
  3511  05FC  02CA               	subwf	sprintf@c^(0+128),f
  3512  05FD  0A4A               	incf	sprintf@c^(0+128),w
  3513  05FE  1D03               	btfss	3,2
  3514  05FF  2E01               	goto	u5641
  3515  0600  2E02               	goto	u5640
  3516  0601                     u5641:
  3517  0601  2D95               	goto	l3548
  3518  0602                     u5640:
  3519  0602  2E16               	goto	l3560
  3520  0603                     l3554:
  3521                           
  3522                           ;C:\Program Files\Microchip\xc8\v2.35\pic\sources\c90\common\doprnt.c: 1234:     ((*sp++
      +                           = ('0')));
  3523  0603  3030               	movlw	48
  3524  0604  1683               	bsf	3,5	;RP0=1, select bank1
  3525  0605  1303               	bcf	3,6	;RP1=0, select bank1
  3526  0606  00AD               	movwf	??_sprintf^(0+128)
  3527  0607  0843               	movf	sprintf@sp^(0+128),w
  3528  0608  0084               	movwf	4
  3529  0609  082D               	movf	??_sprintf^(0+128),w
  3530  060A  1783               	bsf	3,7	;select IRP bank2
  3531  060B  0080               	movwf	0
  3532  060C                     l3556:
  3533  060C  3001               	movlw	1
  3534  060D  00AD               	movwf	??_sprintf^(0+128)
  3535  060E  082D               	movf	??_sprintf^(0+128),w
  3536  060F  07C3               	addwf	sprintf@sp^(0+128),f
  3537  0610                     l3558:
  3538                           
  3539                           ;C:\Program Files\Microchip\xc8\v2.35\pic\sources\c90\common\doprnt.c: 1235:     eexp--;
  3540  0610  30FF               	movlw	255
  3541  0611  07BD               	addwf	sprintf@eexp^(0+128),f
  3542  0612  1803               	skipnc
  3543  0613  0ABE               	incf	(sprintf@eexp+1)^(0+128),f
  3544  0614  30FF               	movlw	255
  3545  0615  07BE               	addwf	(sprintf@eexp+1)^(0+128),f
  3546  0616                     l3560:
  3547                           
  3548                           ;C:\Program Files\Microchip\xc8\v2.35\pic\sources\c90\common\doprnt.c: 1233:    while(ee
      +                          xp > 0) {
  3549  0616  083E               	movf	(sprintf@eexp+1)^(0+128),w
  3550  0617  3A80               	xorlw	128
  3551  0618  00FF               	movwf	btemp+1
  3552  0619  3080               	movlw	128
  3553  061A  027F               	subwf	btemp+1,w
  3554  061B  1D03               	skipz
  3555  061C  2E1F               	goto	u5655
  3556  061D  3001               	movlw	1
  3557  061E  023D               	subwf	sprintf@eexp^(0+128),w
  3558  061F                     u5655:
  3559  061F  1803               	skipnc
  3560  0620  2E22               	goto	u5651
  3561  0621  2E23               	goto	u5650
  3562  0622                     u5651:
  3563  0622  2E03               	goto	l3554
  3564  0623                     u5650:
  3565  0623                     l3562:
  3566                           
  3567                           ;C:\Program Files\Microchip\xc8\v2.35\pic\sources\c90\common\doprnt.c: 1237:    if(prec 
      +                          > (int)((sizeof dpowers/sizeof dpowers[0])-2))
  3568  0623  1683               	bsf	3,5	;RP0=1, select bank1
  3569  0624  1303               	bcf	3,6	;RP1=0, select bank1
  3570  0625  0845               	movf	(sprintf@prec+1)^(0+128),w
  3571  0626  3A80               	xorlw	128
  3572  0627  00FF               	movwf	btemp+1
  3573  0628  3080               	movlw	128
  3574  0629  027F               	subwf	btemp+1,w
  3575  062A  1D03               	skipz
  3576  062B  2E2E               	goto	u5665
  3577  062C  3009               	movlw	9
  3578  062D  0244               	subwf	sprintf@prec^(0+128),w
  3579  062E                     u5665:
  3580  062E  1C03               	skipc
  3581  062F  2E31               	goto	u5661
  3582  0630  2E32               	goto	u5660
  3583  0631                     u5661:
  3584  0631  2E39               	goto	l3566
  3585  0632                     u5660:
  3586  0632                     l3564:
  3587                           
  3588                           ;C:\Program Files\Microchip\xc8\v2.35\pic\sources\c90\common\doprnt.c: 1238:     c = (si
      +                          zeof dpowers/sizeof dpowers[0])-2;
  3589  0632  3008               	movlw	8
  3590  0633  1683               	bsf	3,5	;RP0=1, select bank1
  3591  0634  1303               	bcf	3,6	;RP1=0, select bank1
  3592  0635  00AD               	movwf	??_sprintf^(0+128)
  3593  0636  082D               	movf	??_sprintf^(0+128),w
  3594  0637  00CA               	movwf	sprintf@c^(0+128)
  3595  0638  2E3F               	goto	l345
  3596  0639                     l3566:
  3597                           
  3598                           ;C:\Program Files\Microchip\xc8\v2.35\pic\sources\c90\common\doprnt.c: 1240:     c = (ch
      +                          ar)prec;
  3599  0639  1683               	bsf	3,5	;RP0=1, select bank1
  3600  063A  1303               	bcf	3,6	;RP1=0, select bank1
  3601  063B  0844               	movf	sprintf@prec^(0+128),w
  3602  063C  00AD               	movwf	??_sprintf^(0+128)
  3603  063D  082D               	movf	??_sprintf^(0+128),w
  3604  063E  00CA               	movwf	sprintf@c^(0+128)
  3605  063F                     l345:
  3606                           
  3607                           ;C:\Program Files\Microchip\xc8\v2.35\pic\sources\c90\common\doprnt.c: 1241:    prec -= 
      +                          (int)c;
  3608  063F  084A               	movf	sprintf@c^(0+128),w
  3609  0640  00AD               	movwf	??_sprintf^(0+128)
  3610  0641  01AE               	clrf	(??_sprintf^(0+128)+1)
  3611  0642  082D               	movf	??_sprintf^(0+128),w
  3612  0643  02C4               	subwf	sprintf@prec^(0+128),f
  3613  0644  082E               	movf	(??_sprintf+1)^(0+128),w
  3614  0645  1C03               	skipc
  3615  0646  03C5               	decf	(sprintf@prec+1)^(0+128),f
  3616  0647  02C5               	subwf	(sprintf@prec+1)^(0+128),f
  3617  0648                     l3568:
  3618                           
  3619                           ;C:\Program Files\Microchip\xc8\v2.35\pic\sources\c90\common\doprnt.c: 1245:    if(c)
  3620  0648  084A               	movf	sprintf@c^(0+128),w
  3621  0649  1903               	btfsc	3,2
  3622  064A  2E4C               	goto	u5671
  3623  064B  2E4D               	goto	u5670
  3624  064C                     u5671:
  3625  064C  2E58               	goto	l3574
  3626  064D                     u5670:
  3627  064D                     l3570:
  3628                           
  3629                           ;C:\Program Files\Microchip\xc8\v2.35\pic\sources\c90\common\doprnt.c: 1247:     ((*sp++
      +                           = ('.')));
  3630  064D  302E               	movlw	46
  3631  064E  00AD               	movwf	??_sprintf^(0+128)
  3632  064F  0843               	movf	sprintf@sp^(0+128),w
  3633  0650  0084               	movwf	4
  3634  0651  082D               	movf	??_sprintf^(0+128),w
  3635  0652  1783               	bsf	3,7	;select IRP bank2
  3636  0653  0080               	movwf	0
  3637  0654                     l3572:
  3638  0654  3001               	movlw	1
  3639  0655  00AD               	movwf	??_sprintf^(0+128)
  3640  0656  082D               	movf	??_sprintf^(0+128),w
  3641  0657  07C3               	addwf	sprintf@sp^(0+128),f
  3642  0658                     l3574:
  3643                           
  3644                           ;C:\Program Files\Microchip\xc8\v2.35\pic\sources\c90\common\doprnt.c: 1253:    val = (u
      +                          nsigned long)(fval * scale((signed char)c));
  3645  0658  084A               	movf	sprintf@c^(0+128),w
  3646  0659  120A  158A  2140  120A  118A  	fcall	_scale
  3647  065E  1283               	bcf	3,5	;RP0=0, select bank0
  3648  065F  1303               	bcf	3,6	;RP1=0, select bank0
  3649  0660  0843               	movf	?_scale+3,w
  3650  0661  1683               	bsf	3,5	;RP0=1, select bank1
  3651  0662  1303               	bcf	3,6	;RP1=0, select bank1
  3652  0663  00B5               	movwf	(_sprintf$874+3)^(0+128)
  3653  0664  1283               	bcf	3,5	;RP0=0, select bank0
  3654  0665  1303               	bcf	3,6	;RP1=0, select bank0
  3655  0666  0842               	movf	?_scale+2,w
  3656  0667  1683               	bsf	3,5	;RP0=1, select bank1
  3657  0668  1303               	bcf	3,6	;RP1=0, select bank1
  3658  0669  00B4               	movwf	(_sprintf$874+2)^(0+128)
  3659  066A  1283               	bcf	3,5	;RP0=0, select bank0
  3660  066B  1303               	bcf	3,6	;RP1=0, select bank0
  3661  066C  0841               	movf	?_scale+1,w
  3662  066D  1683               	bsf	3,5	;RP0=1, select bank1
  3663  066E  1303               	bcf	3,6	;RP1=0, select bank1
  3664  066F  00B3               	movwf	(_sprintf$874+1)^(0+128)
  3665  0670  1283               	bcf	3,5	;RP0=0, select bank0
  3666  0671  1303               	bcf	3,6	;RP1=0, select bank0
  3667  0672  0840               	movf	?_scale,w
  3668  0673  1683               	bsf	3,5	;RP0=1, select bank1
  3669  0674  1303               	bcf	3,6	;RP1=0, select bank1
  3670  0675  00B2               	movwf	_sprintf$874^(0+128)
  3671  0676                     l3576:
  3672                           
  3673                           ;C:\Program Files\Microchip\xc8\v2.35\pic\sources\c90\common\doprnt.c: 1253:    val = (u
      +                          nsigned long)(fval * scale((signed char)c));
  3674  0676  0835               	movf	(_sprintf$874+3)^(0+128),w
  3675  0677  1283               	bcf	3,5	;RP0=0, select bank0
  3676  0678  1303               	bcf	3,6	;RP1=0, select bank0
  3677  0679  00AD               	movwf	___flmul@a+3
  3678  067A  1683               	bsf	3,5	;RP0=1, select bank1
  3679  067B  1303               	bcf	3,6	;RP1=0, select bank1
  3680  067C  0834               	movf	(_sprintf$874+2)^(0+128),w
  3681  067D  1283               	bcf	3,5	;RP0=0, select bank0
  3682  067E  1303               	bcf	3,6	;RP1=0, select bank0
  3683  067F  00AC               	movwf	___flmul@a+2
  3684  0680  1683               	bsf	3,5	;RP0=1, select bank1
  3685  0681  1303               	bcf	3,6	;RP1=0, select bank1
  3686  0682  0833               	movf	(_sprintf$874+1)^(0+128),w
  3687  0683  1283               	bcf	3,5	;RP0=0, select bank0
  3688  0684  1303               	bcf	3,6	;RP1=0, select bank0
  3689  0685  00AB               	movwf	___flmul@a+1
  3690  0686  1683               	bsf	3,5	;RP0=1, select bank1
  3691  0687  1303               	bcf	3,6	;RP1=0, select bank1
  3692  0688  0832               	movf	_sprintf$874^(0+128),w
  3693  0689  1283               	bcf	3,5	;RP0=0, select bank0
  3694  068A  1303               	bcf	3,6	;RP1=0, select bank0
  3695  068B  00AA               	movwf	___flmul@a
  3696  068C  1683               	bsf	3,5	;RP0=1, select bank1
  3697  068D  1303               	bcf	3,6	;RP1=0, select bank1
  3698  068E  0849               	movf	(sprintf@fval+3)^(0+128),w
  3699  068F  1283               	bcf	3,5	;RP0=0, select bank0
  3700  0690  1303               	bcf	3,6	;RP1=0, select bank0
  3701  0691  00A9               	movwf	___flmul@b+3
  3702  0692  1683               	bsf	3,5	;RP0=1, select bank1
  3703  0693  1303               	bcf	3,6	;RP1=0, select bank1
  3704  0694  0848               	movf	(sprintf@fval+2)^(0+128),w
  3705  0695  1283               	bcf	3,5	;RP0=0, select bank0
  3706  0696  1303               	bcf	3,6	;RP1=0, select bank0
  3707  0697  00A8               	movwf	___flmul@b+2
  3708  0698  1683               	bsf	3,5	;RP0=1, select bank1
  3709  0699  1303               	bcf	3,6	;RP1=0, select bank1
  3710  069A  0847               	movf	(sprintf@fval+1)^(0+128),w
  3711  069B  1283               	bcf	3,5	;RP0=0, select bank0
  3712  069C  1303               	bcf	3,6	;RP1=0, select bank0
  3713  069D  00A7               	movwf	___flmul@b+1
  3714  069E  1683               	bsf	3,5	;RP0=1, select bank1
  3715  069F  1303               	bcf	3,6	;RP1=0, select bank1
  3716  06A0  0846               	movf	sprintf@fval^(0+128),w
  3717  06A1  1283               	bcf	3,5	;RP0=0, select bank0
  3718  06A2  1303               	bcf	3,6	;RP1=0, select bank0
  3719  06A3  00A6               	movwf	___flmul@b
  3720  06A4  120A  158A  249F  120A  118A  	fcall	___flmul
  3721  06A9  1283               	bcf	3,5	;RP0=0, select bank0
  3722  06AA  1303               	bcf	3,6	;RP1=0, select bank0
  3723  06AB  0829               	movf	?___flmul+3,w
  3724  06AC  00D6               	movwf	___fltol@f1+3
  3725  06AD  0828               	movf	?___flmul+2,w
  3726  06AE  00D5               	movwf	___fltol@f1+2
  3727  06AF  0827               	movf	?___flmul+1,w
  3728  06B0  00D4               	movwf	___fltol@f1+1
  3729  06B1  0826               	movf	?___flmul,w
  3730  06B2  00D3               	movwf	___fltol@f1
  3731  06B3  160A  158A  242E  120A  118A  	fcall	___fltol
  3732  06B8  1283               	bcf	3,5	;RP0=0, select bank0
  3733  06B9  1303               	bcf	3,6	;RP1=0, select bank0
  3734  06BA  0856               	movf	?___fltol+3,w
  3735  06BB  1683               	bsf	3,5	;RP0=1, select bank1
  3736  06BC  1303               	bcf	3,6	;RP1=0, select bank1
  3737  06BD  00BC               	movwf	(sprintf@val+3)^(0+128)
  3738  06BE  1283               	bcf	3,5	;RP0=0, select bank0
  3739  06BF  1303               	bcf	3,6	;RP1=0, select bank0
  3740  06C0  0855               	movf	?___fltol+2,w
  3741  06C1  1683               	bsf	3,5	;RP0=1, select bank1
  3742  06C2  1303               	bcf	3,6	;RP1=0, select bank1
  3743  06C3  00BB               	movwf	(sprintf@val+2)^(0+128)
  3744  06C4  1283               	bcf	3,5	;RP0=0, select bank0
  3745  06C5  1303               	bcf	3,6	;RP1=0, select bank0
  3746  06C6  0854               	movf	?___fltol+1,w
  3747  06C7  1683               	bsf	3,5	;RP0=1, select bank1
  3748  06C8  1303               	bcf	3,6	;RP1=0, select bank1
  3749  06C9  00BA               	movwf	(sprintf@val+1)^(0+128)
  3750  06CA  1283               	bcf	3,5	;RP0=0, select bank0
  3751  06CB  1303               	bcf	3,6	;RP1=0, select bank0
  3752  06CC  0853               	movf	?___fltol,w
  3753  06CD  1683               	bsf	3,5	;RP0=1, select bank1
  3754  06CE  1303               	bcf	3,6	;RP1=0, select bank1
  3755  06CF  00B9               	movwf	sprintf@val^(0+128)
  3756                           
  3757                           ;C:\Program Files\Microchip\xc8\v2.35\pic\sources\c90\common\doprnt.c: 1254:    while(c-
      +                          -) {
  3758  06D0  2F72               	goto	l3586
  3759  06D1                     l3578:
  3760                           
  3761                           ;C:\Program Files\Microchip\xc8\v2.35\pic\sources\c90\common\doprnt.c: 1255:     tmpval.
      +                          vd = val/dpowers[c];
  3762  06D1  084A               	movf	sprintf@c^(0+128),w
  3763  06D2  00AD               	movwf	??_sprintf^(0+128)
  3764  06D3  3001               	movlw	1
  3765  06D4                     u5685:
  3766  06D4  1003               	clrc
  3767  06D5  0DAD               	rlf	??_sprintf^(0+128),f
  3768  06D6  3EFF               	addlw	-1
  3769  06D7  1D03               	skipz
  3770  06D8  2ED4               	goto	u5685
  3771  06D9  1003               	clrc
  3772  06DA  0D2D               	rlf	??_sprintf^(0+128),w
  3773  06DB  3E69               	addlw	low ((_dpowers-__stringbase)| (0+32768))
  3774  06DC  0084               	movwf	4
  3775  06DD  120A  158A  200A  120A  118A  	fcall	stringdir
  3776  06E2  00F0               	movwf	___lldiv@divisor
  3777  06E3  120A  158A  200A  120A  118A  	fcall	stringdir
  3778  06E8  00F1               	movwf	___lldiv@divisor+1
  3779  06E9  120A  158A  200A  120A  118A  	fcall	stringdir
  3780  06EE  00F2               	movwf	___lldiv@divisor+2
  3781  06EF  120A  158A  200A  120A  118A  	fcall	stringdir
  3782  06F4  00F3               	movwf	___lldiv@divisor+3
  3783  06F5  083C               	movf	(sprintf@val+3)^(0+128),w
  3784  06F6  00F7               	movwf	___lldiv@dividend+3
  3785  06F7  083B               	movf	(sprintf@val+2)^(0+128),w
  3786  06F8  00F6               	movwf	___lldiv@dividend+2
  3787  06F9  083A               	movf	(sprintf@val+1)^(0+128),w
  3788  06FA  00F5               	movwf	___lldiv@dividend+1
  3789  06FB  0839               	movf	sprintf@val^(0+128),w
  3790  06FC  00F4               	movwf	___lldiv@dividend
  3791  06FD  160A  158A  235F  120A  118A  	fcall	___lldiv
  3792  0702  0873               	movf	?___lldiv+3,w
  3793  0703  1683               	bsf	3,5	;RP0=1, select bank1
  3794  0704  1303               	bcf	3,6	;RP1=0, select bank1
  3795  0705  00C2               	movwf	(sprintf@tmpval+3)^(0+128)
  3796  0706  0872               	movf	?___lldiv+2,w
  3797  0707  00C1               	movwf	(sprintf@tmpval+2)^(0+128)
  3798  0708  0871               	movf	?___lldiv+1,w
  3799  0709  00C0               	movwf	(sprintf@tmpval+1)^(0+128)
  3800  070A  0870               	movf	?___lldiv,w
  3801  070B  00BF               	movwf	sprintf@tmpval^(0+128)
  3802  070C                     l3580:
  3803                           
  3804                           ;C:\Program Files\Microchip\xc8\v2.35\pic\sources\c90\common\doprnt.c: 1256:     tmpval.
      +                          vd %= 10;
  3805  070C  3000               	movlw	0
  3806  070D  00F3               	movwf	___llmod@divisor+3
  3807  070E  3000               	movlw	0
  3808  070F  00F2               	movwf	___llmod@divisor+2
  3809  0710  3000               	movlw	0
  3810  0711  00F1               	movwf	___llmod@divisor+1
  3811  0712  300A               	movlw	10
  3812  0713  00F0               	movwf	___llmod@divisor
  3813  0714  0842               	movf	(sprintf@tmpval+3)^(0+128),w
  3814  0715  00F7               	movwf	___llmod@dividend+3
  3815  0716  0841               	movf	(sprintf@tmpval+2)^(0+128),w
  3816  0717  00F6               	movwf	___llmod@dividend+2
  3817  0718  0840               	movf	(sprintf@tmpval+1)^(0+128),w
  3818  0719  00F5               	movwf	___llmod@dividend+1
  3819  071A  083F               	movf	sprintf@tmpval^(0+128),w
  3820  071B  00F4               	movwf	___llmod@dividend
  3821  071C  160A  158A  230B  120A  118A  	fcall	___llmod
  3822  0721  0873               	movf	?___llmod+3,w
  3823  0722  1683               	bsf	3,5	;RP0=1, select bank1
  3824  0723  1303               	bcf	3,6	;RP1=0, select bank1
  3825  0724  00C2               	movwf	(sprintf@tmpval+3)^(0+128)
  3826  0725  0872               	movf	?___llmod+2,w
  3827  0726  00C1               	movwf	(sprintf@tmpval+2)^(0+128)
  3828  0727  0871               	movf	?___llmod+1,w
  3829  0728  00C0               	movwf	(sprintf@tmpval+1)^(0+128)
  3830  0729  0870               	movf	?___llmod,w
  3831  072A  00BF               	movwf	sprintf@tmpval^(0+128)
  3832  072B                     l3582:
  3833                           
  3834                           ;C:\Program Files\Microchip\xc8\v2.35\pic\sources\c90\common\doprnt.c: 1257:     ((*sp++
      +                           = ('0' + tmpval.vd)));
  3835  072B  083F               	movf	sprintf@tmpval^(0+128),w
  3836  072C  3E30               	addlw	48
  3837  072D  00AD               	movwf	??_sprintf^(0+128)
  3838  072E  0843               	movf	sprintf@sp^(0+128),w
  3839  072F  0084               	movwf	4
  3840  0730  082D               	movf	??_sprintf^(0+128),w
  3841  0731  1783               	bsf	3,7	;select IRP bank2
  3842  0732  0080               	movwf	0
  3843  0733  3001               	movlw	1
  3844  0734  00AD               	movwf	??_sprintf^(0+128)
  3845  0735  082D               	movf	??_sprintf^(0+128),w
  3846  0736  07C3               	addwf	sprintf@sp^(0+128),f
  3847  0737                     l3584:
  3848                           
  3849                           ;C:\Program Files\Microchip\xc8\v2.35\pic\sources\c90\common\doprnt.c: 1258:     val %= 
      +                          dpowers[c];
  3850  0737  084A               	movf	sprintf@c^(0+128),w
  3851  0738  00AD               	movwf	??_sprintf^(0+128)
  3852  0739  3001               	movlw	1
  3853  073A                     u5695:
  3854  073A  1003               	clrc
  3855  073B  0DAD               	rlf	??_sprintf^(0+128),f
  3856  073C  3EFF               	addlw	-1
  3857  073D  1D03               	skipz
  3858  073E  2F3A               	goto	u5695
  3859  073F  1003               	clrc
  3860  0740  0D2D               	rlf	??_sprintf^(0+128),w
  3861  0741  3E69               	addlw	low ((_dpowers-__stringbase)| (0+32768))
  3862  0742  0084               	movwf	4
  3863  0743  120A  158A  200A  120A  118A  	fcall	stringdir
  3864  0748  00F0               	movwf	___llmod@divisor
  3865  0749  120A  158A  200A  120A  118A  	fcall	stringdir
  3866  074E  00F1               	movwf	___llmod@divisor+1
  3867  074F  120A  158A  200A  120A  118A  	fcall	stringdir
  3868  0754  00F2               	movwf	___llmod@divisor+2
  3869  0755  120A  158A  200A  120A  118A  	fcall	stringdir
  3870  075A  00F3               	movwf	___llmod@divisor+3
  3871  075B  083C               	movf	(sprintf@val+3)^(0+128),w
  3872  075C  00F7               	movwf	___llmod@dividend+3
  3873  075D  083B               	movf	(sprintf@val+2)^(0+128),w
  3874  075E  00F6               	movwf	___llmod@dividend+2
  3875  075F  083A               	movf	(sprintf@val+1)^(0+128),w
  3876  0760  00F5               	movwf	___llmod@dividend+1
  3877  0761  0839               	movf	sprintf@val^(0+128),w
  3878  0762  00F4               	movwf	___llmod@dividend
  3879  0763  160A  158A  230B  120A  118A  	fcall	___llmod
  3880  0768  0873               	movf	?___llmod+3,w
  3881  0769  1683               	bsf	3,5	;RP0=1, select bank1
  3882  076A  1303               	bcf	3,6	;RP1=0, select bank1
  3883  076B  00BC               	movwf	(sprintf@val+3)^(0+128)
  3884  076C  0872               	movf	?___llmod+2,w
  3885  076D  00BB               	movwf	(sprintf@val+2)^(0+128)
  3886  076E  0871               	movf	?___llmod+1,w
  3887  076F  00BA               	movwf	(sprintf@val+1)^(0+128)
  3888  0770  0870               	movf	?___llmod,w
  3889  0771  00B9               	movwf	sprintf@val^(0+128)
  3890  0772                     l3586:
  3891                           
  3892                           ;C:\Program Files\Microchip\xc8\v2.35\pic\sources\c90\common\doprnt.c: 1254:    while(c-
      +                          -) {
  3893  0772  3001               	movlw	1
  3894  0773  02CA               	subwf	sprintf@c^(0+128),f
  3895  0774  0A4A               	incf	sprintf@c^(0+128),w
  3896  0775  1D03               	btfss	3,2
  3897  0776  2F78               	goto	u5701
  3898  0777  2F79               	goto	u5700
  3899  0778                     u5701:
  3900  0778  2ED1               	goto	l3578
  3901  0779                     u5700:
  3902  0779  2F8B               	goto	l3594
  3903  077A                     l3588:
  3904                           
  3905                           ;C:\Program Files\Microchip\xc8\v2.35\pic\sources\c90\common\doprnt.c: 1262:     ((*sp++
      +                           = ('0')));
  3906  077A  3030               	movlw	48
  3907  077B  00AD               	movwf	??_sprintf^(0+128)
  3908  077C  0843               	movf	sprintf@sp^(0+128),w
  3909  077D  0084               	movwf	4
  3910  077E  082D               	movf	??_sprintf^(0+128),w
  3911  077F  1783               	bsf	3,7	;select IRP bank2
  3912  0780  0080               	movwf	0
  3913  0781                     l3590:
  3914  0781  3001               	movlw	1
  3915  0782  00AD               	movwf	??_sprintf^(0+128)
  3916  0783  082D               	movf	??_sprintf^(0+128),w
  3917  0784  07C3               	addwf	sprintf@sp^(0+128),f
  3918  0785                     l3592:
  3919                           
  3920                           ;C:\Program Files\Microchip\xc8\v2.35\pic\sources\c90\common\doprnt.c: 1263:     prec--;
  3921  0785  30FF               	movlw	255
  3922  0786  07C4               	addwf	sprintf@prec^(0+128),f
  3923  0787  1803               	skipnc
  3924  0788  0AC5               	incf	(sprintf@prec+1)^(0+128),f
  3925  0789  30FF               	movlw	255
  3926  078A  07C5               	addwf	(sprintf@prec+1)^(0+128),f
  3927  078B                     l3594:
  3928                           
  3929                           ;C:\Program Files\Microchip\xc8\v2.35\pic\sources\c90\common\doprnt.c: 1261:    while(pr
      +                          ec) {
  3930  078B  0844               	movf	sprintf@prec^(0+128),w
  3931  078C  0445               	iorwf	(sprintf@prec+1)^(0+128),w
  3932  078D  1D03               	btfss	3,2
  3933  078E  2F90               	goto	u5711
  3934  078F  2F91               	goto	u5710
  3935  0790                     u5711:
  3936  0790  2F7A               	goto	l3588
  3937  0791                     u5710:
  3938  0791  2FD7               	goto	l3614
  3939  0792                     l3596:
  3940                           
  3941                           ;C:\Program Files\Microchip\xc8\v2.35\pic\sources\c90\common\doprnt.c: 1316:   if(prec =
      +                          = 0 && val == 0)
  3942  0792  0844               	movf	sprintf@prec^(0+128),w
  3943  0793  0445               	iorwf	(sprintf@prec+1)^(0+128),w
  3944  0794  1D03               	btfss	3,2
  3945  0795  2F97               	goto	u5721
  3946  0796  2F98               	goto	u5720
  3947  0797                     u5721:
  3948  0797  2FA6               	goto	l353
  3949  0798                     u5720:
  3950  0798                     l3598:
  3951  0798  083C               	movf	(sprintf@val+3)^(0+128),w
  3952  0799  043B               	iorwf	(sprintf@val+2)^(0+128),w
  3953  079A  043A               	iorwf	(sprintf@val+1)^(0+128),w
  3954  079B  0439               	iorwf	sprintf@val^(0+128),w
  3955  079C  1D03               	skipz
  3956  079D  2F9F               	goto	u5731
  3957  079E  2FA0               	goto	u5730
  3958  079F                     u5731:
  3959  079F  2FA6               	goto	l353
  3960  07A0                     u5730:
  3961  07A0                     l3600:
  3962                           
  3963                           ;C:\Program Files\Microchip\xc8\v2.35\pic\sources\c90\common\doprnt.c: 1317:    prec++;
  3964  07A0  3001               	movlw	1
  3965  07A1  07C4               	addwf	sprintf@prec^(0+128),f
  3966  07A2  1803               	skipnc
  3967  07A3  0AC5               	incf	(sprintf@prec+1)^(0+128),f
  3968  07A4  3000               	movlw	0
  3969  07A5  07C5               	addwf	(sprintf@prec+1)^(0+128),f
  3970  07A6                     l353:
  3971                           
  3972                           ;C:\Program Files\Microchip\xc8\v2.35\pic\sources\c90\common\doprnt.c: 1365:   if(c < pr
      +                          ec)
  3973  07A6  0845               	movf	(sprintf@prec+1)^(0+128),w
  3974  07A7  3A80               	xorlw	128
  3975  07A8  3C80               	sublw	128
  3976  07A9  1D03               	skipz
  3977  07AA  2FAD               	goto	u5745
  3978  07AB  0844               	movf	sprintf@prec^(0+128),w
  3979  07AC  024A               	subwf	sprintf@c^(0+128),w
  3980  07AD                     u5745:
  3981  07AD  1803               	skipnc
  3982  07AE  2FB0               	goto	u5741
  3983  07AF  2FB1               	goto	u5740
  3984  07B0                     u5741:
  3985  07B0  2FB2               	goto	l3604
  3986  07B1                     u5740:
  3987  07B1                     l3602:
  3988  07B1  2FC1               	goto	l3608
  3989  07B2                     l3604:
  3990  07B2  1683               	bsf	3,5	;RP0=1, select bank1
  3991  07B3  1303               	bcf	3,6	;RP1=0, select bank1
  3992  07B4  0845               	movf	(sprintf@prec+1)^(0+128),w
  3993  07B5  3A80               	xorlw	128
  3994  07B6  00AD               	movwf	??_sprintf^(0+128)
  3995  07B7  3080               	movlw	128
  3996  07B8  022D               	subwf	??_sprintf^(0+128),w
  3997  07B9  1D03               	skipz
  3998  07BA  2FBD               	goto	u5755
  3999  07BB  084A               	movf	sprintf@c^(0+128),w
  4000  07BC  0244               	subwf	sprintf@prec^(0+128),w
  4001  07BD                     u5755:
  4002  07BD  1803               	skipnc
  4003  07BE  2FC0               	goto	u5751
  4004  07BF  2FC1               	goto	u5750
  4005  07C0                     u5751:
  4006  07C0  2FC1               	goto	l3608
  4007  07C1                     u5750:
  4008  07C1                     l3606:
  4009  07C1                     l3608:
  4010                           
  4011                           ;C:\Program Files\Microchip\xc8\v2.35\pic\sources\c90\common\doprnt.c: 1448:   {;C:\Prog
      +                          ram Files\Microchip\xc8\v2.35\pic\sources\c90\common\doprnt.c: 1464:    if(flag & 0x03)
  4012  07C1  3003               	movlw	3
  4013  07C2  1683               	bsf	3,5	;RP0=1, select bank1
  4014  07C3  1303               	bcf	3,6	;RP1=0, select bank1
  4015  07C4  0537               	andwf	sprintf@flag^(0+128),w
  4016  07C5  00AD               	movwf	??_sprintf^(0+128)
  4017  07C6  3000               	movlw	0
  4018  07C7  0538               	andwf	(sprintf@flag+1)^(0+128),w
  4019  07C8  00AE               	movwf	(??_sprintf+1)^(0+128)
  4020  07C9  082D               	movf	??_sprintf^(0+128),w
  4021  07CA  042E               	iorwf	(??_sprintf^(0+128)+1),w
  4022  07CB  1903               	btfsc	3,2
  4023  07CC  2FCE               	goto	u5761
  4024  07CD  2FCF               	goto	u5760
  4025  07CE                     u5761:
  4026  07CE  2FD7               	goto	l3614
  4027  07CF                     u5760:
  4028  07CF                     l3610:
  4029                           
  4030                           ;C:\Program Files\Microchip\xc8\v2.35\pic\sources\c90\common\doprnt.c: 1465:     ((*sp++
      +                           = ('-')));
  4031  07CF  302D               	movlw	45
  4032  07D0  00AD               	movwf	??_sprintf^(0+128)
  4033  07D1  0843               	movf	sprintf@sp^(0+128),w
  4034  07D2  0084               	movwf	4
  4035  07D3  082D               	movf	??_sprintf^(0+128),w
  4036  07D4  1783               	bsf	3,7	;select IRP bank2
  4037  07D5  0080               	movwf	0
  4038  07D6  2973               	goto	l3426
  4039  07D7                     l3614:
  4040                           
  4041                           ;C:\Program Files\Microchip\xc8\v2.35\pic\sources\c90\common\doprnt.c: 553:  while((c = 
      +                          *f++)) {
  4042  07D7  3001               	movlw	1
  4043  07D8  07A4               	addwf	sprintf@f^(0+128),f
  4044  07D9  30FF               	movlw	-1
  4045  07DA  0724               	addwf	sprintf@f^(0+128),w
  4046  07DB  0084               	movwf	4
  4047  07DC  120A  158A  200A  120A  118A  	fcall	stringdir
  4048  07E1  00AD               	movwf	??_sprintf^(0+128)
  4049  07E2  082D               	movf	??_sprintf^(0+128),w
  4050  07E3  00CA               	movwf	sprintf@c^(0+128)
  4051  07E4  084A               	movf	sprintf@c^(0+128),w
  4052  07E5  1D03               	btfss	3,2
  4053  07E6  2FE8               	goto	u5771
  4054  07E7  2FE9               	goto	u5770
  4055  07E8                     u5771:
  4056  07E8  2966               	goto	l3422
  4057  07E9                     u5770:
  4058  07E9                     l3616:
  4059                           
  4060                           ;C:\Program Files\Microchip\xc8\v2.35\pic\sources\c90\common\doprnt.c: 1564:  *sp = 0;
  4061  07E9  0843               	movf	sprintf@sp^(0+128),w
  4062  07EA  0084               	movwf	4
  4063  07EB  1783               	bsf	3,7	;select IRP bank2
  4064  07EC  0180               	clrf	0
  4065  07ED                     l359:
  4066  07ED  0008               	return
  4067  07EE                     __end_of_sprintf:
  4068                           
  4069                           	psect	text2
  4070  0940                     __ptext2:	
  4071 ;; *************** function _scale *****************
  4072 ;; Defined at:
  4073 ;;		line 433 in file "C:\Program Files\Microchip\xc8\v2.35\pic\sources\c90\common\doprnt.c"
  4074 ;; Parameters:    Size  Location     Type
  4075 ;;  scl             1    wreg     char 
  4076 ;; Auto vars:     Size  Location     Type
  4077 ;;  scl             1   50[BANK0 ] char 
  4078 ;; Return value:  Size  Location     Type
  4079 ;;                  4   32[BANK0 ] char 
  4080 ;; Registers used:
  4081 ;;		wreg, fsr0l, fsr0h, status,2, status,0, btemp+1, pclath, cstack
  4082 ;; Tracked objects:
  4083 ;;		On entry : 0/0
  4084 ;;		On exit  : 0/0
  4085 ;;		Unchanged: 0/0
  4086 ;; Data sizes:     COMMON   BANK0   BANK1   BANK3   BANK2
  4087 ;;      Params:         0       4       0       0       0
  4088 ;;      Locals:         0       5       0       0       0
  4089 ;;      Temps:          0      10       0       0       0
  4090 ;;      Totals:         0      19       0       0       0
  4091 ;;Total ram usage:       19 bytes
  4092 ;; Hardware stack levels used: 1
  4093 ;; Hardware stack levels required when called: 2
  4094 ;; This function calls:
  4095 ;;		___awdiv
  4096 ;;		___awmod
  4097 ;;		___flmul
  4098 ;; This function is called by:
  4099 ;;		_sprintf
  4100 ;; This function uses a non-reentrant model
  4101 ;;
  4102                           
  4103  0940                     _scale:	
  4104                           ;psect for function _scale
  4105                           
  4106                           
  4107                           ;incstack = 0
  4108                           ; Regs used in _scale: [wreg-fsr0h+status,2+status,0+btemp+1+pclath+cstack]
  4109                           ;scale@scl stored from wreg
  4110  0940  1283               	bcf	3,5	;RP0=0, select bank0
  4111  0941  1303               	bcf	3,6	;RP1=0, select bank0
  4112  0942  00D2               	movwf	scale@scl
  4113  0943                     l2974:
  4114                           
  4115                           ;C:\Program Files\Microchip\xc8\v2.35\pic\sources\c90\common\doprnt.c: 433: scale(signed
      +                           char scl);C:\Program Files\Microchip\xc8\v2.35\pic\sources\c90\common\doprnt.c: 434: {;
      +                          C:\Program Files\Microchip\xc8\v2.35\pic\sources\c90\common\doprnt.c: 436:  if(scl < 0) 
      +                          {
  4116  0943  1FD2               	btfss	scale@scl,7
  4117  0944  2946               	goto	u4361
  4118  0945  2947               	goto	u4360
  4119  0946                     u4361:
  4120  0946  2AF4               	goto	l2996
  4121  0947                     u4360:
  4122  0947                     l2976:
  4123                           
  4124                           ;C:\Program Files\Microchip\xc8\v2.35\pic\sources\c90\common\doprnt.c: 437:   scl = -scl
      +                          ;
  4125  0947  09D2               	comf	scale@scl,f
  4126  0948  0AD2               	incf	scale@scl,f
  4127  0949                     l2978:
  4128                           
  4129                           ;C:\Program Files\Microchip\xc8\v2.35\pic\sources\c90\common\doprnt.c: 438:   if(scl>=11
      +                          0)
  4130  0949  0852               	movf	scale@scl,w
  4131  094A  3A80               	xorlw	128
  4132  094B  3E12               	addlw	-238
  4133  094C  1C03               	skipc
  4134  094D  294F               	goto	u4371
  4135  094E  2950               	goto	u4370
  4136  094F                     u4371:
  4137  094F  2A38               	goto	l2986
  4138  0950                     u4370:
  4139  0950                     l2980:
  4140                           
  4141                           ;C:\Program Files\Microchip\xc8\v2.35\pic\sources\c90\common\doprnt.c: 439:    return _n
      +                          powers_[(unsigned char)(scl/100+18)] * _npowers_[(unsigned char)((scl%100)/10+9)] * _npo
      +                          wers_[(unsigned char)(scl%10)];
  4142  0950  300A               	movlw	10
  4143  0951  00F7               	movwf	___awdiv@divisor
  4144  0952  3000               	movlw	0
  4145  0953  00F8               	movwf	___awdiv@divisor+1
  4146  0954  0852               	movf	scale@scl,w
  4147  0955  00F2               	movwf	___awmod@dividend
  4148  0956  01F3               	clrf	___awmod@dividend+1
  4149  0957  1BF2               	btfsc	___awmod@dividend,7
  4150  0958  03F3               	decf	___awmod@dividend+1,f
  4151  0959  3064               	movlw	100
  4152  095A  00F0               	movwf	___awmod@divisor
  4153  095B  3000               	movlw	0
  4154  095C  00F1               	movwf	___awmod@divisor+1
  4155  095D  120A  158A  20E7  120A  158A  	fcall	___awmod
  4156  0962  0871               	movf	?___awmod+1,w
  4157  0963  00FA               	movwf	___awdiv@dividend+1
  4158  0964  0870               	movf	?___awmod,w
  4159  0965  00F9               	movwf	___awdiv@dividend
  4160  0966  160A  158A  23C5  120A  158A  	fcall	___awdiv
  4161  096B  0877               	movf	?___awdiv,w
  4162  096C  1283               	bcf	3,5	;RP0=0, select bank0
  4163  096D  1303               	bcf	3,6	;RP1=0, select bank0
  4164  096E  00C4               	movwf	??_scale
  4165  096F  3001               	movlw	1
  4166  0970                     u4385:
  4167  0970  1003               	clrc
  4168  0971  0DC4               	rlf	??_scale,f
  4169  0972  3EFF               	addlw	-1
  4170  0973  1D03               	skipz
  4171  0974  2970               	goto	u4385
  4172  0975  1003               	clrc
  4173  0976  0D44               	rlf	??_scale,w
  4174  0977  3E59               	addlw	low (((__npowers_-__stringbase)| (0+32768)+36))
  4175  0978  0084               	movwf	4
  4176  0979  120A  158A  200A  120A  158A  	fcall	stringdir
  4177  097E  00C5               	movwf	??_scale+1
  4178  097F  120A  158A  200A  120A  158A  	fcall	stringdir
  4179  0984  00C6               	movwf	??_scale+2
  4180  0985  120A  158A  200A  120A  158A  	fcall	stringdir
  4181  098A  00C7               	movwf	??_scale+3
  4182  098B  120A  158A  200A  120A  158A  	fcall	stringdir
  4183  0990  00C8               	movwf	??_scale+4
  4184  0991  0848               	movf	??_scale+4,w
  4185  0992  00A9               	movwf	___flmul@b+3
  4186  0993  0847               	movf	??_scale+3,w
  4187  0994  00A8               	movwf	___flmul@b+2
  4188  0995  0846               	movf	??_scale+2,w
  4189  0996  00A7               	movwf	___flmul@b+1
  4190  0997  0845               	movf	??_scale+1,w
  4191  0998  00A6               	movwf	___flmul@b
  4192  0999  3064               	movlw	100
  4193  099A  00F7               	movwf	___awdiv@divisor
  4194  099B  3000               	movlw	0
  4195  099C  00F8               	movwf	___awdiv@divisor+1
  4196  099D  0852               	movf	scale@scl,w
  4197  099E  00F9               	movwf	___awdiv@dividend
  4198  099F  01FA               	clrf	___awdiv@dividend+1
  4199  09A0  1BF9               	btfsc	___awdiv@dividend,7
  4200  09A1  03FA               	decf	___awdiv@dividend+1,f
  4201  09A2  160A  158A  23C5  120A  158A  	fcall	___awdiv
  4202  09A7  0877               	movf	?___awdiv,w
  4203  09A8  1283               	bcf	3,5	;RP0=0, select bank0
  4204  09A9  1303               	bcf	3,6	;RP1=0, select bank0
  4205  09AA  00C9               	movwf	??_scale+5
  4206  09AB  3001               	movlw	1
  4207  09AC                     u4395:
  4208  09AC  1003               	clrc
  4209  09AD  0DC9               	rlf	??_scale+5,f
  4210  09AE  3EFF               	addlw	-1
  4211  09AF  1D03               	skipz
  4212  09B0  29AC               	goto	u4395
  4213  09B1  1003               	clrc
  4214  09B2  0D49               	rlf	??_scale+5,w
  4215  09B3  3E7D               	addlw	low (((__npowers_-__stringbase)| (0+32768)+72))
  4216  09B4  0084               	movwf	4
  4217  09B5  120A  158A  200A  120A  158A  	fcall	stringdir
  4218  09BA  00CA               	movwf	??_scale+6
  4219  09BB  120A  158A  200A  120A  158A  	fcall	stringdir
  4220  09C0  00CB               	movwf	??_scale+7
  4221  09C1  120A  158A  200A  120A  158A  	fcall	stringdir
  4222  09C6  00CC               	movwf	??_scale+8
  4223  09C7  120A  158A  200A  120A  158A  	fcall	stringdir
  4224  09CC  00CD               	movwf	??_scale+9
  4225  09CD  084D               	movf	??_scale+9,w
  4226  09CE  00AD               	movwf	___flmul@a+3
  4227  09CF  084C               	movf	??_scale+8,w
  4228  09D0  00AC               	movwf	___flmul@a+2
  4229  09D1  084B               	movf	??_scale+7,w
  4230  09D2  00AB               	movwf	___flmul@a+1
  4231  09D3  084A               	movf	??_scale+6,w
  4232  09D4  00AA               	movwf	___flmul@a
  4233  09D5  120A  158A  249F  120A  158A  	fcall	___flmul
  4234  09DA  1283               	bcf	3,5	;RP0=0, select bank0
  4235  09DB  1303               	bcf	3,6	;RP1=0, select bank0
  4236  09DC  0829               	movf	?___flmul+3,w
  4237  09DD  00D1               	movwf	_scale$873+3
  4238  09DE  0828               	movf	?___flmul+2,w
  4239  09DF  00D0               	movwf	_scale$873+2
  4240  09E0  0827               	movf	?___flmul+1,w
  4241  09E1  00CF               	movwf	_scale$873+1
  4242  09E2  0826               	movf	?___flmul,w
  4243  09E3  00CE               	movwf	_scale$873
  4244                           
  4245                           ;C:\Program Files\Microchip\xc8\v2.35\pic\sources\c90\common\doprnt.c: 439:    return _n
      +                          powers_[(unsigned char)(scl/100+18)] * _npowers_[(unsigned char)((scl%100)/10+9)] * _npo
      +                          wers_[(unsigned char)(scl%10)];
  4246  09E4  300A               	movlw	10
  4247  09E5  00F0               	movwf	___awmod@divisor
  4248  09E6  3000               	movlw	0
  4249  09E7  00F1               	movwf	___awmod@divisor+1
  4250  09E8  0852               	movf	scale@scl,w
  4251  09E9  00F2               	movwf	___awmod@dividend
  4252  09EA  01F3               	clrf	___awmod@dividend+1
  4253  09EB  1BF2               	btfsc	___awmod@dividend,7
  4254  09EC  03F3               	decf	___awmod@dividend+1,f
  4255  09ED  120A  158A  20E7  120A  158A  	fcall	___awmod
  4256  09F2  0870               	movf	?___awmod,w
  4257  09F3  1283               	bcf	3,5	;RP0=0, select bank0
  4258  09F4  1303               	bcf	3,6	;RP1=0, select bank0
  4259  09F5  00C4               	movwf	??_scale
  4260  09F6  3001               	movlw	1
  4261  09F7                     u4405:
  4262  09F7  1003               	clrc
  4263  09F8  0DC4               	rlf	??_scale,f
  4264  09F9  3EFF               	addlw	-1
  4265  09FA  1D03               	skipz
  4266  09FB  29F7               	goto	u4405
  4267  09FC  1003               	clrc
  4268  09FD  0D44               	rlf	??_scale,w
  4269  09FE  3E35               	addlw	low ((__npowers_-__stringbase)| (0+32768))
  4270  09FF  0084               	movwf	4
  4271  0A00  120A  158A  200A  120A  158A  	fcall	stringdir
  4272  0A05  00C5               	movwf	??_scale+1
  4273  0A06  120A  158A  200A  120A  158A  	fcall	stringdir
  4274  0A0B  00C6               	movwf	??_scale+2
  4275  0A0C  120A  158A  200A  120A  158A  	fcall	stringdir
  4276  0A11  00C7               	movwf	??_scale+3
  4277  0A12  120A  158A  200A  120A  158A  	fcall	stringdir
  4278  0A17  00C8               	movwf	??_scale+4
  4279  0A18  0848               	movf	??_scale+4,w
  4280  0A19  00A9               	movwf	___flmul@b+3
  4281  0A1A  0847               	movf	??_scale+3,w
  4282  0A1B  00A8               	movwf	___flmul@b+2
  4283  0A1C  0846               	movf	??_scale+2,w
  4284  0A1D  00A7               	movwf	___flmul@b+1
  4285  0A1E  0845               	movf	??_scale+1,w
  4286  0A1F  00A6               	movwf	___flmul@b
  4287  0A20  0851               	movf	_scale$873+3,w
  4288  0A21  00AD               	movwf	___flmul@a+3
  4289  0A22  0850               	movf	_scale$873+2,w
  4290  0A23  00AC               	movwf	___flmul@a+2
  4291  0A24  084F               	movf	_scale$873+1,w
  4292  0A25  00AB               	movwf	___flmul@a+1
  4293  0A26  084E               	movf	_scale$873,w
  4294  0A27  00AA               	movwf	___flmul@a
  4295  0A28  120A  158A  249F  120A  158A  	fcall	___flmul
  4296  0A2D  1283               	bcf	3,5	;RP0=0, select bank0
  4297  0A2E  1303               	bcf	3,6	;RP1=0, select bank0
  4298  0A2F  0829               	movf	?___flmul+3,w
  4299  0A30  00C3               	movwf	?_scale+3
  4300  0A31  0828               	movf	?___flmul+2,w
  4301  0A32  00C2               	movwf	?_scale+2
  4302  0A33  0827               	movf	?___flmul+1,w
  4303  0A34  00C1               	movwf	?_scale+1
  4304  0A35  0826               	movf	?___flmul,w
  4305  0A36  00C0               	movwf	?_scale
  4306  0A37  2C9E               	goto	l293
  4307  0A38                     l2986:
  4308  0A38  0852               	movf	scale@scl,w
  4309  0A39  3A80               	xorlw	128
  4310  0A3A  3E75               	addlw	-139
  4311  0A3B  1C03               	skipc
  4312  0A3C  2A3E               	goto	u4411
  4313  0A3D  2A3F               	goto	u4410
  4314  0A3E                     u4411:
  4315  0A3E  2AC7               	goto	l2992
  4316  0A3F                     u4410:
  4317  0A3F                     l2988:
  4318                           
  4319                           ;C:\Program Files\Microchip\xc8\v2.35\pic\sources\c90\common\doprnt.c: 441:    return _n
      +                          powers_[(unsigned char)(scl/10+9)] * _npowers_[(unsigned char)(scl%10)];
  4320  0A3F  300A               	movlw	10
  4321  0A40  00F0               	movwf	___awmod@divisor
  4322  0A41  3000               	movlw	0
  4323  0A42  00F1               	movwf	___awmod@divisor+1
  4324  0A43  0852               	movf	scale@scl,w
  4325  0A44  00F2               	movwf	___awmod@dividend
  4326  0A45  01F3               	clrf	___awmod@dividend+1
  4327  0A46  1BF2               	btfsc	___awmod@dividend,7
  4328  0A47  03F3               	decf	___awmod@dividend+1,f
  4329  0A48  120A  158A  20E7  120A  158A  	fcall	___awmod
  4330  0A4D  0870               	movf	?___awmod,w
  4331  0A4E  1283               	bcf	3,5	;RP0=0, select bank0
  4332  0A4F  1303               	bcf	3,6	;RP1=0, select bank0
  4333  0A50  00C4               	movwf	??_scale
  4334  0A51  3001               	movlw	1
  4335  0A52                     u4425:
  4336  0A52  1003               	clrc
  4337  0A53  0DC4               	rlf	??_scale,f
  4338  0A54  3EFF               	addlw	-1
  4339  0A55  1D03               	skipz
  4340  0A56  2A52               	goto	u4425
  4341  0A57  1003               	clrc
  4342  0A58  0D44               	rlf	??_scale,w
  4343  0A59  3E35               	addlw	low ((__npowers_-__stringbase)| (0+32768))
  4344  0A5A  0084               	movwf	4
  4345  0A5B  120A  158A  200A  120A  158A  	fcall	stringdir
  4346  0A60  00C5               	movwf	??_scale+1
  4347  0A61  120A  158A  200A  120A  158A  	fcall	stringdir
  4348  0A66  00C6               	movwf	??_scale+2
  4349  0A67  120A  158A  200A  120A  158A  	fcall	stringdir
  4350  0A6C  00C7               	movwf	??_scale+3
  4351  0A6D  120A  158A  200A  120A  158A  	fcall	stringdir
  4352  0A72  00C8               	movwf	??_scale+4
  4353  0A73  0848               	movf	??_scale+4,w
  4354  0A74  00A9               	movwf	___flmul@b+3
  4355  0A75  0847               	movf	??_scale+3,w
  4356  0A76  00A8               	movwf	___flmul@b+2
  4357  0A77  0846               	movf	??_scale+2,w
  4358  0A78  00A7               	movwf	___flmul@b+1
  4359  0A79  0845               	movf	??_scale+1,w
  4360  0A7A  00A6               	movwf	___flmul@b
  4361  0A7B  300A               	movlw	10
  4362  0A7C  00F7               	movwf	___awdiv@divisor
  4363  0A7D  3000               	movlw	0
  4364  0A7E  00F8               	movwf	___awdiv@divisor+1
  4365  0A7F  0852               	movf	scale@scl,w
  4366  0A80  00F9               	movwf	___awdiv@dividend
  4367  0A81  01FA               	clrf	___awdiv@dividend+1
  4368  0A82  1BF9               	btfsc	___awdiv@dividend,7
  4369  0A83  03FA               	decf	___awdiv@dividend+1,f
  4370  0A84  160A  158A  23C5  120A  158A  	fcall	___awdiv
  4371  0A89  0877               	movf	?___awdiv,w
  4372  0A8A  1283               	bcf	3,5	;RP0=0, select bank0
  4373  0A8B  1303               	bcf	3,6	;RP1=0, select bank0
  4374  0A8C  00C9               	movwf	??_scale+5
  4375  0A8D  3001               	movlw	1
  4376  0A8E                     u4435:
  4377  0A8E  1003               	clrc
  4378  0A8F  0DC9               	rlf	??_scale+5,f
  4379  0A90  3EFF               	addlw	-1
  4380  0A91  1D03               	skipz
  4381  0A92  2A8E               	goto	u4435
  4382  0A93  1003               	clrc
  4383  0A94  0D49               	rlf	??_scale+5,w
  4384  0A95  3E59               	addlw	low (((__npowers_-__stringbase)| (0+32768)+36))
  4385  0A96  0084               	movwf	4
  4386  0A97  120A  158A  200A  120A  158A  	fcall	stringdir
  4387  0A9C  00CA               	movwf	??_scale+6
  4388  0A9D  120A  158A  200A  120A  158A  	fcall	stringdir
  4389  0AA2  00CB               	movwf	??_scale+7
  4390  0AA3  120A  158A  200A  120A  158A  	fcall	stringdir
  4391  0AA8  00CC               	movwf	??_scale+8
  4392  0AA9  120A  158A  200A  120A  158A  	fcall	stringdir
  4393  0AAE  00CD               	movwf	??_scale+9
  4394  0AAF  084D               	movf	??_scale+9,w
  4395  0AB0  00AD               	movwf	___flmul@a+3
  4396  0AB1  084C               	movf	??_scale+8,w
  4397  0AB2  00AC               	movwf	___flmul@a+2
  4398  0AB3  084B               	movf	??_scale+7,w
  4399  0AB4  00AB               	movwf	___flmul@a+1
  4400  0AB5  084A               	movf	??_scale+6,w
  4401  0AB6  00AA               	movwf	___flmul@a
  4402  0AB7  120A  158A  249F  120A  158A  	fcall	___flmul
  4403  0ABC  1283               	bcf	3,5	;RP0=0, select bank0
  4404  0ABD  1303               	bcf	3,6	;RP1=0, select bank0
  4405  0ABE  0829               	movf	?___flmul+3,w
  4406  0ABF  00C3               	movwf	?_scale+3
  4407  0AC0  0828               	movf	?___flmul+2,w
  4408  0AC1  00C2               	movwf	?_scale+2
  4409  0AC2  0827               	movf	?___flmul+1,w
  4410  0AC3  00C1               	movwf	?_scale+1
  4411  0AC4  0826               	movf	?___flmul,w
  4412  0AC5  00C0               	movwf	?_scale
  4413  0AC6  2C9E               	goto	l293
  4414  0AC7                     l2992:
  4415                           
  4416                           ;C:\Program Files\Microchip\xc8\v2.35\pic\sources\c90\common\doprnt.c: 442:   return _np
      +                          owers_[(unsigned char)scl];
  4417  0AC7  0852               	movf	scale@scl,w
  4418  0AC8  00C4               	movwf	??_scale
  4419  0AC9  3001               	movlw	1
  4420  0ACA                     u4445:
  4421  0ACA  1003               	clrc
  4422  0ACB  0DC4               	rlf	??_scale,f
  4423  0ACC  3EFF               	addlw	-1
  4424  0ACD  1D03               	skipz
  4425  0ACE  2ACA               	goto	u4445
  4426  0ACF  1003               	clrc
  4427  0AD0  0D44               	rlf	??_scale,w
  4428  0AD1  3E35               	addlw	low ((__npowers_-__stringbase)| (0+32768))
  4429  0AD2  0084               	movwf	4
  4430  0AD3  120A  158A  200A  120A  158A  	fcall	stringdir
  4431  0AD8  00C5               	movwf	??_scale+1
  4432  0AD9  120A  158A  200A  120A  158A  	fcall	stringdir
  4433  0ADE  00C6               	movwf	??_scale+2
  4434  0ADF  120A  158A  200A  120A  158A  	fcall	stringdir
  4435  0AE4  00C7               	movwf	??_scale+3
  4436  0AE5  120A  158A  200A  120A  158A  	fcall	stringdir
  4437  0AEA  00C8               	movwf	??_scale+4
  4438  0AEB  0848               	movf	??_scale+4,w
  4439  0AEC  00C3               	movwf	?_scale+3
  4440  0AED  0847               	movf	??_scale+3,w
  4441  0AEE  00C2               	movwf	?_scale+2
  4442  0AEF  0846               	movf	??_scale+2,w
  4443  0AF0  00C1               	movwf	?_scale+1
  4444  0AF1  0845               	movf	??_scale+1,w
  4445  0AF2  00C0               	movwf	?_scale
  4446  0AF3  2C9E               	goto	l293
  4447  0AF4                     l2996:
  4448                           
  4449                           ;C:\Program Files\Microchip\xc8\v2.35\pic\sources\c90\common\doprnt.c: 444:  if(scl>=110
      +                          )
  4450  0AF4  0852               	movf	scale@scl,w
  4451  0AF5  3A80               	xorlw	128
  4452  0AF6  3E12               	addlw	-238
  4453  0AF7  1C03               	skipc
  4454  0AF8  2AFA               	goto	u4451
  4455  0AF9  2AFB               	goto	u4450
  4456  0AFA                     u4451:
  4457  0AFA  2BE3               	goto	l3004
  4458  0AFB                     u4450:
  4459  0AFB                     l2998:
  4460                           
  4461                           ;C:\Program Files\Microchip\xc8\v2.35\pic\sources\c90\common\doprnt.c: 445:   return _po
      +                          wers_[(unsigned char)(scl/100+18)] * _powers_[(unsigned char)((scl%100)/10+9)] * _powers
      +                          _[(unsigned char)(scl%10)];
  4462  0AFB  300A               	movlw	10
  4463  0AFC  00F7               	movwf	___awdiv@divisor
  4464  0AFD  3000               	movlw	0
  4465  0AFE  00F8               	movwf	___awdiv@divisor+1
  4466  0AFF  0852               	movf	scale@scl,w
  4467  0B00  00F2               	movwf	___awmod@dividend
  4468  0B01  01F3               	clrf	___awmod@dividend+1
  4469  0B02  1BF2               	btfsc	___awmod@dividend,7
  4470  0B03  03F3               	decf	___awmod@dividend+1,f
  4471  0B04  3064               	movlw	100
  4472  0B05  00F0               	movwf	___awmod@divisor
  4473  0B06  3000               	movlw	0
  4474  0B07  00F1               	movwf	___awmod@divisor+1
  4475  0B08  120A  158A  20E7  120A  158A  	fcall	___awmod
  4476  0B0D  0871               	movf	?___awmod+1,w
  4477  0B0E  00FA               	movwf	___awdiv@dividend+1
  4478  0B0F  0870               	movf	?___awmod,w
  4479  0B10  00F9               	movwf	___awdiv@dividend
  4480  0B11  160A  158A  23C5  120A  158A  	fcall	___awdiv
  4481  0B16  0877               	movf	?___awdiv,w
  4482  0B17  1283               	bcf	3,5	;RP0=0, select bank0
  4483  0B18  1303               	bcf	3,6	;RP1=0, select bank0
  4484  0B19  00C4               	movwf	??_scale
  4485  0B1A  3001               	movlw	1
  4486  0B1B                     u4465:
  4487  0B1B  1003               	clrc
  4488  0B1C  0DC4               	rlf	??_scale,f
  4489  0B1D  3EFF               	addlw	-1
  4490  0B1E  1D03               	skipz
  4491  0B1F  2B1B               	goto	u4465
  4492  0B20  1003               	clrc
  4493  0B21  0D44               	rlf	??_scale,w
  4494  0B22  3E25               	addlw	low (((__powers_-__stringbase)| (0+32768)+36))
  4495  0B23  0084               	movwf	4
  4496  0B24  120A  158A  200A  120A  158A  	fcall	stringdir
  4497  0B29  00C5               	movwf	??_scale+1
  4498  0B2A  120A  158A  200A  120A  158A  	fcall	stringdir
  4499  0B2F  00C6               	movwf	??_scale+2
  4500  0B30  120A  158A  200A  120A  158A  	fcall	stringdir
  4501  0B35  00C7               	movwf	??_scale+3
  4502  0B36  120A  158A  200A  120A  158A  	fcall	stringdir
  4503  0B3B  00C8               	movwf	??_scale+4
  4504  0B3C  0848               	movf	??_scale+4,w
  4505  0B3D  00A9               	movwf	___flmul@b+3
  4506  0B3E  0847               	movf	??_scale+3,w
  4507  0B3F  00A8               	movwf	___flmul@b+2
  4508  0B40  0846               	movf	??_scale+2,w
  4509  0B41  00A7               	movwf	___flmul@b+1
  4510  0B42  0845               	movf	??_scale+1,w
  4511  0B43  00A6               	movwf	___flmul@b
  4512  0B44  3064               	movlw	100
  4513  0B45  00F7               	movwf	___awdiv@divisor
  4514  0B46  3000               	movlw	0
  4515  0B47  00F8               	movwf	___awdiv@divisor+1
  4516  0B48  0852               	movf	scale@scl,w
  4517  0B49  00F9               	movwf	___awdiv@dividend
  4518  0B4A  01FA               	clrf	___awdiv@dividend+1
  4519  0B4B  1BF9               	btfsc	___awdiv@dividend,7
  4520  0B4C  03FA               	decf	___awdiv@dividend+1,f
  4521  0B4D  160A  158A  23C5  120A  158A  	fcall	___awdiv
  4522  0B52  0877               	movf	?___awdiv,w
  4523  0B53  1283               	bcf	3,5	;RP0=0, select bank0
  4524  0B54  1303               	bcf	3,6	;RP1=0, select bank0
  4525  0B55  00C9               	movwf	??_scale+5
  4526  0B56  3001               	movlw	1
  4527  0B57                     u4475:
  4528  0B57  1003               	clrc
  4529  0B58  0DC9               	rlf	??_scale+5,f
  4530  0B59  3EFF               	addlw	-1
  4531  0B5A  1D03               	skipz
  4532  0B5B  2B57               	goto	u4475
  4533  0B5C  1003               	clrc
  4534  0B5D  0D49               	rlf	??_scale+5,w
  4535  0B5E  3E49               	addlw	low (((__powers_-__stringbase)| (0+32768)+72))
  4536  0B5F  0084               	movwf	4
  4537  0B60  120A  158A  200A  120A  158A  	fcall	stringdir
  4538  0B65  00CA               	movwf	??_scale+6
  4539  0B66  120A  158A  200A  120A  158A  	fcall	stringdir
  4540  0B6B  00CB               	movwf	??_scale+7
  4541  0B6C  120A  158A  200A  120A  158A  	fcall	stringdir
  4542  0B71  00CC               	movwf	??_scale+8
  4543  0B72  120A  158A  200A  120A  158A  	fcall	stringdir
  4544  0B77  00CD               	movwf	??_scale+9
  4545  0B78  084D               	movf	??_scale+9,w
  4546  0B79  00AD               	movwf	___flmul@a+3
  4547  0B7A  084C               	movf	??_scale+8,w
  4548  0B7B  00AC               	movwf	___flmul@a+2
  4549  0B7C  084B               	movf	??_scale+7,w
  4550  0B7D  00AB               	movwf	___flmul@a+1
  4551  0B7E  084A               	movf	??_scale+6,w
  4552  0B7F  00AA               	movwf	___flmul@a
  4553  0B80  120A  158A  249F  120A  158A  	fcall	___flmul
  4554  0B85  1283               	bcf	3,5	;RP0=0, select bank0
  4555  0B86  1303               	bcf	3,6	;RP1=0, select bank0
  4556  0B87  0829               	movf	?___flmul+3,w
  4557  0B88  00D1               	movwf	_scale$873+3
  4558  0B89  0828               	movf	?___flmul+2,w
  4559  0B8A  00D0               	movwf	_scale$873+2
  4560  0B8B  0827               	movf	?___flmul+1,w
  4561  0B8C  00CF               	movwf	_scale$873+1
  4562  0B8D  0826               	movf	?___flmul,w
  4563  0B8E  00CE               	movwf	_scale$873
  4564                           
  4565                           ;C:\Program Files\Microchip\xc8\v2.35\pic\sources\c90\common\doprnt.c: 445:   return _po
      +                          wers_[(unsigned char)(scl/100+18)] * _powers_[(unsigned char)((scl%100)/10+9)] * _powers
      +                          _[(unsigned char)(scl%10)];
  4566  0B8F  300A               	movlw	10
  4567  0B90  00F0               	movwf	___awmod@divisor
  4568  0B91  3000               	movlw	0
  4569  0B92  00F1               	movwf	___awmod@divisor+1
  4570  0B93  0852               	movf	scale@scl,w
  4571  0B94  00F2               	movwf	___awmod@dividend
  4572  0B95  01F3               	clrf	___awmod@dividend+1
  4573  0B96  1BF2               	btfsc	___awmod@dividend,7
  4574  0B97  03F3               	decf	___awmod@dividend+1,f
  4575  0B98  120A  158A  20E7  120A  158A  	fcall	___awmod
  4576  0B9D  0870               	movf	?___awmod,w
  4577  0B9E  1283               	bcf	3,5	;RP0=0, select bank0
  4578  0B9F  1303               	bcf	3,6	;RP1=0, select bank0
  4579  0BA0  00C4               	movwf	??_scale
  4580  0BA1  3001               	movlw	1
  4581  0BA2                     u4485:
  4582  0BA2  1003               	clrc
  4583  0BA3  0DC4               	rlf	??_scale,f
  4584  0BA4  3EFF               	addlw	-1
  4585  0BA5  1D03               	skipz
  4586  0BA6  2BA2               	goto	u4485
  4587  0BA7  1003               	clrc
  4588  0BA8  0D44               	rlf	??_scale,w
  4589  0BA9  3E01               	addlw	low ((__powers_-__stringbase)| (0+32768))
  4590  0BAA  0084               	movwf	4
  4591  0BAB  120A  158A  200A  120A  158A  	fcall	stringdir
  4592  0BB0  00C5               	movwf	??_scale+1
  4593  0BB1  120A  158A  200A  120A  158A  	fcall	stringdir
  4594  0BB6  00C6               	movwf	??_scale+2
  4595  0BB7  120A  158A  200A  120A  158A  	fcall	stringdir
  4596  0BBC  00C7               	movwf	??_scale+3
  4597  0BBD  120A  158A  200A  120A  158A  	fcall	stringdir
  4598  0BC2  00C8               	movwf	??_scale+4
  4599  0BC3  0848               	movf	??_scale+4,w
  4600  0BC4  00A9               	movwf	___flmul@b+3
  4601  0BC5  0847               	movf	??_scale+3,w
  4602  0BC6  00A8               	movwf	___flmul@b+2
  4603  0BC7  0846               	movf	??_scale+2,w
  4604  0BC8  00A7               	movwf	___flmul@b+1
  4605  0BC9  0845               	movf	??_scale+1,w
  4606  0BCA  00A6               	movwf	___flmul@b
  4607  0BCB  0851               	movf	_scale$873+3,w
  4608  0BCC  00AD               	movwf	___flmul@a+3
  4609  0BCD  0850               	movf	_scale$873+2,w
  4610  0BCE  00AC               	movwf	___flmul@a+2
  4611  0BCF  084F               	movf	_scale$873+1,w
  4612  0BD0  00AB               	movwf	___flmul@a+1
  4613  0BD1  084E               	movf	_scale$873,w
  4614  0BD2  00AA               	movwf	___flmul@a
  4615  0BD3  120A  158A  249F  120A  158A  	fcall	___flmul
  4616  0BD8  1283               	bcf	3,5	;RP0=0, select bank0
  4617  0BD9  1303               	bcf	3,6	;RP1=0, select bank0
  4618  0BDA  0829               	movf	?___flmul+3,w
  4619  0BDB  00C3               	movwf	?_scale+3
  4620  0BDC  0828               	movf	?___flmul+2,w
  4621  0BDD  00C2               	movwf	?_scale+2
  4622  0BDE  0827               	movf	?___flmul+1,w
  4623  0BDF  00C1               	movwf	?_scale+1
  4624  0BE0  0826               	movf	?___flmul,w
  4625  0BE1  00C0               	movwf	?_scale
  4626  0BE2  2C9E               	goto	l293
  4627  0BE3                     l3004:
  4628  0BE3  0852               	movf	scale@scl,w
  4629  0BE4  3A80               	xorlw	128
  4630  0BE5  3E75               	addlw	-139
  4631  0BE6  1C03               	skipc
  4632  0BE7  2BE9               	goto	u4491
  4633  0BE8  2BEA               	goto	u4490
  4634  0BE9                     u4491:
  4635  0BE9  2C72               	goto	l3010
  4636  0BEA                     u4490:
  4637  0BEA                     l3006:
  4638                           
  4639                           ;C:\Program Files\Microchip\xc8\v2.35\pic\sources\c90\common\doprnt.c: 447:   return _po
      +                          wers_[(unsigned char)(scl/10+9)] * _powers_[(unsigned char)(scl%10)];
  4640  0BEA  300A               	movlw	10
  4641  0BEB  00F0               	movwf	___awmod@divisor
  4642  0BEC  3000               	movlw	0
  4643  0BED  00F1               	movwf	___awmod@divisor+1
  4644  0BEE  0852               	movf	scale@scl,w
  4645  0BEF  00F2               	movwf	___awmod@dividend
  4646  0BF0  01F3               	clrf	___awmod@dividend+1
  4647  0BF1  1BF2               	btfsc	___awmod@dividend,7
  4648  0BF2  03F3               	decf	___awmod@dividend+1,f
  4649  0BF3  120A  158A  20E7  120A  158A  	fcall	___awmod
  4650  0BF8  0870               	movf	?___awmod,w
  4651  0BF9  1283               	bcf	3,5	;RP0=0, select bank0
  4652  0BFA  1303               	bcf	3,6	;RP1=0, select bank0
  4653  0BFB  00C4               	movwf	??_scale
  4654  0BFC  3001               	movlw	1
  4655  0BFD                     u4505:
  4656  0BFD  1003               	clrc
  4657  0BFE  0DC4               	rlf	??_scale,f
  4658  0BFF  3EFF               	addlw	-1
  4659  0C00  1D03               	skipz
  4660  0C01  2BFD               	goto	u4505
  4661  0C02  1003               	clrc
  4662  0C03  0D44               	rlf	??_scale,w
  4663  0C04  3E01               	addlw	low ((__powers_-__stringbase)| (0+32768))
  4664  0C05  0084               	movwf	4
  4665  0C06  120A  158A  200A  120A  158A  	fcall	stringdir
  4666  0C0B  00C5               	movwf	??_scale+1
  4667  0C0C  120A  158A  200A  120A  158A  	fcall	stringdir
  4668  0C11  00C6               	movwf	??_scale+2
  4669  0C12  120A  158A  200A  120A  158A  	fcall	stringdir
  4670  0C17  00C7               	movwf	??_scale+3
  4671  0C18  120A  158A  200A  120A  158A  	fcall	stringdir
  4672  0C1D  00C8               	movwf	??_scale+4
  4673  0C1E  0848               	movf	??_scale+4,w
  4674  0C1F  00A9               	movwf	___flmul@b+3
  4675  0C20  0847               	movf	??_scale+3,w
  4676  0C21  00A8               	movwf	___flmul@b+2
  4677  0C22  0846               	movf	??_scale+2,w
  4678  0C23  00A7               	movwf	___flmul@b+1
  4679  0C24  0845               	movf	??_scale+1,w
  4680  0C25  00A6               	movwf	___flmul@b
  4681  0C26  300A               	movlw	10
  4682  0C27  00F7               	movwf	___awdiv@divisor
  4683  0C28  3000               	movlw	0
  4684  0C29  00F8               	movwf	___awdiv@divisor+1
  4685  0C2A  0852               	movf	scale@scl,w
  4686  0C2B  00F9               	movwf	___awdiv@dividend
  4687  0C2C  01FA               	clrf	___awdiv@dividend+1
  4688  0C2D  1BF9               	btfsc	___awdiv@dividend,7
  4689  0C2E  03FA               	decf	___awdiv@dividend+1,f
  4690  0C2F  160A  158A  23C5  120A  158A  	fcall	___awdiv
  4691  0C34  0877               	movf	?___awdiv,w
  4692  0C35  1283               	bcf	3,5	;RP0=0, select bank0
  4693  0C36  1303               	bcf	3,6	;RP1=0, select bank0
  4694  0C37  00C9               	movwf	??_scale+5
  4695  0C38  3001               	movlw	1
  4696  0C39                     u4515:
  4697  0C39  1003               	clrc
  4698  0C3A  0DC9               	rlf	??_scale+5,f
  4699  0C3B  3EFF               	addlw	-1
  4700  0C3C  1D03               	skipz
  4701  0C3D  2C39               	goto	u4515
  4702  0C3E  1003               	clrc
  4703  0C3F  0D49               	rlf	??_scale+5,w
  4704  0C40  3E25               	addlw	low (((__powers_-__stringbase)| (0+32768)+36))
  4705  0C41  0084               	movwf	4
  4706  0C42  120A  158A  200A  120A  158A  	fcall	stringdir
  4707  0C47  00CA               	movwf	??_scale+6
  4708  0C48  120A  158A  200A  120A  158A  	fcall	stringdir
  4709  0C4D  00CB               	movwf	??_scale+7
  4710  0C4E  120A  158A  200A  120A  158A  	fcall	stringdir
  4711  0C53  00CC               	movwf	??_scale+8
  4712  0C54  120A  158A  200A  120A  158A  	fcall	stringdir
  4713  0C59  00CD               	movwf	??_scale+9
  4714  0C5A  084D               	movf	??_scale+9,w
  4715  0C5B  00AD               	movwf	___flmul@a+3
  4716  0C5C  084C               	movf	??_scale+8,w
  4717  0C5D  00AC               	movwf	___flmul@a+2
  4718  0C5E  084B               	movf	??_scale+7,w
  4719  0C5F  00AB               	movwf	___flmul@a+1
  4720  0C60  084A               	movf	??_scale+6,w
  4721  0C61  00AA               	movwf	___flmul@a
  4722  0C62  120A  158A  249F  120A  158A  	fcall	___flmul
  4723  0C67  1283               	bcf	3,5	;RP0=0, select bank0
  4724  0C68  1303               	bcf	3,6	;RP1=0, select bank0
  4725  0C69  0829               	movf	?___flmul+3,w
  4726  0C6A  00C3               	movwf	?_scale+3
  4727  0C6B  0828               	movf	?___flmul+2,w
  4728  0C6C  00C2               	movwf	?_scale+2
  4729  0C6D  0827               	movf	?___flmul+1,w
  4730  0C6E  00C1               	movwf	?_scale+1
  4731  0C6F  0826               	movf	?___flmul,w
  4732  0C70  00C0               	movwf	?_scale
  4733  0C71  2C9E               	goto	l293
  4734  0C72                     l3010:
  4735                           
  4736                           ;C:\Program Files\Microchip\xc8\v2.35\pic\sources\c90\common\doprnt.c: 448:  return _pow
      +                          ers_[(unsigned char)scl];
  4737  0C72  0852               	movf	scale@scl,w
  4738  0C73  00C4               	movwf	??_scale
  4739  0C74  3001               	movlw	1
  4740  0C75                     u4525:
  4741  0C75  1003               	clrc
  4742  0C76  0DC4               	rlf	??_scale,f
  4743  0C77  3EFF               	addlw	-1
  4744  0C78  1D03               	skipz
  4745  0C79  2C75               	goto	u4525
  4746  0C7A  1003               	clrc
  4747  0C7B  0D44               	rlf	??_scale,w
  4748  0C7C  3E01               	addlw	low ((__powers_-__stringbase)| (0+32768))
  4749  0C7D  0084               	movwf	4
  4750  0C7E  120A  158A  200A  120A  158A  	fcall	stringdir
  4751  0C83  00C5               	movwf	??_scale+1
  4752  0C84  120A  158A  200A  120A  158A  	fcall	stringdir
  4753  0C89  00C6               	movwf	??_scale+2
  4754  0C8A  120A  158A  200A  120A  158A  	fcall	stringdir
  4755  0C8F  00C7               	movwf	??_scale+3
  4756  0C90  120A  158A  200A  120A  158A  	fcall	stringdir
  4757  0C95  00C8               	movwf	??_scale+4
  4758  0C96  0848               	movf	??_scale+4,w
  4759  0C97  00C3               	movwf	?_scale+3
  4760  0C98  0847               	movf	??_scale+3,w
  4761  0C99  00C2               	movwf	?_scale+2
  4762  0C9A  0846               	movf	??_scale+2,w
  4763  0C9B  00C1               	movwf	?_scale+1
  4764  0C9C  0845               	movf	??_scale+1,w
  4765  0C9D  00C0               	movwf	?_scale
  4766  0C9E                     l293:
  4767  0C9E  0008               	return
  4768  0C9F                     __end_of_scale:
  4769                           
  4770                           	psect	text3
  4771  08E7                     __ptext3:	
  4772 ;; *************** function ___awmod *****************
  4773 ;; Defined at:
  4774 ;;		line 5 in file "C:\Program Files\Microchip\xc8\v2.35\pic\sources\c90\common\awmod.c"
  4775 ;; Parameters:    Size  Location     Type
  4776 ;;  divisor         2    0[COMMON] int 
  4777 ;;  dividend        2    2[COMMON] int 
  4778 ;; Auto vars:     Size  Location     Type
  4779 ;;  sign            1    6[COMMON] unsigned char 
  4780 ;;  counter         1    5[COMMON] unsigned char 
  4781 ;; Return value:  Size  Location     Type
  4782 ;;                  2    0[COMMON] int 
  4783 ;; Registers used:
  4784 ;;		wreg, status,2, status,0
  4785 ;; Tracked objects:
  4786 ;;		On entry : 0/0
  4787 ;;		On exit  : 0/0
  4788 ;;		Unchanged: 0/0
  4789 ;; Data sizes:     COMMON   BANK0   BANK1   BANK3   BANK2
  4790 ;;      Params:         4       0       0       0       0
  4791 ;;      Locals:         2       0       0       0       0
  4792 ;;      Temps:          1       0       0       0       0
  4793 ;;      Totals:         7       0       0       0       0
  4794 ;;Total ram usage:        7 bytes
  4795 ;; Hardware stack levels used: 1
  4796 ;; This function calls:
  4797 ;;		Nothing
  4798 ;; This function is called by:
  4799 ;;		_scale
  4800 ;; This function uses a non-reentrant model
  4801 ;;
  4802                           
  4803  08E7                     ___awmod:	
  4804                           ;psect for function ___awmod
  4805                           
  4806  08E7                     l2500:	
  4807                           ;incstack = 0
  4808                           ; Regs used in ___awmod: [wreg+status,2+status,0]
  4809                           
  4810  08E7  01F6               	clrf	___awmod@sign
  4811  08E8                     l2502:
  4812  08E8  1FF3               	btfss	___awmod@dividend+1,7
  4813  08E9  28EB               	goto	u3201
  4814  08EA  28EC               	goto	u3200
  4815  08EB                     u3201:
  4816  08EB  28F3               	goto	l2508
  4817  08EC                     u3200:
  4818  08EC                     l2504:
  4819  08EC  09F2               	comf	___awmod@dividend,f
  4820  08ED  09F3               	comf	___awmod@dividend+1,f
  4821  08EE  0AF2               	incf	___awmod@dividend,f
  4822  08EF  1903               	skipnz
  4823  08F0  0AF3               	incf	___awmod@dividend+1,f
  4824  08F1                     l2506:
  4825  08F1  01F6               	clrf	___awmod@sign
  4826  08F2  0AF6               	incf	___awmod@sign,f
  4827  08F3                     l2508:
  4828  08F3  1FF1               	btfss	___awmod@divisor+1,7
  4829  08F4  28F6               	goto	u3211
  4830  08F5  28F7               	goto	u3210
  4831  08F6                     u3211:
  4832  08F6  28FC               	goto	l2512
  4833  08F7                     u3210:
  4834  08F7                     l2510:
  4835  08F7  09F0               	comf	___awmod@divisor,f
  4836  08F8  09F1               	comf	___awmod@divisor+1,f
  4837  08F9  0AF0               	incf	___awmod@divisor,f
  4838  08FA  1903               	skipnz
  4839  08FB  0AF1               	incf	___awmod@divisor+1,f
  4840  08FC                     l2512:
  4841  08FC  0870               	movf	___awmod@divisor,w
  4842  08FD  0471               	iorwf	___awmod@divisor+1,w
  4843  08FE  1903               	btfsc	3,2
  4844  08FF  2901               	goto	u3221
  4845  0900  2902               	goto	u3220
  4846  0901                     u3221:
  4847  0901  2931               	goto	l2530
  4848  0902                     u3220:
  4849  0902                     l2514:
  4850  0902  01F5               	clrf	___awmod@counter
  4851  0903  0AF5               	incf	___awmod@counter,f
  4852  0904  2910               	goto	l2520
  4853  0905                     l2516:
  4854  0905  3001               	movlw	1
  4855  0906                     u3235:
  4856  0906  1003               	clrc
  4857  0907  0DF0               	rlf	___awmod@divisor,f
  4858  0908  0DF1               	rlf	___awmod@divisor+1,f
  4859  0909  3EFF               	addlw	-1
  4860  090A  1D03               	skipz
  4861  090B  2906               	goto	u3235
  4862  090C                     l2518:
  4863  090C  3001               	movlw	1
  4864  090D  00F4               	movwf	??___awmod
  4865  090E  0874               	movf	??___awmod,w
  4866  090F  07F5               	addwf	___awmod@counter,f
  4867  0910                     l2520:
  4868  0910  1FF1               	btfss	___awmod@divisor+1,7
  4869  0911  2913               	goto	u3241
  4870  0912  2914               	goto	u3240
  4871  0913                     u3241:
  4872  0913  2905               	goto	l2516
  4873  0914                     u3240:
  4874  0914                     l2522:
  4875  0914  0871               	movf	___awmod@divisor+1,w
  4876  0915  0273               	subwf	___awmod@dividend+1,w
  4877  0916  1D03               	skipz
  4878  0917  291A               	goto	u3255
  4879  0918  0870               	movf	___awmod@divisor,w
  4880  0919  0272               	subwf	___awmod@dividend,w
  4881  091A                     u3255:
  4882  091A  1C03               	skipc
  4883  091B  291D               	goto	u3251
  4884  091C  291E               	goto	u3250
  4885  091D                     u3251:
  4886  091D  2924               	goto	l2526
  4887  091E                     u3250:
  4888  091E                     l2524:
  4889  091E  0870               	movf	___awmod@divisor,w
  4890  091F  02F2               	subwf	___awmod@dividend,f
  4891  0920  0871               	movf	___awmod@divisor+1,w
  4892  0921  1C03               	skipc
  4893  0922  03F3               	decf	___awmod@dividend+1,f
  4894  0923  02F3               	subwf	___awmod@dividend+1,f
  4895  0924                     l2526:
  4896  0924  3001               	movlw	1
  4897  0925                     u3265:
  4898  0925  1003               	clrc
  4899  0926  0CF1               	rrf	___awmod@divisor+1,f
  4900  0927  0CF0               	rrf	___awmod@divisor,f
  4901  0928  3EFF               	addlw	-1
  4902  0929  1D03               	skipz
  4903  092A  2925               	goto	u3265
  4904  092B                     l2528:
  4905  092B  3001               	movlw	1
  4906  092C  02F5               	subwf	___awmod@counter,f
  4907  092D  1D03               	btfss	3,2
  4908  092E  2930               	goto	u3271
  4909  092F  2931               	goto	u3270
  4910  0930                     u3271:
  4911  0930  2914               	goto	l2522
  4912  0931                     u3270:
  4913  0931                     l2530:
  4914  0931  0876               	movf	___awmod@sign,w
  4915  0932  1903               	btfsc	3,2
  4916  0933  2935               	goto	u3281
  4917  0934  2936               	goto	u3280
  4918  0935                     u3281:
  4919  0935  293B               	goto	l2534
  4920  0936                     u3280:
  4921  0936                     l2532:
  4922  0936  09F2               	comf	___awmod@dividend,f
  4923  0937  09F3               	comf	___awmod@dividend+1,f
  4924  0938  0AF2               	incf	___awmod@dividend,f
  4925  0939  1903               	skipnz
  4926  093A  0AF3               	incf	___awmod@dividend+1,f
  4927  093B                     l2534:
  4928  093B  0873               	movf	___awmod@dividend+1,w
  4929  093C  00F1               	movwf	?___awmod+1
  4930  093D  0872               	movf	___awmod@dividend,w
  4931  093E  00F0               	movwf	?___awmod
  4932  093F                     l529:
  4933  093F  0008               	return
  4934  0940                     __end_of___awmod:
  4935                           
  4936                           	psect	text4
  4937  1BC5                     __ptext4:	
  4938 ;; *************** function ___awdiv *****************
  4939 ;; Defined at:
  4940 ;;		line 5 in file "C:\Program Files\Microchip\xc8\v2.35\pic\sources\c90\common\awdiv.c"
  4941 ;; Parameters:    Size  Location     Type
  4942 ;;  divisor         2    7[COMMON] int 
  4943 ;;  dividend        2    9[COMMON] int 
  4944 ;; Auto vars:     Size  Location     Type
  4945 ;;  quotient        2    2[BANK0 ] int 
  4946 ;;  sign            1    1[BANK0 ] unsigned char 
  4947 ;;  counter         1    0[BANK0 ] unsigned char 
  4948 ;; Return value:  Size  Location     Type
  4949 ;;                  2    7[COMMON] int 
  4950 ;; Registers used:
  4951 ;;		wreg, status,2, status,0
  4952 ;; Tracked objects:
  4953 ;;		On entry : 0/0
  4954 ;;		On exit  : 0/0
  4955 ;;		Unchanged: 0/0
  4956 ;; Data sizes:     COMMON   BANK0   BANK1   BANK3   BANK2
  4957 ;;      Params:         4       0       0       0       0
  4958 ;;      Locals:         0       4       0       0       0
  4959 ;;      Temps:          1       0       0       0       0
  4960 ;;      Totals:         5       4       0       0       0
  4961 ;;Total ram usage:        9 bytes
  4962 ;; Hardware stack levels used: 1
  4963 ;; This function calls:
  4964 ;;		Nothing
  4965 ;; This function is called by:
  4966 ;;		_scale
  4967 ;;		_sprintf
  4968 ;; This function uses a non-reentrant model
  4969 ;;
  4970                           
  4971  1BC5                     ___awdiv:	
  4972                           ;psect for function ___awdiv
  4973                           
  4974  1BC5                     l2456:	
  4975                           ;incstack = 0
  4976                           ; Regs used in ___awdiv: [wreg+status,2+status,0]
  4977                           
  4978  1BC5  1283               	bcf	3,5	;RP0=0, select bank0
  4979  1BC6  1303               	bcf	3,6	;RP1=0, select bank0
  4980  1BC7  01A1               	clrf	___awdiv@sign
  4981  1BC8                     l2458:
  4982  1BC8  1FF8               	btfss	___awdiv@divisor+1,7
  4983  1BC9  2BCB               	goto	u3101
  4984  1BCA  2BCC               	goto	u3100
  4985  1BCB                     u3101:
  4986  1BCB  2BD3               	goto	l2464
  4987  1BCC                     u3100:
  4988  1BCC                     l2460:
  4989  1BCC  09F7               	comf	___awdiv@divisor,f
  4990  1BCD  09F8               	comf	___awdiv@divisor+1,f
  4991  1BCE  0AF7               	incf	___awdiv@divisor,f
  4992  1BCF  1903               	skipnz
  4993  1BD0  0AF8               	incf	___awdiv@divisor+1,f
  4994  1BD1                     l2462:
  4995  1BD1  01A1               	clrf	___awdiv@sign
  4996  1BD2  0AA1               	incf	___awdiv@sign,f
  4997  1BD3                     l2464:
  4998  1BD3  1FFA               	btfss	___awdiv@dividend+1,7
  4999  1BD4  2BD6               	goto	u3111
  5000  1BD5  2BD7               	goto	u3110
  5001  1BD6                     u3111:
  5002  1BD6  2BE0               	goto	l2470
  5003  1BD7                     u3110:
  5004  1BD7                     l2466:
  5005  1BD7  09F9               	comf	___awdiv@dividend,f
  5006  1BD8  09FA               	comf	___awdiv@dividend+1,f
  5007  1BD9  0AF9               	incf	___awdiv@dividend,f
  5008  1BDA  1903               	skipnz
  5009  1BDB  0AFA               	incf	___awdiv@dividend+1,f
  5010  1BDC                     l2468:
  5011  1BDC  3001               	movlw	1
  5012  1BDD  00FB               	movwf	??___awdiv
  5013  1BDE  087B               	movf	??___awdiv,w
  5014  1BDF  06A1               	xorwf	___awdiv@sign,f
  5015  1BE0                     l2470:
  5016  1BE0  01A2               	clrf	___awdiv@quotient
  5017  1BE1  01A3               	clrf	___awdiv@quotient+1
  5018  1BE2                     l2472:
  5019  1BE2  0877               	movf	___awdiv@divisor,w
  5020  1BE3  0478               	iorwf	___awdiv@divisor+1,w
  5021  1BE4  1903               	btfsc	3,2
  5022  1BE5  2BE7               	goto	u3121
  5023  1BE6  2BE8               	goto	u3120
  5024  1BE7                     u3121:
  5025  1BE7  2C1F               	goto	l2492
  5026  1BE8                     u3120:
  5027  1BE8                     l2474:
  5028  1BE8  01A0               	clrf	___awdiv@counter
  5029  1BE9  0AA0               	incf	___awdiv@counter,f
  5030  1BEA  2BF6               	goto	l2480
  5031  1BEB                     l2476:
  5032  1BEB  3001               	movlw	1
  5033  1BEC                     u3135:
  5034  1BEC  1003               	clrc
  5035  1BED  0DF7               	rlf	___awdiv@divisor,f
  5036  1BEE  0DF8               	rlf	___awdiv@divisor+1,f
  5037  1BEF  3EFF               	addlw	-1
  5038  1BF0  1D03               	skipz
  5039  1BF1  2BEC               	goto	u3135
  5040  1BF2                     l2478:
  5041  1BF2  3001               	movlw	1
  5042  1BF3  00FB               	movwf	??___awdiv
  5043  1BF4  087B               	movf	??___awdiv,w
  5044  1BF5  07A0               	addwf	___awdiv@counter,f
  5045  1BF6                     l2480:
  5046  1BF6  1FF8               	btfss	___awdiv@divisor+1,7
  5047  1BF7  2BF9               	goto	u3141
  5048  1BF8  2BFA               	goto	u3140
  5049  1BF9                     u3141:
  5050  1BF9  2BEB               	goto	l2476
  5051  1BFA                     u3140:
  5052  1BFA                     l2482:
  5053  1BFA  3001               	movlw	1
  5054  1BFB                     u3155:
  5055  1BFB  1003               	clrc
  5056  1BFC  0DA2               	rlf	___awdiv@quotient,f
  5057  1BFD  0DA3               	rlf	___awdiv@quotient+1,f
  5058  1BFE  3EFF               	addlw	-1
  5059  1BFF  1D03               	skipz
  5060  1C00  2BFB               	goto	u3155
  5061  1C01  0878               	movf	___awdiv@divisor+1,w
  5062  1C02  027A               	subwf	___awdiv@dividend+1,w
  5063  1C03  1D03               	skipz
  5064  1C04  2C07               	goto	u3165
  5065  1C05  0877               	movf	___awdiv@divisor,w
  5066  1C06  0279               	subwf	___awdiv@dividend,w
  5067  1C07                     u3165:
  5068  1C07  1C03               	skipc
  5069  1C08  2C0A               	goto	u3161
  5070  1C09  2C0B               	goto	u3160
  5071  1C0A                     u3161:
  5072  1C0A  2C12               	goto	l2488
  5073  1C0B                     u3160:
  5074  1C0B                     l2484:
  5075  1C0B  0877               	movf	___awdiv@divisor,w
  5076  1C0C  02F9               	subwf	___awdiv@dividend,f
  5077  1C0D  0878               	movf	___awdiv@divisor+1,w
  5078  1C0E  1C03               	skipc
  5079  1C0F  03FA               	decf	___awdiv@dividend+1,f
  5080  1C10  02FA               	subwf	___awdiv@dividend+1,f
  5081  1C11                     l2486:
  5082  1C11  1422               	bsf	___awdiv@quotient,0
  5083  1C12                     l2488:
  5084  1C12  3001               	movlw	1
  5085  1C13                     u3175:
  5086  1C13  1003               	clrc
  5087  1C14  0CF8               	rrf	___awdiv@divisor+1,f
  5088  1C15  0CF7               	rrf	___awdiv@divisor,f
  5089  1C16  3EFF               	addlw	-1
  5090  1C17  1D03               	skipz
  5091  1C18  2C13               	goto	u3175
  5092  1C19                     l2490:
  5093  1C19  3001               	movlw	1
  5094  1C1A  02A0               	subwf	___awdiv@counter,f
  5095  1C1B  1D03               	btfss	3,2
  5096  1C1C  2C1E               	goto	u3181
  5097  1C1D  2C1F               	goto	u3180
  5098  1C1E                     u3181:
  5099  1C1E  2BFA               	goto	l2482
  5100  1C1F                     u3180:
  5101  1C1F                     l2492:
  5102  1C1F  0821               	movf	___awdiv@sign,w
  5103  1C20  1903               	btfsc	3,2
  5104  1C21  2C23               	goto	u3191
  5105  1C22  2C24               	goto	u3190
  5106  1C23                     u3191:
  5107  1C23  2C29               	goto	l2496
  5108  1C24                     u3190:
  5109  1C24                     l2494:
  5110  1C24  09A2               	comf	___awdiv@quotient,f
  5111  1C25  09A3               	comf	___awdiv@quotient+1,f
  5112  1C26  0AA2               	incf	___awdiv@quotient,f
  5113  1C27  1903               	skipnz
  5114  1C28  0AA3               	incf	___awdiv@quotient+1,f
  5115  1C29                     l2496:
  5116  1C29  0823               	movf	___awdiv@quotient+1,w
  5117  1C2A  00F8               	movwf	?___awdiv+1
  5118  1C2B  0822               	movf	___awdiv@quotient,w
  5119  1C2C  00F7               	movwf	?___awdiv
  5120  1C2D                     l516:
  5121  1C2D  0008               	return
  5122  1C2E                     __end_of___awdiv:
  5123                           
  5124                           	psect	text5
  5125  1834                     __ptext5:	
  5126 ;; *************** function _isdigit *****************
  5127 ;; Defined at:
  5128 ;;		line 8 in file "C:\Program Files\Microchip\xc8\v2.35\pic\sources\c90\common\isdigit.c"
  5129 ;; Parameters:    Size  Location     Type
  5130 ;;  c               1    wreg     unsigned char 
  5131 ;; Auto vars:     Size  Location     Type
  5132 ;;  c               1    1[COMMON] unsigned char 
  5133 ;; Return value:  Size  Location     Type
  5134 ;;		None               void
  5135 ;; Registers used:
  5136 ;;		wreg, status,2, status,0
  5137 ;; Tracked objects:
  5138 ;;		On entry : 0/0
  5139 ;;		On exit  : 0/0
  5140 ;;		Unchanged: 0/0
  5141 ;; Data sizes:     COMMON   BANK0   BANK1   BANK3   BANK2
  5142 ;;      Params:         0       0       0       0       0
  5143 ;;      Locals:         2       0       0       0       0
  5144 ;;      Temps:          0       0       0       0       0
  5145 ;;      Totals:         2       0       0       0       0
  5146 ;;Total ram usage:        2 bytes
  5147 ;; Hardware stack levels used: 1
  5148 ;; This function calls:
  5149 ;;		Nothing
  5150 ;; This function is called by:
  5151 ;;		_sprintf
  5152 ;; This function uses a non-reentrant model
  5153 ;;
  5154                           
  5155  1834                     _isdigit:	
  5156                           ;psect for function _isdigit
  5157                           
  5158                           
  5159                           ;incstack = 0
  5160                           ; Regs used in _isdigit: [wreg+status,2+status,0]
  5161                           ;isdigit@c stored from wreg
  5162  1834  00F1               	movwf	isdigit@c
  5163  1835                     l3014:
  5164  1835  01F0               	clrf	_isdigit$684
  5165  1836                     l3016:
  5166  1836  303A               	movlw	58
  5167  1837  0271               	subwf	isdigit@c,w
  5168  1838  1803               	skipnc
  5169  1839  283B               	goto	u4531
  5170  183A  283C               	goto	u4530
  5171  183B                     u4531:
  5172  183B  2844               	goto	l3022
  5173  183C                     u4530:
  5174  183C                     l3018:
  5175  183C  3030               	movlw	48
  5176  183D  0271               	subwf	isdigit@c,w
  5177  183E  1C03               	skipc
  5178  183F  2841               	goto	u4541
  5179  1840  2842               	goto	u4540
  5180  1841                     u4541:
  5181  1841  2844               	goto	l3022
  5182  1842                     u4540:
  5183  1842                     l3020:
  5184  1842  01F0               	clrf	_isdigit$684
  5185  1843  0AF0               	incf	_isdigit$684,f
  5186  1844                     l3022:
  5187  1844  0C70               	rrf	_isdigit$684,w
  5188  1845                     l850:
  5189  1845  0008               	return
  5190  1846                     __end_of_isdigit:
  5191                           
  5192                           	psect	text6
  5193  10EB                     __ptext6:	
  5194 ;; *************** function _fround *****************
  5195 ;; Defined at:
  5196 ;;		line 417 in file "C:\Program Files\Microchip\xc8\v2.35\pic\sources\c90\common\doprnt.c"
  5197 ;; Parameters:    Size  Location     Type
  5198 ;;  prec            1    wreg     unsigned char 
  5199 ;; Auto vars:     Size  Location     Type
  5200 ;;  prec            1   51[BANK0 ] unsigned char 
  5201 ;; Return value:  Size  Location     Type
  5202 ;;                  4   32[BANK0 ] unsigned char 
  5203 ;; Registers used:
  5204 ;;		wreg, fsr0l, fsr0h, status,2, status,0, btemp+1, pclath, cstack
  5205 ;; Tracked objects:
  5206 ;;		On entry : 0/0
  5207 ;;		On exit  : 0/0
  5208 ;;		Unchanged: 0/0
  5209 ;; Data sizes:     COMMON   BANK0   BANK1   BANK3   BANK2
  5210 ;;      Params:         0       4       0       0       0
  5211 ;;      Locals:         0       9       0       0       0
  5212 ;;      Temps:          0       7       0       0       0
  5213 ;;      Totals:         0      20       0       0       0
  5214 ;;Total ram usage:       20 bytes
  5215 ;; Hardware stack levels used: 1
  5216 ;; Hardware stack levels required when called: 2
  5217 ;; This function calls:
  5218 ;;		___flmul
  5219 ;;		___lwdiv
  5220 ;;		___lwmod
  5221 ;; This function is called by:
  5222 ;;		_sprintf
  5223 ;; This function uses a non-reentrant model
  5224 ;;
  5225                           
  5226  10EB                     _fround:	
  5227                           ;psect for function _fround
  5228                           
  5229                           
  5230                           ;incstack = 0
  5231                           ; Regs used in _fround: [wreg-fsr0h+status,2+status,0+btemp+1+pclath+cstack]
  5232                           ;fround@prec stored from wreg
  5233  10EB  1283               	bcf	3,5	;RP0=0, select bank0
  5234  10EC  1303               	bcf	3,6	;RP1=0, select bank0
  5235  10ED  00D3               	movwf	fround@prec
  5236  10EE                     l2956:
  5237                           
  5238                           ;C:\Program Files\Microchip\xc8\v2.35\pic\sources\c90\common\doprnt.c: 417: fround(unsig
      +                          ned char prec);C:\Program Files\Microchip\xc8\v2.35\pic\sources\c90\common\doprnt.c: 418
      +                          : {;C:\Program Files\Microchip\xc8\v2.35\pic\sources\c90\common\doprnt.c: 421:  if(prec>
      +                          =110)
  5239  10EE  306E               	movlw	110
  5240  10EF  0253               	subwf	fround@prec,w
  5241  10F0  1C03               	skipc
  5242  10F1  28F3               	goto	u4281
  5243  10F2  28F4               	goto	u4280
  5244  10F3                     u4281:
  5245  10F3  2A01               	goto	l2964
  5246  10F4                     u4280:
  5247  10F4                     l2958:
  5248                           
  5249                           ;C:\Program Files\Microchip\xc8\v2.35\pic\sources\c90\common\doprnt.c: 422:   return 0.5
      +                           * _npowers_[prec/100U+18U] * _npowers_[(prec%100U)/10U+9U] * _npowers_[prec%10U];
  5250  10F4  303F               	movlw	63
  5251  10F5  00A9               	movwf	___flmul@b+3
  5252  10F6  3000               	movlw	0
  5253  10F7  00A8               	movwf	___flmul@b+2
  5254  10F8  3000               	movlw	0
  5255  10F9  00A7               	movwf	___flmul@b+1
  5256  10FA  3000               	movlw	0
  5257  10FB  00A6               	movwf	___flmul@b
  5258  10FC  3064               	movlw	100
  5259  10FD  00F6               	movwf	___lwdiv@divisor
  5260  10FE  3000               	movlw	0
  5261  10FF  00F7               	movwf	___lwdiv@divisor+1
  5262  1100  0853               	movf	fround@prec,w
  5263  1101  00C4               	movwf	??_fround
  5264  1102  01C5               	clrf	??_fround+1
  5265  1103  0844               	movf	??_fround,w
  5266  1104  00F8               	movwf	___lwdiv@dividend
  5267  1105  0845               	movf	??_fround+1,w
  5268  1106  00F9               	movwf	___lwdiv@dividend+1
  5269  1107  120A  118A  200C  160A  118A  	fcall	___lwdiv
  5270  110C  0876               	movf	?___lwdiv,w
  5271  110D  1283               	bcf	3,5	;RP0=0, select bank0
  5272  110E  1303               	bcf	3,6	;RP1=0, select bank0
  5273  110F  00C6               	movwf	??_fround+2
  5274  1110  3001               	movlw	1
  5275  1111                     u4295:
  5276  1111  1003               	clrc
  5277  1112  0DC6               	rlf	??_fround+2,f
  5278  1113  3EFF               	addlw	-1
  5279  1114  1D03               	skipz
  5280  1115  2911               	goto	u4295
  5281  1116  1003               	clrc
  5282  1117  0D46               	rlf	??_fround+2,w
  5283  1118  3E7D               	addlw	low (((__npowers_-__stringbase)| (0+32768)+72))
  5284  1119  0084               	movwf	4
  5285  111A  120A  158A  200A  160A  118A  	fcall	stringdir
  5286  111F  00C7               	movwf	??_fround+3
  5287  1120  120A  158A  200A  160A  118A  	fcall	stringdir
  5288  1125  00C8               	movwf	??_fround+4
  5289  1126  120A  158A  200A  160A  118A  	fcall	stringdir
  5290  112B  00C9               	movwf	??_fround+5
  5291  112C  120A  158A  200A  160A  118A  	fcall	stringdir
  5292  1131  00CA               	movwf	??_fround+6
  5293  1132  084A               	movf	??_fround+6,w
  5294  1133  00AD               	movwf	___flmul@a+3
  5295  1134  0849               	movf	??_fround+5,w
  5296  1135  00AC               	movwf	___flmul@a+2
  5297  1136  0848               	movf	??_fround+4,w
  5298  1137  00AB               	movwf	___flmul@a+1
  5299  1138  0847               	movf	??_fround+3,w
  5300  1139  00AA               	movwf	___flmul@a
  5301  113A  120A  158A  249F  160A  118A  	fcall	___flmul
  5302  113F  1283               	bcf	3,5	;RP0=0, select bank0
  5303  1140  1303               	bcf	3,6	;RP1=0, select bank0
  5304  1141  0829               	movf	?___flmul+3,w
  5305  1142  00D2               	movwf	_fround$871+3
  5306  1143  0828               	movf	?___flmul+2,w
  5307  1144  00D1               	movwf	_fround$871+2
  5308  1145  0827               	movf	?___flmul+1,w
  5309  1146  00D0               	movwf	_fround$871+1
  5310  1147  0826               	movf	?___flmul,w
  5311  1148  00CF               	movwf	_fround$871
  5312                           
  5313                           ;C:\Program Files\Microchip\xc8\v2.35\pic\sources\c90\common\doprnt.c: 422:   return 0.5
      +                           * _npowers_[prec/100U+18U] * _npowers_[(prec%100U)/10U+9U] * _npowers_[prec%10U];
  5314  1149  300A               	movlw	10
  5315  114A  00F6               	movwf	___lwdiv@divisor
  5316  114B  3000               	movlw	0
  5317  114C  00F7               	movwf	___lwdiv@divisor+1
  5318  114D  0853               	movf	fround@prec,w
  5319  114E  00C4               	movwf	??_fround
  5320  114F  01C5               	clrf	??_fround+1
  5321  1150  0844               	movf	??_fround,w
  5322  1151  00F2               	movwf	___lwmod@dividend
  5323  1152  0845               	movf	??_fround+1,w
  5324  1153  00F3               	movwf	___lwmod@dividend+1
  5325  1154  3064               	movlw	100
  5326  1155  00F0               	movwf	___lwmod@divisor
  5327  1156  3000               	movlw	0
  5328  1157  00F1               	movwf	___lwmod@divisor+1
  5329  1158  160A  158A  2245  160A  118A  	fcall	___lwmod
  5330  115D  0871               	movf	?___lwmod+1,w
  5331  115E  00F9               	movwf	___lwdiv@dividend+1
  5332  115F  0870               	movf	?___lwmod,w
  5333  1160  00F8               	movwf	___lwdiv@dividend
  5334  1161  120A  118A  200C  160A  118A  	fcall	___lwdiv
  5335  1166  0876               	movf	?___lwdiv,w
  5336  1167  1283               	bcf	3,5	;RP0=0, select bank0
  5337  1168  1303               	bcf	3,6	;RP1=0, select bank0
  5338  1169  00C6               	movwf	??_fround+2
  5339  116A  3001               	movlw	1
  5340  116B                     u4305:
  5341  116B  1003               	clrc
  5342  116C  0DC6               	rlf	??_fround+2,f
  5343  116D  3EFF               	addlw	-1
  5344  116E  1D03               	skipz
  5345  116F  296B               	goto	u4305
  5346  1170  1003               	clrc
  5347  1171  0D46               	rlf	??_fround+2,w
  5348  1172  3E59               	addlw	low (((__npowers_-__stringbase)| (0+32768)+36))
  5349  1173  0084               	movwf	4
  5350  1174  120A  158A  200A  160A  118A  	fcall	stringdir
  5351  1179  00C7               	movwf	??_fround+3
  5352  117A  120A  158A  200A  160A  118A  	fcall	stringdir
  5353  117F  00C8               	movwf	??_fround+4
  5354  1180  120A  158A  200A  160A  118A  	fcall	stringdir
  5355  1185  00C9               	movwf	??_fround+5
  5356  1186  120A  158A  200A  160A  118A  	fcall	stringdir
  5357  118B  00CA               	movwf	??_fround+6
  5358  118C  084A               	movf	??_fround+6,w
  5359  118D  00A9               	movwf	___flmul@b+3
  5360  118E  0849               	movf	??_fround+5,w
  5361  118F  00A8               	movwf	___flmul@b+2
  5362  1190  0848               	movf	??_fround+4,w
  5363  1191  00A7               	movwf	___flmul@b+1
  5364  1192  0847               	movf	??_fround+3,w
  5365  1193  00A6               	movwf	___flmul@b
  5366  1194  0852               	movf	_fround$871+3,w
  5367  1195  00AD               	movwf	___flmul@a+3
  5368  1196  0851               	movf	_fround$871+2,w
  5369  1197  00AC               	movwf	___flmul@a+2
  5370  1198  0850               	movf	_fround$871+1,w
  5371  1199  00AB               	movwf	___flmul@a+1
  5372  119A  084F               	movf	_fround$871,w
  5373  119B  00AA               	movwf	___flmul@a
  5374  119C  120A  158A  249F  160A  118A  	fcall	___flmul
  5375  11A1  1283               	bcf	3,5	;RP0=0, select bank0
  5376  11A2  1303               	bcf	3,6	;RP1=0, select bank0
  5377  11A3  0829               	movf	?___flmul+3,w
  5378  11A4  00CE               	movwf	_fround$872+3
  5379  11A5  0828               	movf	?___flmul+2,w
  5380  11A6  00CD               	movwf	_fround$872+2
  5381  11A7  0827               	movf	?___flmul+1,w
  5382  11A8  00CC               	movwf	_fround$872+1
  5383  11A9  0826               	movf	?___flmul,w
  5384  11AA  00CB               	movwf	_fround$872
  5385                           
  5386                           ;C:\Program Files\Microchip\xc8\v2.35\pic\sources\c90\common\doprnt.c: 422:   return 0.5
      +                           * _npowers_[prec/100U+18U] * _npowers_[(prec%100U)/10U+9U] * _npowers_[prec%10U];
  5387  11AB  300A               	movlw	10
  5388  11AC  00F0               	movwf	___lwmod@divisor
  5389  11AD  3000               	movlw	0
  5390  11AE  00F1               	movwf	___lwmod@divisor+1
  5391  11AF  0853               	movf	fround@prec,w
  5392  11B0  00C4               	movwf	??_fround
  5393  11B1  01C5               	clrf	??_fround+1
  5394  11B2  0844               	movf	??_fround,w
  5395  11B3  00F2               	movwf	___lwmod@dividend
  5396  11B4  0845               	movf	??_fround+1,w
  5397  11B5  00F3               	movwf	___lwmod@dividend+1
  5398  11B6  160A  158A  2245  160A  118A  	fcall	___lwmod
  5399  11BB  0870               	movf	?___lwmod,w
  5400  11BC  1283               	bcf	3,5	;RP0=0, select bank0
  5401  11BD  1303               	bcf	3,6	;RP1=0, select bank0
  5402  11BE  00C6               	movwf	??_fround+2
  5403  11BF  3001               	movlw	1
  5404  11C0                     u4315:
  5405  11C0  1003               	clrc
  5406  11C1  0DC6               	rlf	??_fround+2,f
  5407  11C2  3EFF               	addlw	-1
  5408  11C3  1D03               	skipz
  5409  11C4  29C0               	goto	u4315
  5410  11C5  1003               	clrc
  5411  11C6  0D46               	rlf	??_fround+2,w
  5412  11C7  3E35               	addlw	low ((__npowers_-__stringbase)| (0+32768))
  5413  11C8  0084               	movwf	4
  5414  11C9  120A  158A  200A  160A  118A  	fcall	stringdir
  5415  11CE  00C7               	movwf	??_fround+3
  5416  11CF  120A  158A  200A  160A  118A  	fcall	stringdir
  5417  11D4  00C8               	movwf	??_fround+4
  5418  11D5  120A  158A  200A  160A  118A  	fcall	stringdir
  5419  11DA  00C9               	movwf	??_fround+5
  5420  11DB  120A  158A  200A  160A  118A  	fcall	stringdir
  5421  11E0  00CA               	movwf	??_fround+6
  5422  11E1  084A               	movf	??_fround+6,w
  5423  11E2  00A9               	movwf	___flmul@b+3
  5424  11E3  0849               	movf	??_fround+5,w
  5425  11E4  00A8               	movwf	___flmul@b+2
  5426  11E5  0848               	movf	??_fround+4,w
  5427  11E6  00A7               	movwf	___flmul@b+1
  5428  11E7  0847               	movf	??_fround+3,w
  5429  11E8  00A6               	movwf	___flmul@b
  5430  11E9  084E               	movf	_fround$872+3,w
  5431  11EA  00AD               	movwf	___flmul@a+3
  5432  11EB  084D               	movf	_fround$872+2,w
  5433  11EC  00AC               	movwf	___flmul@a+2
  5434  11ED  084C               	movf	_fround$872+1,w
  5435  11EE  00AB               	movwf	___flmul@a+1
  5436  11EF  084B               	movf	_fround$872,w
  5437  11F0  00AA               	movwf	___flmul@a
  5438  11F1  120A  158A  249F  160A  118A  	fcall	___flmul
  5439  11F6  1283               	bcf	3,5	;RP0=0, select bank0
  5440  11F7  1303               	bcf	3,6	;RP1=0, select bank0
  5441  11F8  0829               	movf	?___flmul+3,w
  5442  11F9  00C3               	movwf	?_fround+3
  5443  11FA  0828               	movf	?___flmul+2,w
  5444  11FB  00C2               	movwf	?_fround+2
  5445  11FC  0827               	movf	?___flmul+1,w
  5446  11FD  00C1               	movwf	?_fround+1
  5447  11FE  0826               	movf	?___flmul,w
  5448  11FF  00C0               	movwf	?_fround
  5449  1200  2AF5               	goto	l286
  5450  1201                     l2964:
  5451  1201  300B               	movlw	11
  5452  1202  0253               	subwf	fround@prec,w
  5453  1203  1C03               	skipc
  5454  1204  2A06               	goto	u4321
  5455  1205  2A07               	goto	u4320
  5456  1206                     u4321:
  5457  1206  2AB2               	goto	l2970
  5458  1207                     u4320:
  5459  1207                     l2966:
  5460                           
  5461                           ;C:\Program Files\Microchip\xc8\v2.35\pic\sources\c90\common\doprnt.c: 424:   return 0.5
      +                           * _npowers_[prec/10U+9U] * _npowers_[prec%10U];
  5462  1207  303F               	movlw	63
  5463  1208  00A9               	movwf	___flmul@b+3
  5464  1209  3000               	movlw	0
  5465  120A  00A8               	movwf	___flmul@b+2
  5466  120B  3000               	movlw	0
  5467  120C  00A7               	movwf	___flmul@b+1
  5468  120D  3000               	movlw	0
  5469  120E  00A6               	movwf	___flmul@b
  5470  120F  300A               	movlw	10
  5471  1210  00F6               	movwf	___lwdiv@divisor
  5472  1211  3000               	movlw	0
  5473  1212  00F7               	movwf	___lwdiv@divisor+1
  5474  1213  0853               	movf	fround@prec,w
  5475  1214  00C4               	movwf	??_fround
  5476  1215  01C5               	clrf	??_fround+1
  5477  1216  0844               	movf	??_fround,w
  5478  1217  00F8               	movwf	___lwdiv@dividend
  5479  1218  0845               	movf	??_fround+1,w
  5480  1219  00F9               	movwf	___lwdiv@dividend+1
  5481  121A  120A  118A  200C  160A  118A  	fcall	___lwdiv
  5482  121F  0876               	movf	?___lwdiv,w
  5483  1220  1283               	bcf	3,5	;RP0=0, select bank0
  5484  1221  1303               	bcf	3,6	;RP1=0, select bank0
  5485  1222  00C6               	movwf	??_fround+2
  5486  1223  3001               	movlw	1
  5487  1224                     u4335:
  5488  1224  1003               	clrc
  5489  1225  0DC6               	rlf	??_fround+2,f
  5490  1226  3EFF               	addlw	-1
  5491  1227  1D03               	skipz
  5492  1228  2A24               	goto	u4335
  5493  1229  1003               	clrc
  5494  122A  0D46               	rlf	??_fround+2,w
  5495  122B  3E59               	addlw	low (((__npowers_-__stringbase)| (0+32768)+36))
  5496  122C  0084               	movwf	4
  5497  122D  120A  158A  200A  160A  118A  	fcall	stringdir
  5498  1232  00C7               	movwf	??_fround+3
  5499  1233  120A  158A  200A  160A  118A  	fcall	stringdir
  5500  1238  00C8               	movwf	??_fround+4
  5501  1239  120A  158A  200A  160A  118A  	fcall	stringdir
  5502  123E  00C9               	movwf	??_fround+5
  5503  123F  120A  158A  200A  160A  118A  	fcall	stringdir
  5504  1244  00CA               	movwf	??_fround+6
  5505  1245  084A               	movf	??_fround+6,w
  5506  1246  00AD               	movwf	___flmul@a+3
  5507  1247  0849               	movf	??_fround+5,w
  5508  1248  00AC               	movwf	___flmul@a+2
  5509  1249  0848               	movf	??_fround+4,w
  5510  124A  00AB               	movwf	___flmul@a+1
  5511  124B  0847               	movf	??_fround+3,w
  5512  124C  00AA               	movwf	___flmul@a
  5513  124D  120A  158A  249F  160A  118A  	fcall	___flmul
  5514  1252  1283               	bcf	3,5	;RP0=0, select bank0
  5515  1253  1303               	bcf	3,6	;RP1=0, select bank0
  5516  1254  0829               	movf	?___flmul+3,w
  5517  1255  00D2               	movwf	_fround$871+3
  5518  1256  0828               	movf	?___flmul+2,w
  5519  1257  00D1               	movwf	_fround$871+2
  5520  1258  0827               	movf	?___flmul+1,w
  5521  1259  00D0               	movwf	_fround$871+1
  5522  125A  0826               	movf	?___flmul,w
  5523  125B  00CF               	movwf	_fround$871
  5524                           
  5525                           ;C:\Program Files\Microchip\xc8\v2.35\pic\sources\c90\common\doprnt.c: 424:   return 0.5
      +                           * _npowers_[prec/10U+9U] * _npowers_[prec%10U];
  5526  125C  300A               	movlw	10
  5527  125D  00F0               	movwf	___lwmod@divisor
  5528  125E  3000               	movlw	0
  5529  125F  00F1               	movwf	___lwmod@divisor+1
  5530  1260  0853               	movf	fround@prec,w
  5531  1261  00C4               	movwf	??_fround
  5532  1262  01C5               	clrf	??_fround+1
  5533  1263  0844               	movf	??_fround,w
  5534  1264  00F2               	movwf	___lwmod@dividend
  5535  1265  0845               	movf	??_fround+1,w
  5536  1266  00F3               	movwf	___lwmod@dividend+1
  5537  1267  160A  158A  2245  160A  118A  	fcall	___lwmod
  5538  126C  0870               	movf	?___lwmod,w
  5539  126D  1283               	bcf	3,5	;RP0=0, select bank0
  5540  126E  1303               	bcf	3,6	;RP1=0, select bank0
  5541  126F  00C6               	movwf	??_fround+2
  5542  1270  3001               	movlw	1
  5543  1271                     u4345:
  5544  1271  1003               	clrc
  5545  1272  0DC6               	rlf	??_fround+2,f
  5546  1273  3EFF               	addlw	-1
  5547  1274  1D03               	skipz
  5548  1275  2A71               	goto	u4345
  5549  1276  1003               	clrc
  5550  1277  0D46               	rlf	??_fround+2,w
  5551  1278  3E35               	addlw	low ((__npowers_-__stringbase)| (0+32768))
  5552  1279  0084               	movwf	4
  5553  127A  120A  158A  200A  160A  118A  	fcall	stringdir
  5554  127F  00C7               	movwf	??_fround+3
  5555  1280  120A  158A  200A  160A  118A  	fcall	stringdir
  5556  1285  00C8               	movwf	??_fround+4
  5557  1286  120A  158A  200A  160A  118A  	fcall	stringdir
  5558  128B  00C9               	movwf	??_fround+5
  5559  128C  120A  158A  200A  160A  118A  	fcall	stringdir
  5560  1291  00CA               	movwf	??_fround+6
  5561  1292  084A               	movf	??_fround+6,w
  5562  1293  00A9               	movwf	___flmul@b+3
  5563  1294  0849               	movf	??_fround+5,w
  5564  1295  00A8               	movwf	___flmul@b+2
  5565  1296  0848               	movf	??_fround+4,w
  5566  1297  00A7               	movwf	___flmul@b+1
  5567  1298  0847               	movf	??_fround+3,w
  5568  1299  00A6               	movwf	___flmul@b
  5569  129A  0852               	movf	_fround$871+3,w
  5570  129B  00AD               	movwf	___flmul@a+3
  5571  129C  0851               	movf	_fround$871+2,w
  5572  129D  00AC               	movwf	___flmul@a+2
  5573  129E  0850               	movf	_fround$871+1,w
  5574  129F  00AB               	movwf	___flmul@a+1
  5575  12A0  084F               	movf	_fround$871,w
  5576  12A1  00AA               	movwf	___flmul@a
  5577  12A2  120A  158A  249F  160A  118A  	fcall	___flmul
  5578  12A7  1283               	bcf	3,5	;RP0=0, select bank0
  5579  12A8  1303               	bcf	3,6	;RP1=0, select bank0
  5580  12A9  0829               	movf	?___flmul+3,w
  5581  12AA  00C3               	movwf	?_fround+3
  5582  12AB  0828               	movf	?___flmul+2,w
  5583  12AC  00C2               	movwf	?_fround+2
  5584  12AD  0827               	movf	?___flmul+1,w
  5585  12AE  00C1               	movwf	?_fround+1
  5586  12AF  0826               	movf	?___flmul,w
  5587  12B0  00C0               	movwf	?_fround
  5588  12B1  2AF5               	goto	l286
  5589  12B2                     l2970:
  5590                           
  5591                           ;C:\Program Files\Microchip\xc8\v2.35\pic\sources\c90\common\doprnt.c: 425:  return 0.5 
      +                          * _npowers_[prec];
  5592  12B2  303F               	movlw	63
  5593  12B3  00A9               	movwf	___flmul@b+3
  5594  12B4  3000               	movlw	0
  5595  12B5  00A8               	movwf	___flmul@b+2
  5596  12B6  3000               	movlw	0
  5597  12B7  00A7               	movwf	___flmul@b+1
  5598  12B8  3000               	movlw	0
  5599  12B9  00A6               	movwf	___flmul@b
  5600  12BA  0853               	movf	fround@prec,w
  5601  12BB  00C4               	movwf	??_fround
  5602  12BC  3001               	movlw	1
  5603  12BD                     u4355:
  5604  12BD  1003               	clrc
  5605  12BE  0DC4               	rlf	??_fround,f
  5606  12BF  3EFF               	addlw	-1
  5607  12C0  1D03               	skipz
  5608  12C1  2ABD               	goto	u4355
  5609  12C2  1003               	clrc
  5610  12C3  0D44               	rlf	??_fround,w
  5611  12C4  3E35               	addlw	low ((__npowers_-__stringbase)| (0+32768))
  5612  12C5  0084               	movwf	4
  5613  12C6  120A  158A  200A  160A  118A  	fcall	stringdir
  5614  12CB  00C5               	movwf	??_fround+1
  5615  12CC  120A  158A  200A  160A  118A  	fcall	stringdir
  5616  12D1  00C6               	movwf	??_fround+2
  5617  12D2  120A  158A  200A  160A  118A  	fcall	stringdir
  5618  12D7  00C7               	movwf	??_fround+3
  5619  12D8  120A  158A  200A  160A  118A  	fcall	stringdir
  5620  12DD  00C8               	movwf	??_fround+4
  5621  12DE  0848               	movf	??_fround+4,w
  5622  12DF  00AD               	movwf	___flmul@a+3
  5623  12E0  0847               	movf	??_fround+3,w
  5624  12E1  00AC               	movwf	___flmul@a+2
  5625  12E2  0846               	movf	??_fround+2,w
  5626  12E3  00AB               	movwf	___flmul@a+1
  5627  12E4  0845               	movf	??_fround+1,w
  5628  12E5  00AA               	movwf	___flmul@a
  5629  12E6  120A  158A  249F  160A  118A  	fcall	___flmul
  5630  12EB  1283               	bcf	3,5	;RP0=0, select bank0
  5631  12EC  1303               	bcf	3,6	;RP1=0, select bank0
  5632  12ED  0829               	movf	?___flmul+3,w
  5633  12EE  00C3               	movwf	?_fround+3
  5634  12EF  0828               	movf	?___flmul+2,w
  5635  12F0  00C2               	movwf	?_fround+2
  5636  12F1  0827               	movf	?___flmul+1,w
  5637  12F2  00C1               	movwf	?_fround+1
  5638  12F3  0826               	movf	?___flmul,w
  5639  12F4  00C0               	movwf	?_fround
  5640  12F5                     l286:
  5641  12F5  0008               	return
  5642  12F6                     __end_of_fround:
  5643                           
  5644                           	psect	text7
  5645  1A45                     __ptext7:	
  5646 ;; *************** function ___lwmod *****************
  5647 ;; Defined at:
  5648 ;;		line 5 in file "C:\Program Files\Microchip\xc8\v2.35\pic\sources\c90\common\lwmod.c"
  5649 ;; Parameters:    Size  Location     Type
  5650 ;;  divisor         2    0[COMMON] unsigned int 
  5651 ;;  dividend        2    2[COMMON] unsigned int 
  5652 ;; Auto vars:     Size  Location     Type
  5653 ;;  counter         1    5[COMMON] unsigned char 
  5654 ;; Return value:  Size  Location     Type
  5655 ;;                  2    0[COMMON] unsigned int 
  5656 ;; Registers used:
  5657 ;;		wreg, status,2, status,0
  5658 ;; Tracked objects:
  5659 ;;		On entry : 0/0
  5660 ;;		On exit  : 0/0
  5661 ;;		Unchanged: 0/0
  5662 ;; Data sizes:     COMMON   BANK0   BANK1   BANK3   BANK2
  5663 ;;      Params:         4       0       0       0       0
  5664 ;;      Locals:         1       0       0       0       0
  5665 ;;      Temps:          1       0       0       0       0
  5666 ;;      Totals:         6       0       0       0       0
  5667 ;;Total ram usage:        6 bytes
  5668 ;; Hardware stack levels used: 1
  5669 ;; This function calls:
  5670 ;;		Nothing
  5671 ;; This function is called by:
  5672 ;;		_fround
  5673 ;; This function uses a non-reentrant model
  5674 ;;
  5675                           
  5676  1A45                     ___lwmod:	
  5677                           ;psect for function ___lwmod
  5678                           
  5679  1A45                     l2564:	
  5680                           ;incstack = 0
  5681                           ; Regs used in ___lwmod: [wreg+status,2+status,0]
  5682                           
  5683  1A45  0870               	movf	___lwmod@divisor,w
  5684  1A46  0471               	iorwf	___lwmod@divisor+1,w
  5685  1A47  1903               	btfsc	3,2
  5686  1A48  2A4A               	goto	u3361
  5687  1A49  2A4B               	goto	u3360
  5688  1A4A                     u3361:
  5689  1A4A  2A7A               	goto	l2582
  5690  1A4B                     u3360:
  5691  1A4B                     l2566:
  5692  1A4B  01F5               	clrf	___lwmod@counter
  5693  1A4C  0AF5               	incf	___lwmod@counter,f
  5694  1A4D  2A59               	goto	l2572
  5695  1A4E                     l2568:
  5696  1A4E  3001               	movlw	1
  5697  1A4F                     u3375:
  5698  1A4F  1003               	clrc
  5699  1A50  0DF0               	rlf	___lwmod@divisor,f
  5700  1A51  0DF1               	rlf	___lwmod@divisor+1,f
  5701  1A52  3EFF               	addlw	-1
  5702  1A53  1D03               	skipz
  5703  1A54  2A4F               	goto	u3375
  5704  1A55                     l2570:
  5705  1A55  3001               	movlw	1
  5706  1A56  00F4               	movwf	??___lwmod
  5707  1A57  0874               	movf	??___lwmod,w
  5708  1A58  07F5               	addwf	___lwmod@counter,f
  5709  1A59                     l2572:
  5710  1A59  1FF1               	btfss	___lwmod@divisor+1,7
  5711  1A5A  2A5C               	goto	u3381
  5712  1A5B  2A5D               	goto	u3380
  5713  1A5C                     u3381:
  5714  1A5C  2A4E               	goto	l2568
  5715  1A5D                     u3380:
  5716  1A5D                     l2574:
  5717  1A5D  0871               	movf	___lwmod@divisor+1,w
  5718  1A5E  0273               	subwf	___lwmod@dividend+1,w
  5719  1A5F  1D03               	skipz
  5720  1A60  2A63               	goto	u3395
  5721  1A61  0870               	movf	___lwmod@divisor,w
  5722  1A62  0272               	subwf	___lwmod@dividend,w
  5723  1A63                     u3395:
  5724  1A63  1C03               	skipc
  5725  1A64  2A66               	goto	u3391
  5726  1A65  2A67               	goto	u3390
  5727  1A66                     u3391:
  5728  1A66  2A6D               	goto	l2578
  5729  1A67                     u3390:
  5730  1A67                     l2576:
  5731  1A67  0870               	movf	___lwmod@divisor,w
  5732  1A68  02F2               	subwf	___lwmod@dividend,f
  5733  1A69  0871               	movf	___lwmod@divisor+1,w
  5734  1A6A  1C03               	skipc
  5735  1A6B  03F3               	decf	___lwmod@dividend+1,f
  5736  1A6C  02F3               	subwf	___lwmod@dividend+1,f
  5737  1A6D                     l2578:
  5738  1A6D  3001               	movlw	1
  5739  1A6E                     u3405:
  5740  1A6E  1003               	clrc
  5741  1A6F  0CF1               	rrf	___lwmod@divisor+1,f
  5742  1A70  0CF0               	rrf	___lwmod@divisor,f
  5743  1A71  3EFF               	addlw	-1
  5744  1A72  1D03               	skipz
  5745  1A73  2A6E               	goto	u3405
  5746  1A74                     l2580:
  5747  1A74  3001               	movlw	1
  5748  1A75  02F5               	subwf	___lwmod@counter,f
  5749  1A76  1D03               	btfss	3,2
  5750  1A77  2A79               	goto	u3411
  5751  1A78  2A7A               	goto	u3410
  5752  1A79                     u3411:
  5753  1A79  2A5D               	goto	l2574
  5754  1A7A                     u3410:
  5755  1A7A                     l2582:
  5756  1A7A  0873               	movf	___lwmod@dividend+1,w
  5757  1A7B  00F1               	movwf	?___lwmod+1
  5758  1A7C  0872               	movf	___lwmod@dividend,w
  5759  1A7D  00F0               	movwf	?___lwmod
  5760  1A7E                     l679:
  5761  1A7E  0008               	return
  5762  1A7F                     __end_of___lwmod:
  5763                           
  5764                           	psect	text8
  5765  000C                     __ptext8:	
  5766 ;; *************** function ___lwdiv *****************
  5767 ;; Defined at:
  5768 ;;		line 5 in file "C:\Program Files\Microchip\xc8\v2.35\pic\sources\c90\common\lwdiv.c"
  5769 ;; Parameters:    Size  Location     Type
  5770 ;;  divisor         2    6[COMMON] unsigned int 
  5771 ;;  dividend        2    8[COMMON] unsigned int 
  5772 ;; Auto vars:     Size  Location     Type
  5773 ;;  quotient        2   11[COMMON] unsigned int 
  5774 ;;  counter         1   13[COMMON] unsigned char 
  5775 ;; Return value:  Size  Location     Type
  5776 ;;                  2    6[COMMON] unsigned int 
  5777 ;; Registers used:
  5778 ;;		wreg, status,2, status,0
  5779 ;; Tracked objects:
  5780 ;;		On entry : 0/0
  5781 ;;		On exit  : 0/0
  5782 ;;		Unchanged: 0/0
  5783 ;; Data sizes:     COMMON   BANK0   BANK1   BANK3   BANK2
  5784 ;;      Params:         4       0       0       0       0
  5785 ;;      Locals:         3       0       0       0       0
  5786 ;;      Temps:          1       0       0       0       0
  5787 ;;      Totals:         8       0       0       0       0
  5788 ;;Total ram usage:        8 bytes
  5789 ;; Hardware stack levels used: 1
  5790 ;; This function calls:
  5791 ;;		Nothing
  5792 ;; This function is called by:
  5793 ;;		_fround
  5794 ;; This function uses a non-reentrant model
  5795 ;;
  5796                           
  5797  000C                     ___lwdiv:	
  5798                           ;psect for function ___lwdiv
  5799                           
  5800  000C                     l2538:	
  5801                           ;incstack = 0
  5802                           ; Regs used in ___lwdiv: [wreg+status,2+status,0]
  5803                           
  5804  000C  01FB               	clrf	___lwdiv@quotient
  5805  000D  01FC               	clrf	___lwdiv@quotient+1
  5806  000E                     l2540:
  5807  000E  0876               	movf	___lwdiv@divisor,w
  5808  000F  0477               	iorwf	___lwdiv@divisor+1,w
  5809  0010  1903               	btfsc	3,2
  5810  0011  2813               	goto	u3291
  5811  0012  2814               	goto	u3290
  5812  0013                     u3291:
  5813  0013  284B               	goto	l2560
  5814  0014                     u3290:
  5815  0014                     l2542:
  5816  0014  01FD               	clrf	___lwdiv@counter
  5817  0015  0AFD               	incf	___lwdiv@counter,f
  5818  0016  2822               	goto	l2548
  5819  0017                     l2544:
  5820  0017  3001               	movlw	1
  5821  0018                     u3305:
  5822  0018  1003               	clrc
  5823  0019  0DF6               	rlf	___lwdiv@divisor,f
  5824  001A  0DF7               	rlf	___lwdiv@divisor+1,f
  5825  001B  3EFF               	addlw	-1
  5826  001C  1D03               	skipz
  5827  001D  2818               	goto	u3305
  5828  001E                     l2546:
  5829  001E  3001               	movlw	1
  5830  001F  00FA               	movwf	??___lwdiv
  5831  0020  087A               	movf	??___lwdiv,w
  5832  0021  07FD               	addwf	___lwdiv@counter,f
  5833  0022                     l2548:
  5834  0022  1FF7               	btfss	___lwdiv@divisor+1,7
  5835  0023  2825               	goto	u3311
  5836  0024  2826               	goto	u3310
  5837  0025                     u3311:
  5838  0025  2817               	goto	l2544
  5839  0026                     u3310:
  5840  0026                     l2550:
  5841  0026  3001               	movlw	1
  5842  0027                     u3325:
  5843  0027  1003               	clrc
  5844  0028  0DFB               	rlf	___lwdiv@quotient,f
  5845  0029  0DFC               	rlf	___lwdiv@quotient+1,f
  5846  002A  3EFF               	addlw	-1
  5847  002B  1D03               	skipz
  5848  002C  2827               	goto	u3325
  5849  002D  0877               	movf	___lwdiv@divisor+1,w
  5850  002E  0279               	subwf	___lwdiv@dividend+1,w
  5851  002F  1D03               	skipz
  5852  0030  2833               	goto	u3335
  5853  0031  0876               	movf	___lwdiv@divisor,w
  5854  0032  0278               	subwf	___lwdiv@dividend,w
  5855  0033                     u3335:
  5856  0033  1C03               	skipc
  5857  0034  2836               	goto	u3331
  5858  0035  2837               	goto	u3330
  5859  0036                     u3331:
  5860  0036  283E               	goto	l2556
  5861  0037                     u3330:
  5862  0037                     l2552:
  5863  0037  0876               	movf	___lwdiv@divisor,w
  5864  0038  02F8               	subwf	___lwdiv@dividend,f
  5865  0039  0877               	movf	___lwdiv@divisor+1,w
  5866  003A  1C03               	skipc
  5867  003B  03F9               	decf	___lwdiv@dividend+1,f
  5868  003C  02F9               	subwf	___lwdiv@dividend+1,f
  5869  003D                     l2554:
  5870  003D  147B               	bsf	___lwdiv@quotient,0
  5871  003E                     l2556:
  5872  003E  3001               	movlw	1
  5873  003F                     u3345:
  5874  003F  1003               	clrc
  5875  0040  0CF7               	rrf	___lwdiv@divisor+1,f
  5876  0041  0CF6               	rrf	___lwdiv@divisor,f
  5877  0042  3EFF               	addlw	-1
  5878  0043  1D03               	skipz
  5879  0044  283F               	goto	u3345
  5880  0045                     l2558:
  5881  0045  3001               	movlw	1
  5882  0046  02FD               	subwf	___lwdiv@counter,f
  5883  0047  1D03               	btfss	3,2
  5884  0048  284A               	goto	u3351
  5885  0049  284B               	goto	u3350
  5886  004A                     u3351:
  5887  004A  2826               	goto	l2550
  5888  004B                     u3350:
  5889  004B                     l2560:
  5890  004B  087C               	movf	___lwdiv@quotient+1,w
  5891  004C  00F7               	movwf	?___lwdiv+1
  5892  004D  087B               	movf	___lwdiv@quotient,w
  5893  004E  00F6               	movwf	?___lwdiv
  5894  004F                     l669:
  5895  004F  0008               	return
  5896  0050                     __end_of___lwdiv:
  5897                           
  5898                           	psect	text9
  5899  0C9F                     __ptext9:	
  5900 ;; *************** function ___flmul *****************
  5901 ;; Defined at:
  5902 ;;		line 8 in file "C:\Program Files\Microchip\xc8\v2.35\pic\sources\c90\common\sprcmul.c"
  5903 ;; Parameters:    Size  Location     Type
  5904 ;;  b               4    6[BANK0 ] unsigned int 
  5905 ;;  a               4   10[BANK0 ] unsigned int 
  5906 ;; Auto vars:     Size  Location     Type
  5907 ;;  prod            4   26[BANK0 ] struct .
  5908 ;;  grs             4   20[BANK0 ] unsigned long 
  5909 ;;  temp            2   30[BANK0 ] struct .
  5910 ;;  bexp            1   25[BANK0 ] unsigned char 
  5911 ;;  aexp            1   24[BANK0 ] unsigned char 
  5912 ;;  sign            1   19[BANK0 ] unsigned char 
  5913 ;; Return value:  Size  Location     Type
  5914 ;;                  4    6[BANK0 ] unsigned char 
  5915 ;; Registers used:
  5916 ;;		wreg, status,2, status,0, btemp+1, pclath, cstack
  5917 ;; Tracked objects:
  5918 ;;		On entry : 0/0
  5919 ;;		On exit  : 0/0
  5920 ;;		Unchanged: 0/0
  5921 ;; Data sizes:     COMMON   BANK0   BANK1   BANK3   BANK2
  5922 ;;      Params:         0       8       0       0       0
  5923 ;;      Locals:         0      13       0       0       0
  5924 ;;      Temps:          0       5       0       0       0
  5925 ;;      Totals:         0      26       0       0       0
  5926 ;;Total ram usage:       26 bytes
  5927 ;; Hardware stack levels used: 1
  5928 ;; Hardware stack levels required when called: 1
  5929 ;; This function calls:
  5930 ;;		__Umul8_16
  5931 ;; This function is called by:
  5932 ;;		_main
  5933 ;;		_fround
  5934 ;;		_scale
  5935 ;;		_sprintf
  5936 ;; This function uses a non-reentrant model
  5937 ;;
  5938                           
  5939  0C9F                     ___flmul:	
  5940                           ;psect for function ___flmul
  5941                           
  5942  0C9F                     l2780:	
  5943                           ;incstack = 0
  5944                           ; Regs used in ___flmul: [wreg+status,2+status,0+btemp+1+pclath+cstack]
  5945                           
  5946  0C9F  1283               	bcf	3,5	;RP0=0, select bank0
  5947  0CA0  1303               	bcf	3,6	;RP1=0, select bank0
  5948  0CA1  0829               	movf	___flmul@b+3,w
  5949  0CA2  3980               	andlw	128
  5950  0CA3  00AE               	movwf	??___flmul
  5951  0CA4  082E               	movf	??___flmul,w
  5952  0CA5  00B3               	movwf	___flmul@sign
  5953  0CA6                     l2782:
  5954  0CA6  0829               	movf	___flmul@b+3,w
  5955  0CA7  00AE               	movwf	??___flmul
  5956  0CA8  072E               	addwf	??___flmul,w
  5957  0CA9  00AF               	movwf	??___flmul+1
  5958  0CAA  082F               	movf	??___flmul+1,w
  5959  0CAB  00B9               	movwf	___flmul@bexp
  5960  0CAC                     l2784:
  5961  0CAC  1FA8               	btfss	___flmul@b+2,7
  5962  0CAD  2CAF               	goto	u3881
  5963  0CAE  2CB0               	goto	u3880
  5964  0CAF                     u3881:
  5965  0CAF  2CB1               	goto	l2788
  5966  0CB0                     u3880:
  5967  0CB0                     l2786:
  5968  0CB0  1439               	bsf	___flmul@bexp,0
  5969  0CB1                     l2788:
  5970  0CB1  0839               	movf	___flmul@bexp,w
  5971  0CB2  1903               	btfsc	3,2
  5972  0CB3  2CB5               	goto	u3891
  5973  0CB4  2CB6               	goto	u3890
  5974  0CB5                     u3891:
  5975  0CB5  2CC5               	goto	l2796
  5976  0CB6                     u3890:
  5977  0CB6                     l2790:
  5978  0CB6  0A39               	incf	___flmul@bexp,w
  5979  0CB7  1D03               	btfss	3,2
  5980  0CB8  2CBA               	goto	u3901
  5981  0CB9  2CBB               	goto	u3900
  5982  0CBA                     u3901:
  5983  0CBA  2CC3               	goto	l2794
  5984  0CBB                     u3900:
  5985  0CBB                     l2792:
  5986  0CBB  3000               	movlw	0
  5987  0CBC  00A9               	movwf	___flmul@b+3
  5988  0CBD  3000               	movlw	0
  5989  0CBE  00A8               	movwf	___flmul@b+2
  5990  0CBF  3000               	movlw	0
  5991  0CC0  00A7               	movwf	___flmul@b+1
  5992  0CC1  3000               	movlw	0
  5993  0CC2  00A6               	movwf	___flmul@b
  5994  0CC3                     l2794:
  5995  0CC3  17A8               	bsf	___flmul@b+2,7
  5996  0CC4  2CCD               	goto	l2798
  5997  0CC5                     l2796:
  5998  0CC5  3000               	movlw	0
  5999  0CC6  00A9               	movwf	___flmul@b+3
  6000  0CC7  3000               	movlw	0
  6001  0CC8  00A8               	movwf	___flmul@b+2
  6002  0CC9  3000               	movlw	0
  6003  0CCA  00A7               	movwf	___flmul@b+1
  6004  0CCB  3000               	movlw	0
  6005  0CCC  00A6               	movwf	___flmul@b
  6006  0CCD                     l2798:
  6007  0CCD  082D               	movf	___flmul@a+3,w
  6008  0CCE  3980               	andlw	128
  6009  0CCF  00AE               	movwf	??___flmul
  6010  0CD0  082E               	movf	??___flmul,w
  6011  0CD1  06B3               	xorwf	___flmul@sign,f
  6012  0CD2                     l2800:
  6013  0CD2  082D               	movf	___flmul@a+3,w
  6014  0CD3  00AE               	movwf	??___flmul
  6015  0CD4  072E               	addwf	??___flmul,w
  6016  0CD5  00AF               	movwf	??___flmul+1
  6017  0CD6  082F               	movf	??___flmul+1,w
  6018  0CD7  00B8               	movwf	___flmul@aexp
  6019  0CD8                     l2802:
  6020  0CD8  1FAC               	btfss	___flmul@a+2,7
  6021  0CD9  2CDB               	goto	u3911
  6022  0CDA  2CDC               	goto	u3910
  6023  0CDB                     u3911:
  6024  0CDB  2CDD               	goto	l2806
  6025  0CDC                     u3910:
  6026  0CDC                     l2804:
  6027  0CDC  1438               	bsf	___flmul@aexp,0
  6028  0CDD                     l2806:
  6029  0CDD  0838               	movf	___flmul@aexp,w
  6030  0CDE  1903               	btfsc	3,2
  6031  0CDF  2CE1               	goto	u3921
  6032  0CE0  2CE2               	goto	u3920
  6033  0CE1                     u3921:
  6034  0CE1  2CF1               	goto	l2814
  6035  0CE2                     u3920:
  6036  0CE2                     l2808:
  6037  0CE2  0A38               	incf	___flmul@aexp,w
  6038  0CE3  1D03               	btfss	3,2
  6039  0CE4  2CE6               	goto	u3931
  6040  0CE5  2CE7               	goto	u3930
  6041  0CE6                     u3931:
  6042  0CE6  2CEF               	goto	l2812
  6043  0CE7                     u3930:
  6044  0CE7                     l2810:
  6045  0CE7  3000               	movlw	0
  6046  0CE8  00AD               	movwf	___flmul@a+3
  6047  0CE9  3000               	movlw	0
  6048  0CEA  00AC               	movwf	___flmul@a+2
  6049  0CEB  3000               	movlw	0
  6050  0CEC  00AB               	movwf	___flmul@a+1
  6051  0CED  3000               	movlw	0
  6052  0CEE  00AA               	movwf	___flmul@a
  6053  0CEF                     l2812:
  6054  0CEF  17AC               	bsf	___flmul@a+2,7
  6055  0CF0  2CF9               	goto	l2816
  6056  0CF1                     l2814:
  6057  0CF1  3000               	movlw	0
  6058  0CF2  00AD               	movwf	___flmul@a+3
  6059  0CF3  3000               	movlw	0
  6060  0CF4  00AC               	movwf	___flmul@a+2
  6061  0CF5  3000               	movlw	0
  6062  0CF6  00AB               	movwf	___flmul@a+1
  6063  0CF7  3000               	movlw	0
  6064  0CF8  00AA               	movwf	___flmul@a
  6065  0CF9                     l2816:
  6066  0CF9  0838               	movf	___flmul@aexp,w
  6067  0CFA  1903               	btfsc	3,2
  6068  0CFB  2CFD               	goto	u3941
  6069  0CFC  2CFE               	goto	u3940
  6070  0CFD                     u3941:
  6071  0CFD  2D03               	goto	l2820
  6072  0CFE                     u3940:
  6073  0CFE                     l2818:
  6074  0CFE  0839               	movf	___flmul@bexp,w
  6075  0CFF  1D03               	btfss	3,2
  6076  0D00  2D02               	goto	u3951
  6077  0D01  2D03               	goto	u3950
  6078  0D02                     u3951:
  6079  0D02  2D0C               	goto	l2824
  6080  0D03                     u3950:
  6081  0D03                     l2820:
  6082  0D03  3000               	movlw	0
  6083  0D04  00A9               	movwf	?___flmul+3
  6084  0D05  3000               	movlw	0
  6085  0D06  00A8               	movwf	?___flmul+2
  6086  0D07  3000               	movlw	0
  6087  0D08  00A7               	movwf	?___flmul+1
  6088  0D09  3000               	movlw	0
  6089  0D0A  00A6               	movwf	?___flmul
  6090  0D0B  2FFF               	goto	l786
  6091  0D0C                     l2824:
  6092  0D0C  0826               	movf	___flmul@b,w
  6093  0D0D  00AE               	movwf	??___flmul
  6094  0D0E  082E               	movf	??___flmul,w
  6095  0D0F  00F0               	movwf	__Umul8_16@multiplicand
  6096  0D10  082C               	movf	___flmul@a+2,w
  6097  0D11  160A  158A  217F  120A  158A  	fcall	__Umul8_16
  6098  0D16  0871               	movf	?__Umul8_16+1,w
  6099  0D17  1283               	bcf	3,5	;RP0=0, select bank0
  6100  0D18  1303               	bcf	3,6	;RP1=0, select bank0
  6101  0D19  00BF               	movwf	___flmul@temp+1
  6102  0D1A  0870               	movf	?__Umul8_16,w
  6103  0D1B  00BE               	movwf	___flmul@temp
  6104  0D1C                     l2826:
  6105  0D1C  083E               	movf	___flmul@temp,w
  6106  0D1D  00AE               	movwf	??___flmul
  6107  0D1E  01AF               	clrf	??___flmul+1
  6108  0D1F  01B0               	clrf	??___flmul+2
  6109  0D20  01B1               	clrf	??___flmul+3
  6110  0D21  0831               	movf	??___flmul+3,w
  6111  0D22  00B7               	movwf	___flmul@grs+3
  6112  0D23  0830               	movf	??___flmul+2,w
  6113  0D24  00B6               	movwf	___flmul@grs+2
  6114  0D25  082F               	movf	??___flmul+1,w
  6115  0D26  00B5               	movwf	___flmul@grs+1
  6116  0D27  082E               	movf	??___flmul,w
  6117  0D28  00B4               	movwf	___flmul@grs
  6118  0D29                     l2828:
  6119  0D29  083F               	movf	___flmul@temp+1,w
  6120  0D2A  00AE               	movwf	??___flmul
  6121  0D2B  01AF               	clrf	??___flmul+1
  6122  0D2C  01B0               	clrf	??___flmul+2
  6123  0D2D  01B1               	clrf	??___flmul+3
  6124  0D2E  0831               	movf	??___flmul+3,w
  6125  0D2F  00BD               	movwf	___flmul@prod+3
  6126  0D30  0830               	movf	??___flmul+2,w
  6127  0D31  00BC               	movwf	___flmul@prod+2
  6128  0D32  082F               	movf	??___flmul+1,w
  6129  0D33  00BB               	movwf	___flmul@prod+1
  6130  0D34  082E               	movf	??___flmul,w
  6131  0D35  00BA               	movwf	___flmul@prod
  6132  0D36  0827               	movf	___flmul@b+1,w
  6133  0D37  00AE               	movwf	??___flmul
  6134  0D38  082E               	movf	??___flmul,w
  6135  0D39  00F0               	movwf	__Umul8_16@multiplicand
  6136  0D3A  082B               	movf	___flmul@a+1,w
  6137  0D3B  160A  158A  217F  120A  158A  	fcall	__Umul8_16
  6138  0D40  0871               	movf	?__Umul8_16+1,w
  6139  0D41  1283               	bcf	3,5	;RP0=0, select bank0
  6140  0D42  1303               	bcf	3,6	;RP1=0, select bank0
  6141  0D43  00BF               	movwf	___flmul@temp+1
  6142  0D44  0870               	movf	?__Umul8_16,w
  6143  0D45  00BE               	movwf	___flmul@temp
  6144  0D46                     l2830:
  6145  0D46  083E               	movf	___flmul@temp,w
  6146  0D47  00AE               	movwf	??___flmul
  6147  0D48  01AF               	clrf	??___flmul+1
  6148  0D49  01B0               	clrf	??___flmul+2
  6149  0D4A  01B1               	clrf	??___flmul+3
  6150  0D4B  082E               	movf	??___flmul,w
  6151  0D4C  07B4               	addwf	___flmul@grs,f
  6152  0D4D  082F               	movf	??___flmul+1,w
  6153  0D4E  1103               	clrz
  6154  0D4F  1803               	skipnc
  6155  0D50  3E01               	addlw	1
  6156  0D51  1903               	skipnz
  6157  0D52  2D54               	goto	u3961
  6158  0D53  07B5               	addwf	___flmul@grs+1,f
  6159  0D54                     u3961:
  6160  0D54  0830               	movf	??___flmul+2,w
  6161  0D55  1103               	clrz
  6162  0D56  1803               	skipnc
  6163  0D57  3E01               	addlw	1
  6164  0D58  1903               	skipnz
  6165  0D59  2D5B               	goto	u3962
  6166  0D5A  07B6               	addwf	___flmul@grs+2,f
  6167  0D5B                     u3962:
  6168  0D5B  0831               	movf	??___flmul+3,w
  6169  0D5C  1103               	clrz
  6170  0D5D  1803               	skipnc
  6171  0D5E  3E01               	addlw	1
  6172  0D5F  1903               	skipnz
  6173  0D60  2D62               	goto	u3963
  6174  0D61  07B7               	addwf	___flmul@grs+3,f
  6175  0D62                     u3963:
  6176  0D62                     l2832:
  6177  0D62  083F               	movf	___flmul@temp+1,w
  6178  0D63  00AE               	movwf	??___flmul
  6179  0D64  01AF               	clrf	??___flmul+1
  6180  0D65  01B0               	clrf	??___flmul+2
  6181  0D66  01B1               	clrf	??___flmul+3
  6182  0D67  082E               	movf	??___flmul,w
  6183  0D68  07BA               	addwf	___flmul@prod,f
  6184  0D69  082F               	movf	??___flmul+1,w
  6185  0D6A  1103               	clrz
  6186  0D6B  1803               	skipnc
  6187  0D6C  3E01               	addlw	1
  6188  0D6D  1903               	skipnz
  6189  0D6E  2D70               	goto	u3971
  6190  0D6F  07BB               	addwf	___flmul@prod+1,f
  6191  0D70                     u3971:
  6192  0D70  0830               	movf	??___flmul+2,w
  6193  0D71  1103               	clrz
  6194  0D72  1803               	skipnc
  6195  0D73  3E01               	addlw	1
  6196  0D74  1903               	skipnz
  6197  0D75  2D77               	goto	u3972
  6198  0D76  07BC               	addwf	___flmul@prod+2,f
  6199  0D77                     u3972:
  6200  0D77  0831               	movf	??___flmul+3,w
  6201  0D78  1103               	clrz
  6202  0D79  1803               	skipnc
  6203  0D7A  3E01               	addlw	1
  6204  0D7B  1903               	skipnz
  6205  0D7C  2D7E               	goto	u3973
  6206  0D7D  07BD               	addwf	___flmul@prod+3,f
  6207  0D7E                     u3973:
  6208  0D7E  0828               	movf	___flmul@b+2,w
  6209  0D7F  00AE               	movwf	??___flmul
  6210  0D80  082E               	movf	??___flmul,w
  6211  0D81  00F0               	movwf	__Umul8_16@multiplicand
  6212  0D82  082A               	movf	___flmul@a,w
  6213  0D83  160A  158A  217F  120A  158A  	fcall	__Umul8_16
  6214  0D88  0871               	movf	?__Umul8_16+1,w
  6215  0D89  1283               	bcf	3,5	;RP0=0, select bank0
  6216  0D8A  1303               	bcf	3,6	;RP1=0, select bank0
  6217  0D8B  00BF               	movwf	___flmul@temp+1
  6218  0D8C  0870               	movf	?__Umul8_16,w
  6219  0D8D  00BE               	movwf	___flmul@temp
  6220  0D8E                     l2834:
  6221  0D8E  083E               	movf	___flmul@temp,w
  6222  0D8F  00AE               	movwf	??___flmul
  6223  0D90  01AF               	clrf	??___flmul+1
  6224  0D91  01B0               	clrf	??___flmul+2
  6225  0D92  01B1               	clrf	??___flmul+3
  6226  0D93  082E               	movf	??___flmul,w
  6227  0D94  07B4               	addwf	___flmul@grs,f
  6228  0D95  082F               	movf	??___flmul+1,w
  6229  0D96  1103               	clrz
  6230  0D97  1803               	skipnc
  6231  0D98  3E01               	addlw	1
  6232  0D99  1903               	skipnz
  6233  0D9A  2D9C               	goto	u3981
  6234  0D9B  07B5               	addwf	___flmul@grs+1,f
  6235  0D9C                     u3981:
  6236  0D9C  0830               	movf	??___flmul+2,w
  6237  0D9D  1103               	clrz
  6238  0D9E  1803               	skipnc
  6239  0D9F  3E01               	addlw	1
  6240  0DA0  1903               	skipnz
  6241  0DA1  2DA3               	goto	u3982
  6242  0DA2  07B6               	addwf	___flmul@grs+2,f
  6243  0DA3                     u3982:
  6244  0DA3  0831               	movf	??___flmul+3,w
  6245  0DA4  1103               	clrz
  6246  0DA5  1803               	skipnc
  6247  0DA6  3E01               	addlw	1
  6248  0DA7  1903               	skipnz
  6249  0DA8  2DAA               	goto	u3983
  6250  0DA9  07B7               	addwf	___flmul@grs+3,f
  6251  0DAA                     u3983:
  6252  0DAA                     l2836:
  6253  0DAA  083F               	movf	___flmul@temp+1,w
  6254  0DAB  00AE               	movwf	??___flmul
  6255  0DAC  01AF               	clrf	??___flmul+1
  6256  0DAD  01B0               	clrf	??___flmul+2
  6257  0DAE  01B1               	clrf	??___flmul+3
  6258  0DAF  082E               	movf	??___flmul,w
  6259  0DB0  07BA               	addwf	___flmul@prod,f
  6260  0DB1  082F               	movf	??___flmul+1,w
  6261  0DB2  1103               	clrz
  6262  0DB3  1803               	skipnc
  6263  0DB4  3E01               	addlw	1
  6264  0DB5  1903               	skipnz
  6265  0DB6  2DB8               	goto	u3991
  6266  0DB7  07BB               	addwf	___flmul@prod+1,f
  6267  0DB8                     u3991:
  6268  0DB8  0830               	movf	??___flmul+2,w
  6269  0DB9  1103               	clrz
  6270  0DBA  1803               	skipnc
  6271  0DBB  3E01               	addlw	1
  6272  0DBC  1903               	skipnz
  6273  0DBD  2DBF               	goto	u3992
  6274  0DBE  07BC               	addwf	___flmul@prod+2,f
  6275  0DBF                     u3992:
  6276  0DBF  0831               	movf	??___flmul+3,w
  6277  0DC0  1103               	clrz
  6278  0DC1  1803               	skipnc
  6279  0DC2  3E01               	addlw	1
  6280  0DC3  1903               	skipnz
  6281  0DC4  2DC6               	goto	u3993
  6282  0DC5  07BD               	addwf	___flmul@prod+3,f
  6283  0DC6                     u3993:
  6284  0DC6                     l2838:
  6285  0DC6  3008               	movlw	8
  6286  0DC7  00AE               	movwf	??___flmul
  6287  0DC8                     u4005:
  6288  0DC8  1003               	clrc
  6289  0DC9  0DB4               	rlf	___flmul@grs,f
  6290  0DCA  0DB5               	rlf	___flmul@grs+1,f
  6291  0DCB  0DB6               	rlf	___flmul@grs+2,f
  6292  0DCC  0DB7               	rlf	___flmul@grs+3,f
  6293  0DCD  0BAE               	decfsz	??___flmul,f
  6294  0DCE  2DC8               	goto	u4005
  6295  0DCF                     l2840:
  6296  0DCF  0827               	movf	___flmul@b+1,w
  6297  0DD0  00AE               	movwf	??___flmul
  6298  0DD1  082E               	movf	??___flmul,w
  6299  0DD2  00F0               	movwf	__Umul8_16@multiplicand
  6300  0DD3  082A               	movf	___flmul@a,w
  6301  0DD4  160A  158A  217F  120A  158A  	fcall	__Umul8_16
  6302  0DD9  0871               	movf	?__Umul8_16+1,w
  6303  0DDA  1283               	bcf	3,5	;RP0=0, select bank0
  6304  0DDB  1303               	bcf	3,6	;RP1=0, select bank0
  6305  0DDC  00BF               	movwf	___flmul@temp+1
  6306  0DDD  0870               	movf	?__Umul8_16,w
  6307  0DDE  00BE               	movwf	___flmul@temp
  6308  0DDF                     l2842:
  6309  0DDF  083E               	movf	___flmul@temp,w
  6310  0DE0  00AE               	movwf	??___flmul
  6311  0DE1  083F               	movf	___flmul@temp+1,w
  6312  0DE2  00AF               	movwf	??___flmul+1
  6313  0DE3  01B0               	clrf	??___flmul+2
  6314  0DE4  01B1               	clrf	??___flmul+3
  6315  0DE5  082E               	movf	??___flmul,w
  6316  0DE6  07B4               	addwf	___flmul@grs,f
  6317  0DE7  082F               	movf	??___flmul+1,w
  6318  0DE8  1103               	clrz
  6319  0DE9  1803               	skipnc
  6320  0DEA  3E01               	addlw	1
  6321  0DEB  1903               	skipnz
  6322  0DEC  2DEE               	goto	u4011
  6323  0DED  07B5               	addwf	___flmul@grs+1,f
  6324  0DEE                     u4011:
  6325  0DEE  0830               	movf	??___flmul+2,w
  6326  0DEF  1103               	clrz
  6327  0DF0  1803               	skipnc
  6328  0DF1  3E01               	addlw	1
  6329  0DF2  1903               	skipnz
  6330  0DF3  2DF5               	goto	u4012
  6331  0DF4  07B6               	addwf	___flmul@grs+2,f
  6332  0DF5                     u4012:
  6333  0DF5  0831               	movf	??___flmul+3,w
  6334  0DF6  1103               	clrz
  6335  0DF7  1803               	skipnc
  6336  0DF8  3E01               	addlw	1
  6337  0DF9  1903               	skipnz
  6338  0DFA  2DFC               	goto	u4013
  6339  0DFB  07B7               	addwf	___flmul@grs+3,f
  6340  0DFC                     u4013:
  6341  0DFC                     l2844:
  6342  0DFC  0826               	movf	___flmul@b,w
  6343  0DFD  00AE               	movwf	??___flmul
  6344  0DFE  082E               	movf	??___flmul,w
  6345  0DFF  00F0               	movwf	__Umul8_16@multiplicand
  6346  0E00  082B               	movf	___flmul@a+1,w
  6347  0E01  160A  158A  217F  120A  158A  	fcall	__Umul8_16
  6348  0E06  0871               	movf	?__Umul8_16+1,w
  6349  0E07  1283               	bcf	3,5	;RP0=0, select bank0
  6350  0E08  1303               	bcf	3,6	;RP1=0, select bank0
  6351  0E09  00BF               	movwf	___flmul@temp+1
  6352  0E0A  0870               	movf	?__Umul8_16,w
  6353  0E0B  00BE               	movwf	___flmul@temp
  6354  0E0C                     l2846:
  6355  0E0C  083E               	movf	___flmul@temp,w
  6356  0E0D  00AE               	movwf	??___flmul
  6357  0E0E  083F               	movf	___flmul@temp+1,w
  6358  0E0F  00AF               	movwf	??___flmul+1
  6359  0E10  01B0               	clrf	??___flmul+2
  6360  0E11  01B1               	clrf	??___flmul+3
  6361  0E12  082E               	movf	??___flmul,w
  6362  0E13  07B4               	addwf	___flmul@grs,f
  6363  0E14  082F               	movf	??___flmul+1,w
  6364  0E15  1103               	clrz
  6365  0E16  1803               	skipnc
  6366  0E17  3E01               	addlw	1
  6367  0E18  1903               	skipnz
  6368  0E19  2E1B               	goto	u4021
  6369  0E1A  07B5               	addwf	___flmul@grs+1,f
  6370  0E1B                     u4021:
  6371  0E1B  0830               	movf	??___flmul+2,w
  6372  0E1C  1103               	clrz
  6373  0E1D  1803               	skipnc
  6374  0E1E  3E01               	addlw	1
  6375  0E1F  1903               	skipnz
  6376  0E20  2E22               	goto	u4022
  6377  0E21  07B6               	addwf	___flmul@grs+2,f
  6378  0E22                     u4022:
  6379  0E22  0831               	movf	??___flmul+3,w
  6380  0E23  1103               	clrz
  6381  0E24  1803               	skipnc
  6382  0E25  3E01               	addlw	1
  6383  0E26  1903               	skipnz
  6384  0E27  2E29               	goto	u4023
  6385  0E28  07B7               	addwf	___flmul@grs+3,f
  6386  0E29                     u4023:
  6387  0E29                     l2848:
  6388  0E29  3008               	movlw	8
  6389  0E2A  00AE               	movwf	??___flmul
  6390  0E2B                     u4035:
  6391  0E2B  1003               	clrc
  6392  0E2C  0DB4               	rlf	___flmul@grs,f
  6393  0E2D  0DB5               	rlf	___flmul@grs+1,f
  6394  0E2E  0DB6               	rlf	___flmul@grs+2,f
  6395  0E2F  0DB7               	rlf	___flmul@grs+3,f
  6396  0E30  0BAE               	decfsz	??___flmul,f
  6397  0E31  2E2B               	goto	u4035
  6398  0E32  0826               	movf	___flmul@b,w
  6399  0E33  00AE               	movwf	??___flmul
  6400  0E34  082E               	movf	??___flmul,w
  6401  0E35  00F0               	movwf	__Umul8_16@multiplicand
  6402  0E36  082A               	movf	___flmul@a,w
  6403  0E37  160A  158A  217F  120A  158A  	fcall	__Umul8_16
  6404  0E3C  0871               	movf	?__Umul8_16+1,w
  6405  0E3D  1283               	bcf	3,5	;RP0=0, select bank0
  6406  0E3E  1303               	bcf	3,6	;RP1=0, select bank0
  6407  0E3F  00BF               	movwf	___flmul@temp+1
  6408  0E40  0870               	movf	?__Umul8_16,w
  6409  0E41  00BE               	movwf	___flmul@temp
  6410  0E42                     l2850:
  6411  0E42  083E               	movf	___flmul@temp,w
  6412  0E43  00AE               	movwf	??___flmul
  6413  0E44  083F               	movf	___flmul@temp+1,w
  6414  0E45  00AF               	movwf	??___flmul+1
  6415  0E46  01B0               	clrf	??___flmul+2
  6416  0E47  01B1               	clrf	??___flmul+3
  6417  0E48  082E               	movf	??___flmul,w
  6418  0E49  07B4               	addwf	___flmul@grs,f
  6419  0E4A  082F               	movf	??___flmul+1,w
  6420  0E4B  1103               	clrz
  6421  0E4C  1803               	skipnc
  6422  0E4D  3E01               	addlw	1
  6423  0E4E  1903               	skipnz
  6424  0E4F  2E51               	goto	u4041
  6425  0E50  07B5               	addwf	___flmul@grs+1,f
  6426  0E51                     u4041:
  6427  0E51  0830               	movf	??___flmul+2,w
  6428  0E52  1103               	clrz
  6429  0E53  1803               	skipnc
  6430  0E54  3E01               	addlw	1
  6431  0E55  1903               	skipnz
  6432  0E56  2E58               	goto	u4042
  6433  0E57  07B6               	addwf	___flmul@grs+2,f
  6434  0E58                     u4042:
  6435  0E58  0831               	movf	??___flmul+3,w
  6436  0E59  1103               	clrz
  6437  0E5A  1803               	skipnc
  6438  0E5B  3E01               	addlw	1
  6439  0E5C  1903               	skipnz
  6440  0E5D  2E5F               	goto	u4043
  6441  0E5E  07B7               	addwf	___flmul@grs+3,f
  6442  0E5F                     u4043:
  6443  0E5F                     l2852:
  6444  0E5F  0827               	movf	___flmul@b+1,w
  6445  0E60  00AE               	movwf	??___flmul
  6446  0E61  082E               	movf	??___flmul,w
  6447  0E62  00F0               	movwf	__Umul8_16@multiplicand
  6448  0E63  082C               	movf	___flmul@a+2,w
  6449  0E64  160A  158A  217F  120A  158A  	fcall	__Umul8_16
  6450  0E69  0871               	movf	?__Umul8_16+1,w
  6451  0E6A  1283               	bcf	3,5	;RP0=0, select bank0
  6452  0E6B  1303               	bcf	3,6	;RP1=0, select bank0
  6453  0E6C  00BF               	movwf	___flmul@temp+1
  6454  0E6D  0870               	movf	?__Umul8_16,w
  6455  0E6E  00BE               	movwf	___flmul@temp
  6456  0E6F  083E               	movf	___flmul@temp,w
  6457  0E70  00AE               	movwf	??___flmul
  6458  0E71  083F               	movf	___flmul@temp+1,w
  6459  0E72  00AF               	movwf	??___flmul+1
  6460  0E73  01B0               	clrf	??___flmul+2
  6461  0E74  01B1               	clrf	??___flmul+3
  6462  0E75  082E               	movf	??___flmul,w
  6463  0E76  07BA               	addwf	___flmul@prod,f
  6464  0E77  082F               	movf	??___flmul+1,w
  6465  0E78  1103               	clrz
  6466  0E79  1803               	skipnc
  6467  0E7A  3E01               	addlw	1
  6468  0E7B  1903               	skipnz
  6469  0E7C  2E7E               	goto	u4051
  6470  0E7D  07BB               	addwf	___flmul@prod+1,f
  6471  0E7E                     u4051:
  6472  0E7E  0830               	movf	??___flmul+2,w
  6473  0E7F  1103               	clrz
  6474  0E80  1803               	skipnc
  6475  0E81  3E01               	addlw	1
  6476  0E82  1903               	skipnz
  6477  0E83  2E85               	goto	u4052
  6478  0E84  07BC               	addwf	___flmul@prod+2,f
  6479  0E85                     u4052:
  6480  0E85  0831               	movf	??___flmul+3,w
  6481  0E86  1103               	clrz
  6482  0E87  1803               	skipnc
  6483  0E88  3E01               	addlw	1
  6484  0E89  1903               	skipnz
  6485  0E8A  2E8C               	goto	u4053
  6486  0E8B  07BD               	addwf	___flmul@prod+3,f
  6487  0E8C                     u4053:
  6488  0E8C                     l2854:
  6489  0E8C  0828               	movf	___flmul@b+2,w
  6490  0E8D  00AE               	movwf	??___flmul
  6491  0E8E  082E               	movf	??___flmul,w
  6492  0E8F  00F0               	movwf	__Umul8_16@multiplicand
  6493  0E90  082B               	movf	___flmul@a+1,w
  6494  0E91  160A  158A  217F  120A  158A  	fcall	__Umul8_16
  6495  0E96  0871               	movf	?__Umul8_16+1,w
  6496  0E97  1283               	bcf	3,5	;RP0=0, select bank0
  6497  0E98  1303               	bcf	3,6	;RP1=0, select bank0
  6498  0E99  00BF               	movwf	___flmul@temp+1
  6499  0E9A  0870               	movf	?__Umul8_16,w
  6500  0E9B  00BE               	movwf	___flmul@temp
  6501  0E9C                     l2856:
  6502  0E9C  083E               	movf	___flmul@temp,w
  6503  0E9D  00AE               	movwf	??___flmul
  6504  0E9E  083F               	movf	___flmul@temp+1,w
  6505  0E9F  00AF               	movwf	??___flmul+1
  6506  0EA0  01B0               	clrf	??___flmul+2
  6507  0EA1  01B1               	clrf	??___flmul+3
  6508  0EA2  082E               	movf	??___flmul,w
  6509  0EA3  07BA               	addwf	___flmul@prod,f
  6510  0EA4  082F               	movf	??___flmul+1,w
  6511  0EA5  1103               	clrz
  6512  0EA6  1803               	skipnc
  6513  0EA7  3E01               	addlw	1
  6514  0EA8  1903               	skipnz
  6515  0EA9  2EAB               	goto	u4061
  6516  0EAA  07BB               	addwf	___flmul@prod+1,f
  6517  0EAB                     u4061:
  6518  0EAB  0830               	movf	??___flmul+2,w
  6519  0EAC  1103               	clrz
  6520  0EAD  1803               	skipnc
  6521  0EAE  3E01               	addlw	1
  6522  0EAF  1903               	skipnz
  6523  0EB0  2EB2               	goto	u4062
  6524  0EB1  07BC               	addwf	___flmul@prod+2,f
  6525  0EB2                     u4062:
  6526  0EB2  0831               	movf	??___flmul+3,w
  6527  0EB3  1103               	clrz
  6528  0EB4  1803               	skipnc
  6529  0EB5  3E01               	addlw	1
  6530  0EB6  1903               	skipnz
  6531  0EB7  2EB9               	goto	u4063
  6532  0EB8  07BD               	addwf	___flmul@prod+3,f
  6533  0EB9                     u4063:
  6534  0EB9  0828               	movf	___flmul@b+2,w
  6535  0EBA  00AE               	movwf	??___flmul
  6536  0EBB  082E               	movf	??___flmul,w
  6537  0EBC  00F0               	movwf	__Umul8_16@multiplicand
  6538  0EBD  082C               	movf	___flmul@a+2,w
  6539  0EBE  160A  158A  217F  120A  158A  	fcall	__Umul8_16
  6540  0EC3  0871               	movf	?__Umul8_16+1,w
  6541  0EC4  1283               	bcf	3,5	;RP0=0, select bank0
  6542  0EC5  1303               	bcf	3,6	;RP1=0, select bank0
  6543  0EC6  00BF               	movwf	___flmul@temp+1
  6544  0EC7  0870               	movf	?__Umul8_16,w
  6545  0EC8  00BE               	movwf	___flmul@temp
  6546  0EC9                     l2858:
  6547  0EC9  083E               	movf	___flmul@temp,w
  6548  0ECA  00AE               	movwf	??___flmul
  6549  0ECB  083F               	movf	___flmul@temp+1,w
  6550  0ECC  00AF               	movwf	??___flmul+1
  6551  0ECD  01B0               	clrf	??___flmul+2
  6552  0ECE  01B1               	clrf	??___flmul+3
  6553  0ECF  3008               	movlw	8
  6554  0ED0                     u4075:
  6555  0ED0  1003               	clrc
  6556  0ED1  0DAE               	rlf	??___flmul,f
  6557  0ED2  0DAF               	rlf	??___flmul+1,f
  6558  0ED3  0DB0               	rlf	??___flmul+2,f
  6559  0ED4  0DB1               	rlf	??___flmul+3,f
  6560  0ED5                     u4070:
  6561  0ED5  3EFF               	addlw	-1
  6562  0ED6  1D03               	skipz
  6563  0ED7  2ED0               	goto	u4075
  6564  0ED8  082E               	movf	??___flmul,w
  6565  0ED9  07BA               	addwf	___flmul@prod,f
  6566  0EDA  082F               	movf	??___flmul+1,w
  6567  0EDB  1103               	clrz
  6568  0EDC  1803               	skipnc
  6569  0EDD  3E01               	addlw	1
  6570  0EDE  1903               	skipnz
  6571  0EDF  2EE1               	goto	u4081
  6572  0EE0  07BB               	addwf	___flmul@prod+1,f
  6573  0EE1                     u4081:
  6574  0EE1  0830               	movf	??___flmul+2,w
  6575  0EE2  1103               	clrz
  6576  0EE3  1803               	skipnc
  6577  0EE4  3E01               	addlw	1
  6578  0EE5  1903               	skipnz
  6579  0EE6  2EE8               	goto	u4082
  6580  0EE7  07BC               	addwf	___flmul@prod+2,f
  6581  0EE8                     u4082:
  6582  0EE8  0831               	movf	??___flmul+3,w
  6583  0EE9  1103               	clrz
  6584  0EEA  1803               	skipnc
  6585  0EEB  3E01               	addlw	1
  6586  0EEC  1903               	skipnz
  6587  0EED  2EEF               	goto	u4083
  6588  0EEE  07BD               	addwf	___flmul@prod+3,f
  6589  0EEF                     u4083:
  6590  0EEF                     l2860:
  6591  0EEF  0834               	movf	___flmul@grs,w
  6592  0EF0  00AE               	movwf	??___flmul
  6593  0EF1  0835               	movf	___flmul@grs+1,w
  6594  0EF2  00AF               	movwf	??___flmul+1
  6595  0EF3  0836               	movf	___flmul@grs+2,w
  6596  0EF4  00B0               	movwf	??___flmul+2
  6597  0EF5  0837               	movf	___flmul@grs+3,w
  6598  0EF6  00B1               	movwf	??___flmul+3
  6599  0EF7  3018               	movlw	24
  6600  0EF8                     u4095:
  6601  0EF8  1003               	clrc
  6602  0EF9  0CB1               	rrf	??___flmul+3,f
  6603  0EFA  0CB0               	rrf	??___flmul+2,f
  6604  0EFB  0CAF               	rrf	??___flmul+1,f
  6605  0EFC  0CAE               	rrf	??___flmul,f
  6606  0EFD                     u4090:
  6607  0EFD  3EFF               	addlw	-1
  6608  0EFE  1D03               	skipz
  6609  0EFF  2EF8               	goto	u4095
  6610  0F00  082E               	movf	??___flmul,w
  6611  0F01  07BA               	addwf	___flmul@prod,f
  6612  0F02  082F               	movf	??___flmul+1,w
  6613  0F03  1103               	clrz
  6614  0F04  1803               	skipnc
  6615  0F05  3E01               	addlw	1
  6616  0F06  1903               	skipnz
  6617  0F07  2F09               	goto	u4101
  6618  0F08  07BB               	addwf	___flmul@prod+1,f
  6619  0F09                     u4101:
  6620  0F09  0830               	movf	??___flmul+2,w
  6621  0F0A  1103               	clrz
  6622  0F0B  1803               	skipnc
  6623  0F0C  3E01               	addlw	1
  6624  0F0D  1903               	skipnz
  6625  0F0E  2F10               	goto	u4102
  6626  0F0F  07BC               	addwf	___flmul@prod+2,f
  6627  0F10                     u4102:
  6628  0F10  0831               	movf	??___flmul+3,w
  6629  0F11  1103               	clrz
  6630  0F12  1803               	skipnc
  6631  0F13  3E01               	addlw	1
  6632  0F14  1903               	skipnz
  6633  0F15  2F17               	goto	u4103
  6634  0F16  07BD               	addwf	___flmul@prod+3,f
  6635  0F17                     u4103:
  6636  0F17                     l2862:
  6637  0F17  3008               	movlw	8
  6638  0F18  00AE               	movwf	??___flmul
  6639  0F19                     u4115:
  6640  0F19  1003               	clrc
  6641  0F1A  0DB4               	rlf	___flmul@grs,f
  6642  0F1B  0DB5               	rlf	___flmul@grs+1,f
  6643  0F1C  0DB6               	rlf	___flmul@grs+2,f
  6644  0F1D  0DB7               	rlf	___flmul@grs+3,f
  6645  0F1E  0BAE               	decfsz	??___flmul,f
  6646  0F1F  2F19               	goto	u4115
  6647  0F20                     l2864:
  6648  0F20  0839               	movf	___flmul@bexp,w
  6649  0F21  0738               	addwf	___flmul@aexp,w
  6650  0F22  00AE               	movwf	??___flmul
  6651  0F23  01AF               	clrf	??___flmul+1
  6652  0F24  0DAF               	rlf	??___flmul+1,f
  6653  0F25  082E               	movf	??___flmul,w
  6654  0F26  3E82               	addlw	130
  6655  0F27  00BE               	movwf	___flmul@temp
  6656  0F28  082F               	movf	??___flmul+1,w
  6657  0F29  1803               	skipnc
  6658  0F2A  3E01               	addlw	1
  6659  0F2B  3EFF               	addlw	255
  6660  0F2C  00BF               	movwf	___flmul@temp+1
  6661  0F2D  2F4B               	goto	l2876
  6662  0F2E                     l2866:
  6663  0F2E  3001               	movlw	1
  6664  0F2F  00AE               	movwf	??___flmul
  6665  0F30                     u4125:
  6666  0F30  1003               	clrc
  6667  0F31  0DBA               	rlf	___flmul@prod,f
  6668  0F32  0DBB               	rlf	___flmul@prod+1,f
  6669  0F33  0DBC               	rlf	___flmul@prod+2,f
  6670  0F34  0DBD               	rlf	___flmul@prod+3,f
  6671  0F35  0BAE               	decfsz	??___flmul,f
  6672  0F36  2F30               	goto	u4125
  6673  0F37                     l2868:
  6674  0F37  1FB7               	btfss	___flmul@grs+3,7
  6675  0F38  2F3A               	goto	u4131
  6676  0F39  2F3B               	goto	u4130
  6677  0F3A                     u4131:
  6678  0F3A  2F3C               	goto	l2872
  6679  0F3B                     u4130:
  6680  0F3B                     l2870:
  6681  0F3B  143A               	bsf	___flmul@prod,0
  6682  0F3C                     l2872:
  6683  0F3C  3001               	movlw	1
  6684  0F3D  00AE               	movwf	??___flmul
  6685  0F3E                     u4145:
  6686  0F3E  1003               	clrc
  6687  0F3F  0DB4               	rlf	___flmul@grs,f
  6688  0F40  0DB5               	rlf	___flmul@grs+1,f
  6689  0F41  0DB6               	rlf	___flmul@grs+2,f
  6690  0F42  0DB7               	rlf	___flmul@grs+3,f
  6691  0F43  0BAE               	decfsz	??___flmul,f
  6692  0F44  2F3E               	goto	u4145
  6693  0F45                     l2874:
  6694  0F45  30FF               	movlw	255
  6695  0F46  07BE               	addwf	___flmul@temp,f
  6696  0F47  1803               	skipnc
  6697  0F48  0ABF               	incf	___flmul@temp+1,f
  6698  0F49  30FF               	movlw	255
  6699  0F4A  07BF               	addwf	___flmul@temp+1,f
  6700  0F4B                     l2876:
  6701  0F4B  1FBC               	btfss	___flmul@prod+2,7
  6702  0F4C  2F4E               	goto	u4151
  6703  0F4D  2F4F               	goto	u4150
  6704  0F4E                     u4151:
  6705  0F4E  2F2E               	goto	l2866
  6706  0F4F                     u4150:
  6707  0F4F                     l2878:
  6708  0F4F  01B8               	clrf	___flmul@aexp
  6709  0F50                     l2880:
  6710  0F50  1FB7               	btfss	___flmul@grs+3,7
  6711  0F51  2F53               	goto	u4161
  6712  0F52  2F54               	goto	u4160
  6713  0F53                     u4161:
  6714  0F53  2F70               	goto	l2888
  6715  0F54                     u4160:
  6716  0F54                     l2882:
  6717  0F54  30FF               	movlw	255
  6718  0F55  0534               	andwf	___flmul@grs,w
  6719  0F56  00AE               	movwf	??___flmul
  6720  0F57  30FF               	movlw	255
  6721  0F58  0535               	andwf	___flmul@grs+1,w
  6722  0F59  00AF               	movwf	??___flmul+1
  6723  0F5A  30FF               	movlw	255
  6724  0F5B  0536               	andwf	___flmul@grs+2,w
  6725  0F5C  00B0               	movwf	??___flmul+2
  6726  0F5D  307F               	movlw	127
  6727  0F5E  0537               	andwf	___flmul@grs+3,w
  6728  0F5F  00B1               	movwf	??___flmul+3
  6729  0F60  0831               	movf	??___flmul+3,w
  6730  0F61  0430               	iorwf	??___flmul+2,w
  6731  0F62  042F               	iorwf	??___flmul+1,w
  6732  0F63  042E               	iorwf	??___flmul,w
  6733  0F64  1903               	skipnz
  6734  0F65  2F67               	goto	u4171
  6735  0F66  2F68               	goto	u4170
  6736  0F67                     u4171:
  6737  0F67  2F6B               	goto	l792
  6738  0F68                     u4170:
  6739  0F68                     l2884:
  6740  0F68  01B8               	clrf	___flmul@aexp
  6741  0F69  0AB8               	incf	___flmul@aexp,f
  6742  0F6A  2F70               	goto	l2888
  6743  0F6B                     l792:
  6744  0F6B  1C3A               	btfss	___flmul@prod,0
  6745  0F6C  2F6E               	goto	u4181
  6746  0F6D  2F6F               	goto	u4180
  6747  0F6E                     u4181:
  6748  0F6E  2F70               	goto	l2888
  6749  0F6F                     u4180:
  6750  0F6F  2F68               	goto	l2884
  6751  0F70                     l2888:
  6752  0F70  0838               	movf	___flmul@aexp,w
  6753  0F71  1903               	btfsc	3,2
  6754  0F72  2F74               	goto	u4191
  6755  0F73  2F75               	goto	u4190
  6756  0F74                     u4191:
  6757  0F74  2FA6               	goto	l2898
  6758  0F75                     u4190:
  6759  0F75                     l2890:
  6760  0F75  3001               	movlw	1
  6761  0F76  07BA               	addwf	___flmul@prod,f
  6762  0F77  3000               	movlw	0
  6763  0F78  1803               	skipnc
  6764  0F79  3001               	movlw	1
  6765  0F7A  07BB               	addwf	___flmul@prod+1,f
  6766  0F7B  3000               	movlw	0
  6767  0F7C  1803               	skipnc
  6768  0F7D  3001               	movlw	1
  6769  0F7E  07BC               	addwf	___flmul@prod+2,f
  6770  0F7F  3000               	movlw	0
  6771  0F80  1803               	skipnc
  6772  0F81  3001               	movlw	1
  6773  0F82  07BD               	addwf	___flmul@prod+3,f
  6774  0F83                     l2892:
  6775  0F83  1C3D               	btfss	___flmul@prod+3,0
  6776  0F84  2F86               	goto	u4201
  6777  0F85  2F87               	goto	u4200
  6778  0F86                     u4201:
  6779  0F86  2FA6               	goto	l2898
  6780  0F87                     u4200:
  6781  0F87                     l2894:
  6782  0F87  083A               	movf	___flmul@prod,w
  6783  0F88  00AE               	movwf	??___flmul
  6784  0F89  083B               	movf	___flmul@prod+1,w
  6785  0F8A  00AF               	movwf	??___flmul+1
  6786  0F8B  083C               	movf	___flmul@prod+2,w
  6787  0F8C  00B0               	movwf	??___flmul+2
  6788  0F8D  083D               	movf	___flmul@prod+3,w
  6789  0F8E  00B1               	movwf	??___flmul+3
  6790  0F8F  3001               	movlw	1
  6791  0F90  00B2               	movwf	??___flmul+4
  6792  0F91                     u4215:
  6793  0F91  0D31               	rlf	??___flmul+3,w
  6794  0F92  0CB1               	rrf	??___flmul+3,f
  6795  0F93  0CB0               	rrf	??___flmul+2,f
  6796  0F94  0CAF               	rrf	??___flmul+1,f
  6797  0F95  0CAE               	rrf	??___flmul,f
  6798  0F96                     u4210:
  6799  0F96  0BB2               	decfsz	??___flmul+4,f
  6800  0F97  2F91               	goto	u4215
  6801  0F98  0831               	movf	??___flmul+3,w
  6802  0F99  00BD               	movwf	___flmul@prod+3
  6803  0F9A  0830               	movf	??___flmul+2,w
  6804  0F9B  00BC               	movwf	___flmul@prod+2
  6805  0F9C  082F               	movf	??___flmul+1,w
  6806  0F9D  00BB               	movwf	___flmul@prod+1
  6807  0F9E  082E               	movf	??___flmul,w
  6808  0F9F  00BA               	movwf	___flmul@prod
  6809  0FA0                     l2896:
  6810  0FA0  3001               	movlw	1
  6811  0FA1  07BE               	addwf	___flmul@temp,f
  6812  0FA2  1803               	skipnc
  6813  0FA3  0ABF               	incf	___flmul@temp+1,f
  6814  0FA4  3000               	movlw	0
  6815  0FA5  07BF               	addwf	___flmul@temp+1,f
  6816  0FA6                     l2898:
  6817  0FA6  083F               	movf	___flmul@temp+1,w
  6818  0FA7  3A80               	xorlw	128
  6819  0FA8  00FF               	movwf	btemp+1
  6820  0FA9  3080               	movlw	128
  6821  0FAA  027F               	subwf	btemp+1,w
  6822  0FAB  1D03               	skipz
  6823  0FAC  2FAF               	goto	u4225
  6824  0FAD  30FF               	movlw	255
  6825  0FAE  023E               	subwf	___flmul@temp,w
  6826  0FAF                     u4225:
  6827  0FAF  1C03               	skipc
  6828  0FB0  2FB2               	goto	u4221
  6829  0FB1  2FB3               	goto	u4220
  6830  0FB2                     u4221:
  6831  0FB2  2FBE               	goto	l2902
  6832  0FB3                     u4220:
  6833  0FB3                     l2900:
  6834  0FB3  307F               	movlw	127
  6835  0FB4  1283               	bcf	3,5	;RP0=0, select bank0
  6836  0FB5  1303               	bcf	3,6	;RP1=0, select bank0
  6837  0FB6  00BD               	movwf	___flmul@prod+3
  6838  0FB7  3080               	movlw	128
  6839  0FB8  00BC               	movwf	___flmul@prod+2
  6840  0FB9  3000               	movlw	0
  6841  0FBA  00BB               	movwf	___flmul@prod+1
  6842  0FBB  3000               	movlw	0
  6843  0FBC  00BA               	movwf	___flmul@prod
  6844  0FBD  2FF3               	goto	l798
  6845  0FBE                     l2902:
  6846  0FBE  1283               	bcf	3,5	;RP0=0, select bank0
  6847  0FBF  1303               	bcf	3,6	;RP1=0, select bank0
  6848  0FC0  083F               	movf	___flmul@temp+1,w
  6849  0FC1  3A80               	xorlw	128
  6850  0FC2  00FF               	movwf	btemp+1
  6851  0FC3  3080               	movlw	128
  6852  0FC4  027F               	subwf	btemp+1,w
  6853  0FC5  1D03               	skipz
  6854  0FC6  2FC9               	goto	u4235
  6855  0FC7  3001               	movlw	1
  6856  0FC8  023E               	subwf	___flmul@temp,w
  6857  0FC9                     u4235:
  6858  0FC9  1803               	skipnc
  6859  0FCA  2FCC               	goto	u4231
  6860  0FCB  2FCD               	goto	u4230
  6861  0FCC                     u4231:
  6862  0FCC  2FD9               	goto	l2908
  6863  0FCD                     u4230:
  6864  0FCD                     l2904:
  6865  0FCD  3000               	movlw	0
  6866  0FCE  1283               	bcf	3,5	;RP0=0, select bank0
  6867  0FCF  1303               	bcf	3,6	;RP1=0, select bank0
  6868  0FD0  00BD               	movwf	___flmul@prod+3
  6869  0FD1  3000               	movlw	0
  6870  0FD2  00BC               	movwf	___flmul@prod+2
  6871  0FD3  3000               	movlw	0
  6872  0FD4  00BB               	movwf	___flmul@prod+1
  6873  0FD5  3000               	movlw	0
  6874  0FD6  00BA               	movwf	___flmul@prod
  6875  0FD7                     l2906:
  6876  0FD7  01B3               	clrf	___flmul@sign
  6877  0FD8  2FF3               	goto	l798
  6878  0FD9                     l2908:
  6879  0FD9  1283               	bcf	3,5	;RP0=0, select bank0
  6880  0FDA  1303               	bcf	3,6	;RP1=0, select bank0
  6881  0FDB  083E               	movf	___flmul@temp,w
  6882  0FDC  00AE               	movwf	??___flmul
  6883  0FDD  082E               	movf	??___flmul,w
  6884  0FDE  00B9               	movwf	___flmul@bexp
  6885  0FDF  30FF               	movlw	255
  6886  0FE0  05BA               	andwf	___flmul@prod,f
  6887  0FE1  30FF               	movlw	255
  6888  0FE2  05BB               	andwf	___flmul@prod+1,f
  6889  0FE3  307F               	movlw	127
  6890  0FE4  05BC               	andwf	___flmul@prod+2,f
  6891  0FE5  3000               	movlw	0
  6892  0FE6  05BD               	andwf	___flmul@prod+3,f
  6893  0FE7                     l2910:
  6894  0FE7  1C39               	btfss	___flmul@bexp,0
  6895  0FE8  2FEA               	goto	u4241
  6896  0FE9  2FEB               	goto	u4240
  6897  0FEA                     u4241:
  6898  0FEA  2FEC               	goto	l2914
  6899  0FEB                     u4240:
  6900  0FEB                     l2912:
  6901  0FEB  17BC               	bsf	___flmul@prod+2,7
  6902  0FEC                     l2914:
  6903  0FEC  0839               	movf	___flmul@bexp,w
  6904  0FED  00AE               	movwf	??___flmul
  6905  0FEE  1003               	clrc
  6906  0FEF  0C2E               	rrf	??___flmul,w
  6907  0FF0  00AF               	movwf	??___flmul+1
  6908  0FF1  082F               	movf	??___flmul+1,w
  6909  0FF2  00BD               	movwf	___flmul@prod+3
  6910  0FF3                     l798:
  6911  0FF3  0833               	movf	___flmul@sign,w
  6912  0FF4  00AE               	movwf	??___flmul
  6913  0FF5  082E               	movf	??___flmul,w
  6914  0FF6  04BD               	iorwf	___flmul@prod+3,f
  6915  0FF7                     l2916:
  6916  0FF7  083D               	movf	___flmul@prod+3,w
  6917  0FF8  00A9               	movwf	?___flmul+3
  6918  0FF9  083C               	movf	___flmul@prod+2,w
  6919  0FFA  00A8               	movwf	?___flmul+2
  6920  0FFB  083B               	movf	___flmul@prod+1,w
  6921  0FFC  00A7               	movwf	?___flmul+1
  6922  0FFD  083A               	movf	___flmul@prod,w
  6923  0FFE  00A6               	movwf	?___flmul
  6924  0FFF                     l786:
  6925  0FFF  0008               	return
  6926  1000                     __end_of___flmul:
  6927                           
  6928                           	psect	text10
  6929  197F                     __ptext10:	
  6930 ;; *************** function __Umul8_16 *****************
  6931 ;; Defined at:
  6932 ;;		line 4 in file "C:\Program Files\Microchip\xc8\v2.35\pic\sources\c90\common\Umul8_16.c"
  6933 ;; Parameters:    Size  Location     Type
  6934 ;;  multiplier      1    wreg     unsigned char 
  6935 ;;  multiplicand    1    0[COMMON] unsigned char 
  6936 ;; Auto vars:     Size  Location     Type
  6937 ;;  multiplier      1    8[COMMON] unsigned char 
  6938 ;;  word_mpld       2    6[COMMON] unsigned int 
  6939 ;;  product         2    4[COMMON] unsigned int 
  6940 ;; Return value:  Size  Location     Type
  6941 ;;                  2    0[COMMON] unsigned int 
  6942 ;; Registers used:
  6943 ;;		wreg, status,2, status,0
  6944 ;; Tracked objects:
  6945 ;;		On entry : 0/0
  6946 ;;		On exit  : 0/0
  6947 ;;		Unchanged: 0/0
  6948 ;; Data sizes:     COMMON   BANK0   BANK1   BANK3   BANK2
  6949 ;;      Params:         2       0       0       0       0
  6950 ;;      Locals:         5       0       0       0       0
  6951 ;;      Temps:          2       0       0       0       0
  6952 ;;      Totals:         9       0       0       0       0
  6953 ;;Total ram usage:        9 bytes
  6954 ;; Hardware stack levels used: 1
  6955 ;; This function calls:
  6956 ;;		Nothing
  6957 ;; This function is called by:
  6958 ;;		___flmul
  6959 ;; This function uses a non-reentrant model
  6960 ;;
  6961                           
  6962  197F                     __Umul8_16:	
  6963                           ;psect for function __Umul8_16
  6964                           
  6965                           
  6966                           ;incstack = 0
  6967                           ; Regs used in __Umul8_16: [wreg+status,2+status,0]
  6968                           ;__Umul8_16@multiplier stored from wreg
  6969  197F  00F8               	movwf	__Umul8_16@multiplier
  6970  1980                     l2436:
  6971  1980  01F4               	clrf	__Umul8_16@product
  6972  1981  01F5               	clrf	__Umul8_16@product+1
  6973  1982                     l2438:
  6974  1982  0870               	movf	__Umul8_16@multiplicand,w
  6975  1983  00F2               	movwf	??__Umul8_16
  6976  1984  01F3               	clrf	??__Umul8_16+1
  6977  1985  0872               	movf	??__Umul8_16,w
  6978  1986  00F6               	movwf	__Umul8_16@word_mpld
  6979  1987  0873               	movf	??__Umul8_16+1,w
  6980  1988  00F7               	movwf	__Umul8_16@word_mpld+1
  6981  1989                     l2440:
  6982  1989  1C78               	btfss	__Umul8_16@multiplier,0
  6983  198A  298C               	goto	u3071
  6984  198B  298D               	goto	u3070
  6985  198C                     u3071:
  6986  198C  2993               	goto	l805
  6987  198D                     u3070:
  6988  198D                     l2442:
  6989  198D  0876               	movf	__Umul8_16@word_mpld,w
  6990  198E  07F4               	addwf	__Umul8_16@product,f
  6991  198F  1803               	skipnc
  6992  1990  0AF5               	incf	__Umul8_16@product+1,f
  6993  1991  0877               	movf	__Umul8_16@word_mpld+1,w
  6994  1992  07F5               	addwf	__Umul8_16@product+1,f
  6995  1993                     l805:
  6996  1993  3001               	movlw	1
  6997  1994                     u3085:
  6998  1994  1003               	clrc
  6999  1995  0DF6               	rlf	__Umul8_16@word_mpld,f
  7000  1996  0DF7               	rlf	__Umul8_16@word_mpld+1,f
  7001  1997  3EFF               	addlw	-1
  7002  1998  1D03               	skipz
  7003  1999  2994               	goto	u3085
  7004  199A  1003               	clrc
  7005  199B  0CF8               	rrf	__Umul8_16@multiplier,f
  7006  199C                     l2444:
  7007  199C  0878               	movf	__Umul8_16@multiplier,w
  7008  199D  1D03               	btfss	3,2
  7009  199E  29A0               	goto	u3091
  7010  199F  29A1               	goto	u3090
  7011  19A0                     u3091:
  7012  19A0  2989               	goto	l2440
  7013  19A1                     u3090:
  7014  19A1                     l2446:
  7015  19A1  0875               	movf	__Umul8_16@product+1,w
  7016  19A2  00F1               	movwf	?__Umul8_16+1
  7017  19A3  0874               	movf	__Umul8_16@product,w
  7018  19A4  00F0               	movwf	?__Umul8_16
  7019  19A5                     l807:
  7020  19A5  0008               	return
  7021  19A6                     __end_of__Umul8_16:
  7022                           
  7023                           	psect	text11
  7024  1D66                     __ptext11:	
  7025 ;; *************** function __tdiv_to_l_ *****************
  7026 ;; Defined at:
  7027 ;;		line 60 in file "C:\Program Files\Microchip\xc8\v2.35\pic\sources\c90\common\ftdivl.c"
  7028 ;; Parameters:    Size  Location     Type
  7029 ;;  f1              4    0[COMMON] float 
  7030 ;;  f2              4    4[COMMON] float 
  7031 ;; Auto vars:     Size  Location     Type
  7032 ;;  quot            4    0[BANK0 ] unsigned long 
  7033 ;;  exp1            1    5[BANK0 ] unsigned char 
  7034 ;;  cntr            1    4[BANK0 ] unsigned char 
  7035 ;; Return value:  Size  Location     Type
  7036 ;;                  4    0[COMMON] unsigned long 
  7037 ;; Registers used:
  7038 ;;		wreg, status,2, status,0
  7039 ;; Tracked objects:
  7040 ;;		On entry : 0/0
  7041 ;;		On exit  : 0/0
  7042 ;;		Unchanged: 0/0
  7043 ;; Data sizes:     COMMON   BANK0   BANK1   BANK3   BANK2
  7044 ;;      Params:         8       0       0       0       0
  7045 ;;      Locals:         0       6       0       0       0
  7046 ;;      Temps:          4       0       0       0       0
  7047 ;;      Totals:        12       6       0       0       0
  7048 ;;Total ram usage:       18 bytes
  7049 ;; Hardware stack levels used: 1
  7050 ;; This function calls:
  7051 ;;		Nothing
  7052 ;; This function is called by:
  7053 ;;		_sprintf
  7054 ;; This function uses a non-reentrant model
  7055 ;;
  7056                           
  7057  1D66                     __tdiv_to_l_:	
  7058                           ;psect for function __tdiv_to_l_
  7059                           
  7060  1D66                     l3026:	
  7061                           ;incstack = 0
  7062                           ; Regs used in __tdiv_to_l_: [wreg+status,2+status,0]
  7063                           
  7064  1D66  0870               	movf	__tdiv_to_l_@f1,w
  7065  1D67  00F8               	movwf	??__tdiv_to_l_
  7066  1D68  0871               	movf	__tdiv_to_l_@f1+1,w
  7067  1D69  00F9               	movwf	??__tdiv_to_l_+1
  7068  1D6A  0872               	movf	__tdiv_to_l_@f1+2,w
  7069  1D6B  00FA               	movwf	??__tdiv_to_l_+2
  7070  1D6C  1003               	clrc
  7071  1D6D  0D79               	rlf	??__tdiv_to_l_+1,w
  7072  1D6E  0D7A               	rlf	??__tdiv_to_l_+2,w
  7073  1D6F  00FB               	movwf	??__tdiv_to_l_+3
  7074  1D70  087B               	movf	??__tdiv_to_l_+3,w
  7075  1D71  1283               	bcf	3,5	;RP0=0, select bank0
  7076  1D72  1303               	bcf	3,6	;RP1=0, select bank0
  7077  1D73  00A5               	movwf	__tdiv_to_l_@exp1
  7078  1D74  0825               	movf	__tdiv_to_l_@exp1,w
  7079  1D75  1D03               	btfss	3,2
  7080  1D76  2D78               	goto	u4551
  7081  1D77  2D79               	goto	u4550
  7082  1D78                     u4551:
  7083  1D78  2D82               	goto	l3032
  7084  1D79                     u4550:
  7085  1D79                     l3028:
  7086  1D79  3000               	movlw	0
  7087  1D7A  00F3               	movwf	?__tdiv_to_l_+3
  7088  1D7B  3000               	movlw	0
  7089  1D7C  00F2               	movwf	?__tdiv_to_l_+2
  7090  1D7D  3000               	movlw	0
  7091  1D7E  00F1               	movwf	?__tdiv_to_l_+1
  7092  1D7F  3000               	movlw	0
  7093  1D80  00F0               	movwf	?__tdiv_to_l_
  7094  1D81  2E22               	goto	l580
  7095  1D82                     l3032:
  7096  1D82  0874               	movf	__tdiv_to_l_@f2,w
  7097  1D83  00F8               	movwf	??__tdiv_to_l_
  7098  1D84  0875               	movf	__tdiv_to_l_@f2+1,w
  7099  1D85  00F9               	movwf	??__tdiv_to_l_+1
  7100  1D86  0876               	movf	__tdiv_to_l_@f2+2,w
  7101  1D87  00FA               	movwf	??__tdiv_to_l_+2
  7102  1D88  1003               	clrc
  7103  1D89  0D79               	rlf	??__tdiv_to_l_+1,w
  7104  1D8A  0D7A               	rlf	??__tdiv_to_l_+2,w
  7105  1D8B  00FB               	movwf	??__tdiv_to_l_+3
  7106  1D8C  087B               	movf	??__tdiv_to_l_+3,w
  7107  1D8D  00A4               	movwf	__tdiv_to_l_@cntr
  7108  1D8E  0824               	movf	__tdiv_to_l_@cntr,w
  7109  1D8F  1D03               	btfss	3,2
  7110  1D90  2D92               	goto	u4561
  7111  1D91  2D93               	goto	u4560
  7112  1D92                     u4561:
  7113  1D92  2D94               	goto	l581
  7114  1D93                     u4560:
  7115  1D93  2D79               	goto	l3028
  7116  1D94                     l581:
  7117  1D94  17F1               	bsf	__tdiv_to_l_@f1+1,7
  7118  1D95                     l3038:
  7119  1D95  30FF               	movlw	255
  7120  1D96  05F0               	andwf	__tdiv_to_l_@f1,f
  7121  1D97  30FF               	movlw	255
  7122  1D98  05F1               	andwf	__tdiv_to_l_@f1+1,f
  7123  1D99  3000               	movlw	0
  7124  1D9A  05F2               	andwf	__tdiv_to_l_@f1+2,f
  7125  1D9B                     l3040:
  7126  1D9B  17F5               	bsf	__tdiv_to_l_@f2+1,7
  7127  1D9C  30FF               	movlw	255
  7128  1D9D  05F4               	andwf	__tdiv_to_l_@f2,f
  7129  1D9E  30FF               	movlw	255
  7130  1D9F  05F5               	andwf	__tdiv_to_l_@f2+1,f
  7131  1DA0  3000               	movlw	0
  7132  1DA1  05F6               	andwf	__tdiv_to_l_@f2+2,f
  7133  1DA2  3000               	movlw	0
  7134  1DA3  00A3               	movwf	__tdiv_to_l_@quot+3
  7135  1DA4  3000               	movlw	0
  7136  1DA5  00A2               	movwf	__tdiv_to_l_@quot+2
  7137  1DA6  3000               	movlw	0
  7138  1DA7  00A1               	movwf	__tdiv_to_l_@quot+1
  7139  1DA8  3000               	movlw	0
  7140  1DA9  00A0               	movwf	__tdiv_to_l_@quot
  7141  1DAA                     l3042:
  7142  1DAA  307F               	movlw	127
  7143  1DAB  02A5               	subwf	__tdiv_to_l_@exp1,f
  7144  1DAC                     l3044:
  7145  1DAC  3098               	movlw	152
  7146  1DAD  0724               	addwf	__tdiv_to_l_@cntr,w
  7147  1DAE  00F8               	movwf	??__tdiv_to_l_
  7148  1DAF  0878               	movf	??__tdiv_to_l_,w
  7149  1DB0  02A5               	subwf	__tdiv_to_l_@exp1,f
  7150  1DB1  3018               	movlw	24
  7151  1DB2  00F8               	movwf	??__tdiv_to_l_
  7152  1DB3  0878               	movf	??__tdiv_to_l_,w
  7153  1DB4  00A4               	movwf	__tdiv_to_l_@cntr
  7154  1DB5                     l3046:
  7155  1DB5  3001               	movlw	1
  7156  1DB6  00F8               	movwf	??__tdiv_to_l_
  7157  1DB7                     u4575:
  7158  1DB7  1003               	clrc
  7159  1DB8  0DA0               	rlf	__tdiv_to_l_@quot,f
  7160  1DB9  0DA1               	rlf	__tdiv_to_l_@quot+1,f
  7161  1DBA  0DA2               	rlf	__tdiv_to_l_@quot+2,f
  7162  1DBB  0DA3               	rlf	__tdiv_to_l_@quot+3,f
  7163  1DBC  0BF8               	decfsz	??__tdiv_to_l_,f
  7164  1DBD  2DB7               	goto	u4575
  7165  1DBE                     l3048:
  7166  1DBE  0876               	movf	__tdiv_to_l_@f2+2,w
  7167  1DBF  0272               	subwf	__tdiv_to_l_@f1+2,w
  7168  1DC0  1D03               	skipz
  7169  1DC1  2DC8               	goto	u4585
  7170  1DC2  0875               	movf	__tdiv_to_l_@f2+1,w
  7171  1DC3  0271               	subwf	__tdiv_to_l_@f1+1,w
  7172  1DC4  1D03               	skipz
  7173  1DC5  2DC8               	goto	u4585
  7174  1DC6  0874               	movf	__tdiv_to_l_@f2,w
  7175  1DC7  0270               	subwf	__tdiv_to_l_@f1,w
  7176  1DC8                     u4585:
  7177  1DC8  1C03               	skipc
  7178  1DC9  2DCB               	goto	u4581
  7179  1DCA  2DCC               	goto	u4580
  7180  1DCB                     u4581:
  7181  1DCB  2DD7               	goto	l3054
  7182  1DCC                     u4580:
  7183  1DCC                     l3050:
  7184  1DCC  0874               	movf	__tdiv_to_l_@f2,w
  7185  1DCD  02F0               	subwf	__tdiv_to_l_@f1,f
  7186  1DCE  0875               	movf	__tdiv_to_l_@f2+1,w
  7187  1DCF  1C03               	skipc
  7188  1DD0  0F75               	incfsz	__tdiv_to_l_@f2+1,w
  7189  1DD1  02F1               	subwf	__tdiv_to_l_@f1+1,f
  7190  1DD2  0876               	movf	__tdiv_to_l_@f2+2,w
  7191  1DD3  1C03               	skipc
  7192  1DD4  0A76               	incf	__tdiv_to_l_@f2+2,w
  7193  1DD5  02F2               	subwf	__tdiv_to_l_@f1+2,f
  7194  1DD6                     l3052:
  7195  1DD6  1420               	bsf	__tdiv_to_l_@quot,0
  7196  1DD7                     l3054:
  7197  1DD7  3001               	movlw	1
  7198  1DD8                     u4595:
  7199  1DD8  1003               	clrc
  7200  1DD9  0DF0               	rlf	__tdiv_to_l_@f1,f
  7201  1DDA  0DF1               	rlf	__tdiv_to_l_@f1+1,f
  7202  1DDB  0DF2               	rlf	__tdiv_to_l_@f1+2,f
  7203  1DDC  3EFF               	addlw	-1
  7204  1DDD  1D03               	skipz
  7205  1DDE  2DD8               	goto	u4595
  7206  1DDF                     l3056:
  7207  1DDF  3001               	movlw	1
  7208  1DE0  02A4               	subwf	__tdiv_to_l_@cntr,f
  7209  1DE1  1D03               	btfss	3,2
  7210  1DE2  2DE4               	goto	u4601
  7211  1DE3  2DE5               	goto	u4600
  7212  1DE4                     u4601:
  7213  1DE4  2DB5               	goto	l3046
  7214  1DE5                     u4600:
  7215  1DE5                     l584:
  7216  1DE5  1FA5               	btfss	__tdiv_to_l_@exp1,7
  7217  1DE6  2DE8               	goto	u4611
  7218  1DE7  2DE9               	goto	u4610
  7219  1DE8                     u4611:
  7220  1DE8  2E03               	goto	l3066
  7221  1DE9                     u4610:
  7222  1DE9                     l3058:
  7223  1DE9  0825               	movf	__tdiv_to_l_@exp1,w
  7224  1DEA  3A80               	xorlw	128
  7225  1DEB  3E97               	addlw	151
  7226  1DEC  1803               	skipnc
  7227  1DED  2DEF               	goto	u4621
  7228  1DEE  2DF0               	goto	u4620
  7229  1DEF                     u4621:
  7230  1DEF  2DF1               	goto	l3064
  7231  1DF0                     u4620:
  7232  1DF0  2D79               	goto	l3028
  7233  1DF1                     l3064:
  7234  1DF1  3001               	movlw	1
  7235  1DF2                     u4635:
  7236  1DF2  1003               	clrc
  7237  1DF3  0CA3               	rrf	__tdiv_to_l_@quot+3,f
  7238  1DF4  0CA2               	rrf	__tdiv_to_l_@quot+2,f
  7239  1DF5  0CA1               	rrf	__tdiv_to_l_@quot+1,f
  7240  1DF6  0CA0               	rrf	__tdiv_to_l_@quot,f
  7241  1DF7  3EFF               	addlw	-1
  7242  1DF8  1D03               	skipz
  7243  1DF9  2DF2               	goto	u4635
  7244  1DFA  3001               	movlw	1
  7245  1DFB  00F8               	movwf	??__tdiv_to_l_
  7246  1DFC  0878               	movf	??__tdiv_to_l_,w
  7247  1DFD  07A5               	addwf	__tdiv_to_l_@exp1,f
  7248  1DFE  1D03               	btfss	3,2
  7249  1DFF  2E01               	goto	u4641
  7250  1E00  2E02               	goto	u4640
  7251  1E01                     u4641:
  7252  1E01  2DF1               	goto	l3064
  7253  1E02                     u4640:
  7254  1E02  2E1A               	goto	l3074
  7255  1E03                     l3066:
  7256  1E03  3018               	movlw	24
  7257  1E04  0225               	subwf	__tdiv_to_l_@exp1,w
  7258  1E05  1C03               	skipc
  7259  1E06  2E08               	goto	u4651
  7260  1E07  2E09               	goto	u4650
  7261  1E08                     u4651:
  7262  1E08  2E15               	goto	l591
  7263  1E09                     u4650:
  7264  1E09  2D79               	goto	l3028
  7265  1E0A                     l3072:
  7266  1E0A  3001               	movlw	1
  7267  1E0B  00F8               	movwf	??__tdiv_to_l_
  7268  1E0C                     u4665:
  7269  1E0C  1003               	clrc
  7270  1E0D  0DA0               	rlf	__tdiv_to_l_@quot,f
  7271  1E0E  0DA1               	rlf	__tdiv_to_l_@quot+1,f
  7272  1E0F  0DA2               	rlf	__tdiv_to_l_@quot+2,f
  7273  1E10  0DA3               	rlf	__tdiv_to_l_@quot+3,f
  7274  1E11  0BF8               	decfsz	??__tdiv_to_l_,f
  7275  1E12  2E0C               	goto	u4665
  7276  1E13  3001               	movlw	1
  7277  1E14  02A5               	subwf	__tdiv_to_l_@exp1,f
  7278  1E15                     l591:
  7279  1E15  0825               	movf	__tdiv_to_l_@exp1,w
  7280  1E16  1D03               	btfss	3,2
  7281  1E17  2E19               	goto	u4671
  7282  1E18  2E1A               	goto	u4670
  7283  1E19                     u4671:
  7284  1E19  2E0A               	goto	l3072
  7285  1E1A                     u4670:
  7286  1E1A                     l3074:
  7287  1E1A  0823               	movf	__tdiv_to_l_@quot+3,w
  7288  1E1B  00F3               	movwf	?__tdiv_to_l_+3
  7289  1E1C  0822               	movf	__tdiv_to_l_@quot+2,w
  7290  1E1D  00F2               	movwf	?__tdiv_to_l_+2
  7291  1E1E  0821               	movf	__tdiv_to_l_@quot+1,w
  7292  1E1F  00F1               	movwf	?__tdiv_to_l_+1
  7293  1E20  0820               	movf	__tdiv_to_l_@quot,w
  7294  1E21  00F0               	movwf	?__tdiv_to_l_
  7295  1E22                     l580:
  7296  1E22  0008               	return
  7297  1E23                     __end_of__tdiv_to_l_:
  7298                           
  7299                           	psect	text12
  7300  102D                     __ptext12:	
  7301 ;; *************** function __div_to_l_ *****************
  7302 ;; Defined at:
  7303 ;;		line 60 in file "C:\Program Files\Microchip\xc8\v2.35\pic\sources\c90\common\fldivl.c"
  7304 ;; Parameters:    Size  Location     Type
  7305 ;;  f1              4    0[COMMON] unsigned long 
  7306 ;;  f2              4    4[COMMON] unsigned long 
  7307 ;; Auto vars:     Size  Location     Type
  7308 ;;  quot            4    0[BANK0 ] unsigned long 
  7309 ;;  exp1            1    5[BANK0 ] unsigned char 
  7310 ;;  cntr            1    4[BANK0 ] unsigned char 
  7311 ;; Return value:  Size  Location     Type
  7312 ;;                  4    0[COMMON] unsigned long 
  7313 ;; Registers used:
  7314 ;;		wreg, status,2, status,0
  7315 ;; Tracked objects:
  7316 ;;		On entry : 0/0
  7317 ;;		On exit  : 0/0
  7318 ;;		Unchanged: 0/0
  7319 ;; Data sizes:     COMMON   BANK0   BANK1   BANK3   BANK2
  7320 ;;      Params:         8       0       0       0       0
  7321 ;;      Locals:         0       6       0       0       0
  7322 ;;      Temps:          1       0       0       0       0
  7323 ;;      Totals:         9       6       0       0       0
  7324 ;;Total ram usage:       15 bytes
  7325 ;; Hardware stack levels used: 1
  7326 ;; This function calls:
  7327 ;;		Nothing
  7328 ;; This function is called by:
  7329 ;;		_sprintf
  7330 ;; This function uses a non-reentrant model
  7331 ;;
  7332                           
  7333  102D                     __div_to_l_:	
  7334                           ;psect for function __div_to_l_
  7335                           
  7336  102D                     l3078:	
  7337                           ;incstack = 0
  7338                           ; Regs used in __div_to_l_: [wreg+status,2+status,0]
  7339                           
  7340  102D  1003               	clrc
  7341  102E  0D72               	rlf	__div_to_l_@f1+2,w
  7342  102F  0D73               	rlf	__div_to_l_@f1+3,w
  7343  1030  00F8               	movwf	??__div_to_l_
  7344  1031  0878               	movf	??__div_to_l_,w
  7345  1032  1283               	bcf	3,5	;RP0=0, select bank0
  7346  1033  1303               	bcf	3,6	;RP1=0, select bank0
  7347  1034  00A5               	movwf	__div_to_l_@exp1
  7348  1035  0825               	movf	__div_to_l_@exp1,w
  7349  1036  1D03               	btfss	3,2
  7350  1037  2839               	goto	u4681
  7351  1038  283A               	goto	u4680
  7352  1039                     u4681:
  7353  1039  2843               	goto	l3084
  7354  103A                     u4680:
  7355  103A                     l3080:
  7356  103A  3000               	movlw	0
  7357  103B  00F3               	movwf	?__div_to_l_+3
  7358  103C  3000               	movlw	0
  7359  103D  00F2               	movwf	?__div_to_l_+2
  7360  103E  3000               	movlw	0
  7361  103F  00F1               	movwf	?__div_to_l_+1
  7362  1040  3000               	movlw	0
  7363  1041  00F0               	movwf	?__div_to_l_
  7364  1042  28EA               	goto	l533
  7365  1043                     l3084:
  7366  1043  1003               	clrc
  7367  1044  0D76               	rlf	__div_to_l_@f2+2,w
  7368  1045  0D77               	rlf	__div_to_l_@f2+3,w
  7369  1046  00F8               	movwf	??__div_to_l_
  7370  1047  0878               	movf	??__div_to_l_,w
  7371  1048  00A4               	movwf	__div_to_l_@cntr
  7372  1049  0824               	movf	__div_to_l_@cntr,w
  7373  104A  1D03               	btfss	3,2
  7374  104B  284D               	goto	u4691
  7375  104C  284E               	goto	u4690
  7376  104D                     u4691:
  7377  104D  284F               	goto	l534
  7378  104E                     u4690:
  7379  104E  283A               	goto	l3080
  7380  104F                     l534:
  7381  104F  17F2               	bsf	__div_to_l_@f1+2,7
  7382  1050                     l3090:
  7383  1050  30FF               	movlw	255
  7384  1051  05F0               	andwf	__div_to_l_@f1,f
  7385  1052  30FF               	movlw	255
  7386  1053  05F1               	andwf	__div_to_l_@f1+1,f
  7387  1054  30FF               	movlw	255
  7388  1055  05F2               	andwf	__div_to_l_@f1+2,f
  7389  1056  3000               	movlw	0
  7390  1057  05F3               	andwf	__div_to_l_@f1+3,f
  7391  1058                     l3092:
  7392  1058  17F6               	bsf	__div_to_l_@f2+2,7
  7393  1059  30FF               	movlw	255
  7394  105A  05F4               	andwf	__div_to_l_@f2,f
  7395  105B  30FF               	movlw	255
  7396  105C  05F5               	andwf	__div_to_l_@f2+1,f
  7397  105D  30FF               	movlw	255
  7398  105E  05F6               	andwf	__div_to_l_@f2+2,f
  7399  105F  3000               	movlw	0
  7400  1060  05F7               	andwf	__div_to_l_@f2+3,f
  7401  1061  3000               	movlw	0
  7402  1062  00A3               	movwf	__div_to_l_@quot+3
  7403  1063  3000               	movlw	0
  7404  1064  00A2               	movwf	__div_to_l_@quot+2
  7405  1065  3000               	movlw	0
  7406  1066  00A1               	movwf	__div_to_l_@quot+1
  7407  1067  3000               	movlw	0
  7408  1068  00A0               	movwf	__div_to_l_@quot
  7409  1069                     l3094:
  7410  1069  307F               	movlw	127
  7411  106A  02A5               	subwf	__div_to_l_@exp1,f
  7412  106B                     l3096:
  7413  106B  30A0               	movlw	160
  7414  106C  0724               	addwf	__div_to_l_@cntr,w
  7415  106D  00F8               	movwf	??__div_to_l_
  7416  106E  0878               	movf	??__div_to_l_,w
  7417  106F  02A5               	subwf	__div_to_l_@exp1,f
  7418  1070  3020               	movlw	32
  7419  1071  00F8               	movwf	??__div_to_l_
  7420  1072  0878               	movf	??__div_to_l_,w
  7421  1073  00A4               	movwf	__div_to_l_@cntr
  7422  1074                     l3098:
  7423  1074  3001               	movlw	1
  7424  1075  00F8               	movwf	??__div_to_l_
  7425  1076                     u4705:
  7426  1076  1003               	clrc
  7427  1077  0DA0               	rlf	__div_to_l_@quot,f
  7428  1078  0DA1               	rlf	__div_to_l_@quot+1,f
  7429  1079  0DA2               	rlf	__div_to_l_@quot+2,f
  7430  107A  0DA3               	rlf	__div_to_l_@quot+3,f
  7431  107B  0BF8               	decfsz	??__div_to_l_,f
  7432  107C  2876               	goto	u4705
  7433  107D                     l3100:
  7434  107D  0877               	movf	__div_to_l_@f2+3,w
  7435  107E  0273               	subwf	__div_to_l_@f1+3,w
  7436  107F  1D03               	skipz
  7437  1080  288B               	goto	u4715
  7438  1081  0876               	movf	__div_to_l_@f2+2,w
  7439  1082  0272               	subwf	__div_to_l_@f1+2,w
  7440  1083  1D03               	skipz
  7441  1084  288B               	goto	u4715
  7442  1085  0875               	movf	__div_to_l_@f2+1,w
  7443  1086  0271               	subwf	__div_to_l_@f1+1,w
  7444  1087  1D03               	skipz
  7445  1088  288B               	goto	u4715
  7446  1089  0874               	movf	__div_to_l_@f2,w
  7447  108A  0270               	subwf	__div_to_l_@f1,w
  7448  108B                     u4715:
  7449  108B  1C03               	skipc
  7450  108C  288E               	goto	u4711
  7451  108D  288F               	goto	u4710
  7452  108E                     u4711:
  7453  108E  289E               	goto	l3106
  7454  108F                     u4710:
  7455  108F                     l3102:
  7456  108F  0874               	movf	__div_to_l_@f2,w
  7457  1090  02F0               	subwf	__div_to_l_@f1,f
  7458  1091  0875               	movf	__div_to_l_@f2+1,w
  7459  1092  1C03               	skipc
  7460  1093  0F75               	incfsz	__div_to_l_@f2+1,w
  7461  1094  02F1               	subwf	__div_to_l_@f1+1,f
  7462  1095  0876               	movf	__div_to_l_@f2+2,w
  7463  1096  1C03               	skipc
  7464  1097  0F76               	incfsz	__div_to_l_@f2+2,w
  7465  1098  02F2               	subwf	__div_to_l_@f1+2,f
  7466  1099  0877               	movf	__div_to_l_@f2+3,w
  7467  109A  1C03               	skipc
  7468  109B  0F77               	incfsz	__div_to_l_@f2+3,w
  7469  109C  02F3               	subwf	__div_to_l_@f1+3,f
  7470  109D                     l3104:
  7471  109D  1420               	bsf	__div_to_l_@quot,0
  7472  109E                     l3106:
  7473  109E  3001               	movlw	1
  7474  109F  00F8               	movwf	??__div_to_l_
  7475  10A0                     u4725:
  7476  10A0  1003               	clrc
  7477  10A1  0DF0               	rlf	__div_to_l_@f1,f
  7478  10A2  0DF1               	rlf	__div_to_l_@f1+1,f
  7479  10A3  0DF2               	rlf	__div_to_l_@f1+2,f
  7480  10A4  0DF3               	rlf	__div_to_l_@f1+3,f
  7481  10A5  0BF8               	decfsz	??__div_to_l_,f
  7482  10A6  28A0               	goto	u4725
  7483  10A7                     l3108:
  7484  10A7  3001               	movlw	1
  7485  10A8  02A4               	subwf	__div_to_l_@cntr,f
  7486  10A9  1D03               	btfss	3,2
  7487  10AA  28AC               	goto	u4731
  7488  10AB  28AD               	goto	u4730
  7489  10AC                     u4731:
  7490  10AC  2874               	goto	l3098
  7491  10AD                     u4730:
  7492  10AD                     l537:
  7493  10AD  1FA5               	btfss	__div_to_l_@exp1,7
  7494  10AE  28B0               	goto	u4741
  7495  10AF  28B1               	goto	u4740
  7496  10B0                     u4741:
  7497  10B0  28CB               	goto	l3118
  7498  10B1                     u4740:
  7499  10B1                     l3110:
  7500  10B1  0825               	movf	__div_to_l_@exp1,w
  7501  10B2  3A80               	xorlw	128
  7502  10B3  3E9F               	addlw	159
  7503  10B4  1803               	skipnc
  7504  10B5  28B7               	goto	u4751
  7505  10B6  28B8               	goto	u4750
  7506  10B7                     u4751:
  7507  10B7  28B9               	goto	l3116
  7508  10B8                     u4750:
  7509  10B8  283A               	goto	l3080
  7510  10B9                     l3116:
  7511  10B9  3001               	movlw	1
  7512  10BA                     u4765:
  7513  10BA  1003               	clrc
  7514  10BB  0CA3               	rrf	__div_to_l_@quot+3,f
  7515  10BC  0CA2               	rrf	__div_to_l_@quot+2,f
  7516  10BD  0CA1               	rrf	__div_to_l_@quot+1,f
  7517  10BE  0CA0               	rrf	__div_to_l_@quot,f
  7518  10BF  3EFF               	addlw	-1
  7519  10C0  1D03               	skipz
  7520  10C1  28BA               	goto	u4765
  7521  10C2  3001               	movlw	1
  7522  10C3  00F8               	movwf	??__div_to_l_
  7523  10C4  0878               	movf	??__div_to_l_,w
  7524  10C5  07A5               	addwf	__div_to_l_@exp1,f
  7525  10C6  1D03               	btfss	3,2
  7526  10C7  28C9               	goto	u4771
  7527  10C8  28CA               	goto	u4770
  7528  10C9                     u4771:
  7529  10C9  28B9               	goto	l3116
  7530  10CA                     u4770:
  7531  10CA  28E2               	goto	l3126
  7532  10CB                     l3118:
  7533  10CB  3020               	movlw	32
  7534  10CC  0225               	subwf	__div_to_l_@exp1,w
  7535  10CD  1C03               	skipc
  7536  10CE  28D0               	goto	u4781
  7537  10CF  28D1               	goto	u4780
  7538  10D0                     u4781:
  7539  10D0  28DD               	goto	l544
  7540  10D1                     u4780:
  7541  10D1  283A               	goto	l3080
  7542  10D2                     l3124:
  7543  10D2  3001               	movlw	1
  7544  10D3  00F8               	movwf	??__div_to_l_
  7545  10D4                     u4795:
  7546  10D4  1003               	clrc
  7547  10D5  0DA0               	rlf	__div_to_l_@quot,f
  7548  10D6  0DA1               	rlf	__div_to_l_@quot+1,f
  7549  10D7  0DA2               	rlf	__div_to_l_@quot+2,f
  7550  10D8  0DA3               	rlf	__div_to_l_@quot+3,f
  7551  10D9  0BF8               	decfsz	??__div_to_l_,f
  7552  10DA  28D4               	goto	u4795
  7553  10DB  3001               	movlw	1
  7554  10DC  02A5               	subwf	__div_to_l_@exp1,f
  7555  10DD                     l544:
  7556  10DD  0825               	movf	__div_to_l_@exp1,w
  7557  10DE  1D03               	btfss	3,2
  7558  10DF  28E1               	goto	u4801
  7559  10E0  28E2               	goto	u4800
  7560  10E1                     u4801:
  7561  10E1  28D2               	goto	l3124
  7562  10E2                     u4800:
  7563  10E2                     l3126:
  7564  10E2  0823               	movf	__div_to_l_@quot+3,w
  7565  10E3  00F3               	movwf	?__div_to_l_+3
  7566  10E4  0822               	movf	__div_to_l_@quot+2,w
  7567  10E5  00F2               	movwf	?__div_to_l_+2
  7568  10E6  0821               	movf	__div_to_l_@quot+1,w
  7569  10E7  00F1               	movwf	?__div_to_l_+1
  7570  10E8  0820               	movf	__div_to_l_@quot,w
  7571  10E9  00F0               	movwf	?__div_to_l_
  7572  10EA                     l533:
  7573  10EA  0008               	return
  7574  10EB                     __end_of__div_to_l_:
  7575                           
  7576                           	psect	text13
  7577  1CAA                     __ptext13:	
  7578 ;; *************** function ___xxtofl *****************
  7579 ;; Defined at:
  7580 ;;		line 10 in file "C:\Program Files\Microchip\xc8\v2.35\pic\sources\c90\common\xxtofl.c"
  7581 ;; Parameters:    Size  Location     Type
  7582 ;;  sign            1    wreg     unsigned char 
  7583 ;;  val             4    4[COMMON] long 
  7584 ;; Auto vars:     Size  Location     Type
  7585 ;;  sign            1    0[BANK0 ] unsigned char 
  7586 ;;  arg             4    2[BANK0 ] unsigned long 
  7587 ;;  exp             1    1[BANK0 ] unsigned char 
  7588 ;; Return value:  Size  Location     Type
  7589 ;;                  4    4[COMMON] unsigned char 
  7590 ;; Registers used:
  7591 ;;		wreg, status,2, status,0
  7592 ;; Tracked objects:
  7593 ;;		On entry : 0/0
  7594 ;;		On exit  : 0/0
  7595 ;;		Unchanged: 0/0
  7596 ;; Data sizes:     COMMON   BANK0   BANK1   BANK3   BANK2
  7597 ;;      Params:         4       0       0       0       0
  7598 ;;      Locals:         0       6       0       0       0
  7599 ;;      Temps:          4       0       0       0       0
  7600 ;;      Totals:         8       6       0       0       0
  7601 ;;Total ram usage:       14 bytes
  7602 ;; Hardware stack levels used: 1
  7603 ;; This function calls:
  7604 ;;		Nothing
  7605 ;; This function is called by:
  7606 ;;		_main
  7607 ;;		_sprintf
  7608 ;; This function uses a non-reentrant model
  7609 ;;
  7610                           
  7611  1CAA                     ___xxtofl:	
  7612                           ;psect for function ___xxtofl
  7613                           
  7614                           
  7615                           ;incstack = 0
  7616                           ; Regs used in ___xxtofl: [wreg+status,2+status,0]
  7617                           ;___xxtofl@sign stored from wreg
  7618  1CAA  1283               	bcf	3,5	;RP0=0, select bank0
  7619  1CAB  1303               	bcf	3,6	;RP1=0, select bank0
  7620  1CAC  00A0               	movwf	___xxtofl@sign
  7621  1CAD                     l3270:
  7622  1CAD  0820               	movf	___xxtofl@sign,w
  7623  1CAE  1903               	btfsc	3,2
  7624  1CAF  2CB1               	goto	u5191
  7625  1CB0  2CB2               	goto	u5190
  7626  1CB1                     u5191:
  7627  1CB1  2CC6               	goto	l3276
  7628  1CB2                     u5190:
  7629  1CB2                     l3272:
  7630  1CB2  1FF7               	btfss	___xxtofl@val+3,7
  7631  1CB3  2CB5               	goto	u5201
  7632  1CB4  2CB6               	goto	u5200
  7633  1CB5                     u5201:
  7634  1CB5  2CC6               	goto	l3276
  7635  1CB6                     u5200:
  7636  1CB6                     l3274:
  7637  1CB6  0974               	comf	___xxtofl@val,w
  7638  1CB7  00A2               	movwf	___xxtofl@arg
  7639  1CB8  0975               	comf	___xxtofl@val+1,w
  7640  1CB9  00A3               	movwf	___xxtofl@arg+1
  7641  1CBA  0976               	comf	___xxtofl@val+2,w
  7642  1CBB  00A4               	movwf	___xxtofl@arg+2
  7643  1CBC  0977               	comf	___xxtofl@val+3,w
  7644  1CBD  00A5               	movwf	___xxtofl@arg+3
  7645  1CBE  0AA2               	incf	___xxtofl@arg,f
  7646  1CBF  1903               	skipnz
  7647  1CC0  0AA3               	incf	___xxtofl@arg+1,f
  7648  1CC1  1903               	skipnz
  7649  1CC2  0AA4               	incf	___xxtofl@arg+2,f
  7650  1CC3  1903               	skipnz
  7651  1CC4  0AA5               	incf	___xxtofl@arg+3,f
  7652  1CC5  2CCE               	goto	l830
  7653  1CC6                     l3276:
  7654  1CC6  0877               	movf	___xxtofl@val+3,w
  7655  1CC7  00A5               	movwf	___xxtofl@arg+3
  7656  1CC8  0876               	movf	___xxtofl@val+2,w
  7657  1CC9  00A4               	movwf	___xxtofl@arg+2
  7658  1CCA  0875               	movf	___xxtofl@val+1,w
  7659  1CCB  00A3               	movwf	___xxtofl@arg+1
  7660  1CCC  0874               	movf	___xxtofl@val,w
  7661  1CCD  00A2               	movwf	___xxtofl@arg
  7662  1CCE                     l830:
  7663  1CCE  0877               	movf	___xxtofl@val+3,w
  7664  1CCF  0476               	iorwf	___xxtofl@val+2,w
  7665  1CD0  0475               	iorwf	___xxtofl@val+1,w
  7666  1CD1  0474               	iorwf	___xxtofl@val,w
  7667  1CD2  1D03               	skipz
  7668  1CD3  2CD5               	goto	u5211
  7669  1CD4  2CD6               	goto	u5210
  7670  1CD5                     u5211:
  7671  1CD5  2CDF               	goto	l3282
  7672  1CD6                     u5210:
  7673  1CD6                     l3278:
  7674  1CD6  3000               	movlw	0
  7675  1CD7  00F7               	movwf	?___xxtofl+3
  7676  1CD8  3000               	movlw	0
  7677  1CD9  00F6               	movwf	?___xxtofl+2
  7678  1CDA  3000               	movlw	0
  7679  1CDB  00F5               	movwf	?___xxtofl+1
  7680  1CDC  3000               	movlw	0
  7681  1CDD  00F4               	movwf	?___xxtofl
  7682  1CDE  2D65               	goto	l832
  7683  1CDF                     l3282:
  7684  1CDF  3096               	movlw	150
  7685  1CE0  00F8               	movwf	??___xxtofl
  7686  1CE1  0878               	movf	??___xxtofl,w
  7687  1CE2  00A1               	movwf	___xxtofl@exp
  7688  1CE3  2CF1               	goto	l3286
  7689  1CE4                     l3284:
  7690  1CE4  3001               	movlw	1
  7691  1CE5  00F8               	movwf	??___xxtofl
  7692  1CE6  0878               	movf	??___xxtofl,w
  7693  1CE7  07A1               	addwf	___xxtofl@exp,f
  7694  1CE8  3001               	movlw	1
  7695  1CE9                     u5225:
  7696  1CE9  1003               	clrc
  7697  1CEA  0CA5               	rrf	___xxtofl@arg+3,f
  7698  1CEB  0CA4               	rrf	___xxtofl@arg+2,f
  7699  1CEC  0CA3               	rrf	___xxtofl@arg+1,f
  7700  1CED  0CA2               	rrf	___xxtofl@arg,f
  7701  1CEE  3EFF               	addlw	-1
  7702  1CEF  1D03               	skipz
  7703  1CF0  2CE9               	goto	u5225
  7704  1CF1                     l3286:
  7705  1CF1  30FE               	movlw	254
  7706  1CF2  0525               	andwf	___xxtofl@arg+3,w
  7707  1CF3  1D03               	btfss	3,2
  7708  1CF4  2CF6               	goto	u5231
  7709  1CF5  2CF7               	goto	u5230
  7710  1CF6                     u5231:
  7711  1CF6  2CE4               	goto	l3284
  7712  1CF7                     u5230:
  7713  1CF7  2D13               	goto	l836
  7714  1CF8                     l3288:
  7715  1CF8  3001               	movlw	1
  7716  1CF9  00F8               	movwf	??___xxtofl
  7717  1CFA  0878               	movf	??___xxtofl,w
  7718  1CFB  07A1               	addwf	___xxtofl@exp,f
  7719  1CFC                     l3290:
  7720  1CFC  3001               	movlw	1
  7721  1CFD  07A2               	addwf	___xxtofl@arg,f
  7722  1CFE  3000               	movlw	0
  7723  1CFF  1803               	skipnc
  7724  1D00  3001               	movlw	1
  7725  1D01  07A3               	addwf	___xxtofl@arg+1,f
  7726  1D02  3000               	movlw	0
  7727  1D03  1803               	skipnc
  7728  1D04  3001               	movlw	1
  7729  1D05  07A4               	addwf	___xxtofl@arg+2,f
  7730  1D06  3000               	movlw	0
  7731  1D07  1803               	skipnc
  7732  1D08  3001               	movlw	1
  7733  1D09  07A5               	addwf	___xxtofl@arg+3,f
  7734  1D0A                     l3292:
  7735  1D0A  3001               	movlw	1
  7736  1D0B                     u5245:
  7737  1D0B  1003               	clrc
  7738  1D0C  0CA5               	rrf	___xxtofl@arg+3,f
  7739  1D0D  0CA4               	rrf	___xxtofl@arg+2,f
  7740  1D0E  0CA3               	rrf	___xxtofl@arg+1,f
  7741  1D0F  0CA2               	rrf	___xxtofl@arg,f
  7742  1D10  3EFF               	addlw	-1
  7743  1D11  1D03               	skipz
  7744  1D12  2D0B               	goto	u5245
  7745  1D13                     l836:
  7746  1D13  30FF               	movlw	255
  7747  1D14  0525               	andwf	___xxtofl@arg+3,w
  7748  1D15  1D03               	btfss	3,2
  7749  1D16  2D18               	goto	u5251
  7750  1D17  2D19               	goto	u5250
  7751  1D18                     u5251:
  7752  1D18  2CF8               	goto	l3288
  7753  1D19                     u5250:
  7754  1D19  2D25               	goto	l3296
  7755  1D1A                     l3294:
  7756  1D1A  3001               	movlw	1
  7757  1D1B  02A1               	subwf	___xxtofl@exp,f
  7758  1D1C  3001               	movlw	1
  7759  1D1D  00F8               	movwf	??___xxtofl
  7760  1D1E                     u5265:
  7761  1D1E  1003               	clrc
  7762  1D1F  0DA2               	rlf	___xxtofl@arg,f
  7763  1D20  0DA3               	rlf	___xxtofl@arg+1,f
  7764  1D21  0DA4               	rlf	___xxtofl@arg+2,f
  7765  1D22  0DA5               	rlf	___xxtofl@arg+3,f
  7766  1D23  0BF8               	decfsz	??___xxtofl,f
  7767  1D24  2D1E               	goto	u5265
  7768  1D25                     l3296:
  7769  1D25  1BA4               	btfsc	___xxtofl@arg+2,7
  7770  1D26  2D28               	goto	u5271
  7771  1D27  2D29               	goto	u5270
  7772  1D28                     u5271:
  7773  1D28  2D2F               	goto	l843
  7774  1D29                     u5270:
  7775  1D29                     l3298:
  7776  1D29  3002               	movlw	2
  7777  1D2A  0221               	subwf	___xxtofl@exp,w
  7778  1D2B  1803               	skipnc
  7779  1D2C  2D2E               	goto	u5281
  7780  1D2D  2D2F               	goto	u5280
  7781  1D2E                     u5281:
  7782  1D2E  2D1A               	goto	l3294
  7783  1D2F                     u5280:
  7784  1D2F                     l843:
  7785  1D2F  1821               	btfsc	___xxtofl@exp,0
  7786  1D30  2D32               	goto	u5291
  7787  1D31  2D33               	goto	u5290
  7788  1D32                     u5291:
  7789  1D32  2D3B               	goto	l844
  7790  1D33                     u5290:
  7791  1D33                     l3300:
  7792  1D33  30FF               	movlw	255
  7793  1D34  05A2               	andwf	___xxtofl@arg,f
  7794  1D35  30FF               	movlw	255
  7795  1D36  05A3               	andwf	___xxtofl@arg+1,f
  7796  1D37  307F               	movlw	127
  7797  1D38  05A4               	andwf	___xxtofl@arg+2,f
  7798  1D39  30FF               	movlw	255
  7799  1D3A  05A5               	andwf	___xxtofl@arg+3,f
  7800  1D3B                     l844:
  7801  1D3B  1003               	clrc
  7802  1D3C  0CA1               	rrf	___xxtofl@exp,f
  7803  1D3D                     l3302:
  7804  1D3D  0821               	movf	___xxtofl@exp,w
  7805  1D3E  00F8               	movwf	??___xxtofl
  7806  1D3F  01F9               	clrf	??___xxtofl+1
  7807  1D40  01FA               	clrf	??___xxtofl+2
  7808  1D41  01FB               	clrf	??___xxtofl+3
  7809  1D42  3018               	movlw	24
  7810  1D43                     u5305:
  7811  1D43  1003               	clrc
  7812  1D44  0DF8               	rlf	??___xxtofl,f
  7813  1D45  0DF9               	rlf	??___xxtofl+1,f
  7814  1D46  0DFA               	rlf	??___xxtofl+2,f
  7815  1D47  0DFB               	rlf	??___xxtofl+3,f
  7816  1D48                     u5300:
  7817  1D48  3EFF               	addlw	-1
  7818  1D49  1D03               	skipz
  7819  1D4A  2D43               	goto	u5305
  7820  1D4B  0878               	movf	??___xxtofl,w
  7821  1D4C  04A2               	iorwf	___xxtofl@arg,f
  7822  1D4D  0879               	movf	??___xxtofl+1,w
  7823  1D4E  04A3               	iorwf	___xxtofl@arg+1,f
  7824  1D4F  087A               	movf	??___xxtofl+2,w
  7825  1D50  04A4               	iorwf	___xxtofl@arg+2,f
  7826  1D51  087B               	movf	??___xxtofl+3,w
  7827  1D52  04A5               	iorwf	___xxtofl@arg+3,f
  7828  1D53                     l3304:
  7829  1D53  0820               	movf	___xxtofl@sign,w
  7830  1D54  1903               	btfsc	3,2
  7831  1D55  2D57               	goto	u5311
  7832  1D56  2D58               	goto	u5310
  7833  1D57                     u5311:
  7834  1D57  2D5D               	goto	l3310
  7835  1D58                     u5310:
  7836  1D58                     l3306:
  7837  1D58  1FF7               	btfss	___xxtofl@val+3,7
  7838  1D59  2D5B               	goto	u5321
  7839  1D5A  2D5C               	goto	u5320
  7840  1D5B                     u5321:
  7841  1D5B  2D5D               	goto	l3310
  7842  1D5C                     u5320:
  7843  1D5C                     l3308:
  7844  1D5C  17A5               	bsf	___xxtofl@arg+3,7
  7845  1D5D                     l3310:
  7846  1D5D  0825               	movf	___xxtofl@arg+3,w
  7847  1D5E  00F7               	movwf	?___xxtofl+3
  7848  1D5F  0824               	movf	___xxtofl@arg+2,w
  7849  1D60  00F6               	movwf	?___xxtofl+2
  7850  1D61  0823               	movf	___xxtofl@arg+1,w
  7851  1D62  00F5               	movwf	?___xxtofl+1
  7852  1D63  0822               	movf	___xxtofl@arg,w
  7853  1D64  00F4               	movwf	?___xxtofl
  7854  1D65                     l832:
  7855  1D65  0008               	return
  7856  1D66                     __end_of___xxtofl:
  7857                           
  7858                           	psect	text14
  7859  18E7                     __ptext14:	
  7860 ;; *************** function ___wmul *****************
  7861 ;; Defined at:
  7862 ;;		line 15 in file "C:\Program Files\Microchip\xc8\v2.35\pic\sources\c90\common\Umul16.c"
  7863 ;; Parameters:    Size  Location     Type
  7864 ;;  multiplier      2    0[COMMON] unsigned int 
  7865 ;;  multiplicand    2    2[COMMON] unsigned int 
  7866 ;; Auto vars:     Size  Location     Type
  7867 ;;  product         2    4[COMMON] unsigned int 
  7868 ;; Return value:  Size  Location     Type
  7869 ;;                  2    0[COMMON] unsigned int 
  7870 ;; Registers used:
  7871 ;;		wreg, status,2, status,0
  7872 ;; Tracked objects:
  7873 ;;		On entry : 0/0
  7874 ;;		On exit  : 0/0
  7875 ;;		Unchanged: 0/0
  7876 ;; Data sizes:     COMMON   BANK0   BANK1   BANK3   BANK2
  7877 ;;      Params:         4       0       0       0       0
  7878 ;;      Locals:         2       0       0       0       0
  7879 ;;      Temps:          0       0       0       0       0
  7880 ;;      Totals:         6       0       0       0       0
  7881 ;;Total ram usage:        6 bytes
  7882 ;; Hardware stack levels used: 1
  7883 ;; This function calls:
  7884 ;;		Nothing
  7885 ;; This function is called by:
  7886 ;;		_sprintf
  7887 ;; This function uses a non-reentrant model
  7888 ;;
  7889                           
  7890  18E7                     ___wmul:	
  7891                           ;psect for function ___wmul
  7892                           
  7893  18E7                     l3130:	
  7894                           ;incstack = 0
  7895                           ; Regs used in ___wmul: [wreg+status,2+status,0]
  7896                           
  7897  18E7  01F4               	clrf	___wmul@product
  7898  18E8  01F5               	clrf	___wmul@product+1
  7899  18E9                     l3132:
  7900  18E9  1C70               	btfss	___wmul@multiplier,0
  7901  18EA  28EC               	goto	u4811
  7902  18EB  28ED               	goto	u4810
  7903  18EC                     u4811:
  7904  18EC  28F3               	goto	l363
  7905  18ED                     u4810:
  7906  18ED                     l3134:
  7907  18ED  0872               	movf	___wmul@multiplicand,w
  7908  18EE  07F4               	addwf	___wmul@product,f
  7909  18EF  1803               	skipnc
  7910  18F0  0AF5               	incf	___wmul@product+1,f
  7911  18F1  0873               	movf	___wmul@multiplicand+1,w
  7912  18F2  07F5               	addwf	___wmul@product+1,f
  7913  18F3                     l363:
  7914  18F3  3001               	movlw	1
  7915  18F4                     u4825:
  7916  18F4  1003               	clrc
  7917  18F5  0DF2               	rlf	___wmul@multiplicand,f
  7918  18F6  0DF3               	rlf	___wmul@multiplicand+1,f
  7919  18F7  3EFF               	addlw	-1
  7920  18F8  1D03               	skipz
  7921  18F9  28F4               	goto	u4825
  7922  18FA                     l3136:
  7923  18FA  3001               	movlw	1
  7924  18FB                     u4835:
  7925  18FB  1003               	clrc
  7926  18FC  0CF1               	rrf	___wmul@multiplier+1,f
  7927  18FD  0CF0               	rrf	___wmul@multiplier,f
  7928  18FE  3EFF               	addlw	-1
  7929  18FF  1D03               	skipz
  7930  1900  28FB               	goto	u4835
  7931  1901                     l3138:
  7932  1901  0870               	movf	___wmul@multiplier,w
  7933  1902  0471               	iorwf	___wmul@multiplier+1,w
  7934  1903  1D03               	btfss	3,2
  7935  1904  2906               	goto	u4841
  7936  1905  2907               	goto	u4840
  7937  1906                     u4841:
  7938  1906  28E9               	goto	l3132
  7939  1907                     u4840:
  7940  1907                     l3140:
  7941  1907  0875               	movf	___wmul@product+1,w
  7942  1908  00F1               	movwf	?___wmul+1
  7943  1909  0874               	movf	___wmul@product,w
  7944  190A  00F0               	movwf	?___wmul
  7945  190B                     l365:
  7946  190B  0008               	return
  7947  190C                     __end_of___wmul:
  7948                           
  7949                           	psect	text15
  7950  1B0B                     __ptext15:	
  7951 ;; *************** function ___llmod *****************
  7952 ;; Defined at:
  7953 ;;		line 5 in file "C:\Program Files\Microchip\xc8\v2.35\pic\sources\c90\common\llmod.c"
  7954 ;; Parameters:    Size  Location     Type
  7955 ;;  divisor         4    0[COMMON] unsigned long 
  7956 ;;  dividend        4    4[COMMON] unsigned long 
  7957 ;; Auto vars:     Size  Location     Type
  7958 ;;  counter         1    9[COMMON] unsigned char 
  7959 ;; Return value:  Size  Location     Type
  7960 ;;                  4    0[COMMON] unsigned long 
  7961 ;; Registers used:
  7962 ;;		wreg, status,2, status,0
  7963 ;; Tracked objects:
  7964 ;;		On entry : 0/0
  7965 ;;		On exit  : 0/0
  7966 ;;		Unchanged: 0/0
  7967 ;; Data sizes:     COMMON   BANK0   BANK1   BANK3   BANK2
  7968 ;;      Params:         8       0       0       0       0
  7969 ;;      Locals:         1       0       0       0       0
  7970 ;;      Temps:          1       0       0       0       0
  7971 ;;      Totals:        10       0       0       0       0
  7972 ;;Total ram usage:       10 bytes
  7973 ;; Hardware stack levels used: 1
  7974 ;; This function calls:
  7975 ;;		Nothing
  7976 ;; This function is called by:
  7977 ;;		_sprintf
  7978 ;; This function uses a non-reentrant model
  7979 ;;
  7980                           
  7981  1B0B                     ___llmod:	
  7982                           ;psect for function ___llmod
  7983                           
  7984  1B0B                     l3244:	
  7985                           ;incstack = 0
  7986                           ; Regs used in ___llmod: [wreg+status,2+status,0]
  7987                           
  7988  1B0B  0873               	movf	___llmod@divisor+3,w
  7989  1B0C  0472               	iorwf	___llmod@divisor+2,w
  7990  1B0D  0471               	iorwf	___llmod@divisor+1,w
  7991  1B0E  0470               	iorwf	___llmod@divisor,w
  7992  1B0F  1903               	skipnz
  7993  1B10  2B12               	goto	u5131
  7994  1B11  2B13               	goto	u5130
  7995  1B12                     u5131:
  7996  1B12  2B56               	goto	l3260
  7997  1B13                     u5130:
  7998  1B13                     l3246:
  7999  1B13  01F9               	clrf	___llmod@counter
  8000  1B14  0AF9               	incf	___llmod@counter,f
  8001  1B15  2B23               	goto	l3250
  8002  1B16                     l3248:
  8003  1B16  3001               	movlw	1
  8004  1B17  00F8               	movwf	??___llmod
  8005  1B18                     u5145:
  8006  1B18  1003               	clrc
  8007  1B19  0DF0               	rlf	___llmod@divisor,f
  8008  1B1A  0DF1               	rlf	___llmod@divisor+1,f
  8009  1B1B  0DF2               	rlf	___llmod@divisor+2,f
  8010  1B1C  0DF3               	rlf	___llmod@divisor+3,f
  8011  1B1D  0BF8               	decfsz	??___llmod,f
  8012  1B1E  2B18               	goto	u5145
  8013  1B1F  3001               	movlw	1
  8014  1B20  00F8               	movwf	??___llmod
  8015  1B21  0878               	movf	??___llmod,w
  8016  1B22  07F9               	addwf	___llmod@counter,f
  8017  1B23                     l3250:
  8018  1B23  1FF3               	btfss	___llmod@divisor+3,7
  8019  1B24  2B26               	goto	u5151
  8020  1B25  2B27               	goto	u5150
  8021  1B26                     u5151:
  8022  1B26  2B16               	goto	l3248
  8023  1B27                     u5150:
  8024  1B27                     l3252:
  8025  1B27  0873               	movf	___llmod@divisor+3,w
  8026  1B28  0277               	subwf	___llmod@dividend+3,w
  8027  1B29  1D03               	skipz
  8028  1B2A  2B35               	goto	u5165
  8029  1B2B  0872               	movf	___llmod@divisor+2,w
  8030  1B2C  0276               	subwf	___llmod@dividend+2,w
  8031  1B2D  1D03               	skipz
  8032  1B2E  2B35               	goto	u5165
  8033  1B2F  0871               	movf	___llmod@divisor+1,w
  8034  1B30  0275               	subwf	___llmod@dividend+1,w
  8035  1B31  1D03               	skipz
  8036  1B32  2B35               	goto	u5165
  8037  1B33  0870               	movf	___llmod@divisor,w
  8038  1B34  0274               	subwf	___llmod@dividend,w
  8039  1B35                     u5165:
  8040  1B35  1C03               	skipc
  8041  1B36  2B38               	goto	u5161
  8042  1B37  2B39               	goto	u5160
  8043  1B38                     u5161:
  8044  1B38  2B47               	goto	l3256
  8045  1B39                     u5160:
  8046  1B39                     l3254:
  8047  1B39  0870               	movf	___llmod@divisor,w
  8048  1B3A  02F4               	subwf	___llmod@dividend,f
  8049  1B3B  0871               	movf	___llmod@divisor+1,w
  8050  1B3C  1C03               	skipc
  8051  1B3D  0F71               	incfsz	___llmod@divisor+1,w
  8052  1B3E  02F5               	subwf	___llmod@dividend+1,f
  8053  1B3F  0872               	movf	___llmod@divisor+2,w
  8054  1B40  1C03               	skipc
  8055  1B41  0F72               	incfsz	___llmod@divisor+2,w
  8056  1B42  02F6               	subwf	___llmod@dividend+2,f
  8057  1B43  0873               	movf	___llmod@divisor+3,w
  8058  1B44  1C03               	skipc
  8059  1B45  0F73               	incfsz	___llmod@divisor+3,w
  8060  1B46  02F7               	subwf	___llmod@dividend+3,f
  8061  1B47                     l3256:
  8062  1B47  3001               	movlw	1
  8063  1B48                     u5175:
  8064  1B48  1003               	clrc
  8065  1B49  0CF3               	rrf	___llmod@divisor+3,f
  8066  1B4A  0CF2               	rrf	___llmod@divisor+2,f
  8067  1B4B  0CF1               	rrf	___llmod@divisor+1,f
  8068  1B4C  0CF0               	rrf	___llmod@divisor,f
  8069  1B4D  3EFF               	addlw	-1
  8070  1B4E  1D03               	skipz
  8071  1B4F  2B48               	goto	u5175
  8072  1B50                     l3258:
  8073  1B50  3001               	movlw	1
  8074  1B51  02F9               	subwf	___llmod@counter,f
  8075  1B52  1D03               	btfss	3,2
  8076  1B53  2B55               	goto	u5181
  8077  1B54  2B56               	goto	u5180
  8078  1B55                     u5181:
  8079  1B55  2B27               	goto	l3252
  8080  1B56                     u5180:
  8081  1B56                     l3260:
  8082  1B56  0877               	movf	___llmod@dividend+3,w
  8083  1B57  00F3               	movwf	?___llmod+3
  8084  1B58  0876               	movf	___llmod@dividend+2,w
  8085  1B59  00F2               	movwf	?___llmod+2
  8086  1B5A  0875               	movf	___llmod@dividend+1,w
  8087  1B5B  00F1               	movwf	?___llmod+1
  8088  1B5C  0874               	movf	___llmod@dividend,w
  8089  1B5D  00F0               	movwf	?___llmod
  8090  1B5E                     l619:
  8091  1B5E  0008               	return
  8092  1B5F                     __end_of___llmod:
  8093                           
  8094                           	psect	text16
  8095  1C2E                     __ptext16:	
  8096 ;; *************** function ___fltol *****************
  8097 ;; Defined at:
  8098 ;;		line 43 in file "C:\Program Files\Microchip\xc8\v2.35\pic\sources\c90\common\fltol.c"
  8099 ;; Parameters:    Size  Location     Type
  8100 ;;  f1              4   51[BANK0 ] unsigned long 
  8101 ;; Auto vars:     Size  Location     Type
  8102 ;;  exp1            1   61[BANK0 ] unsigned char 
  8103 ;;  sign1           1   60[BANK0 ] unsigned char 
  8104 ;; Return value:  Size  Location     Type
  8105 ;;                  4   51[BANK0 ] long 
  8106 ;; Registers used:
  8107 ;;		wreg, status,2, status,0
  8108 ;; Tracked objects:
  8109 ;;		On entry : 0/0
  8110 ;;		On exit  : 0/0
  8111 ;;		Unchanged: 0/0
  8112 ;; Data sizes:     COMMON   BANK0   BANK1   BANK3   BANK2
  8113 ;;      Params:         0       4       0       0       0
  8114 ;;      Locals:         0       2       0       0       0
  8115 ;;      Temps:          0       5       0       0       0
  8116 ;;      Totals:         0      11       0       0       0
  8117 ;;Total ram usage:       11 bytes
  8118 ;; Hardware stack levels used: 1
  8119 ;; This function calls:
  8120 ;;		Nothing
  8121 ;; This function is called by:
  8122 ;;		_sprintf
  8123 ;; This function uses a non-reentrant model
  8124 ;;
  8125                           
  8126  1C2E                     ___fltol:	
  8127                           ;psect for function ___fltol
  8128                           
  8129  1C2E                     l3208:	
  8130                           ;incstack = 0
  8131                           ; Regs used in ___fltol: [wreg+status,2+status,0]
  8132                           
  8133  1C2E  1003               	clrc
  8134  1C2F  1283               	bcf	3,5	;RP0=0, select bank0
  8135  1C30  1303               	bcf	3,6	;RP1=0, select bank0
  8136  1C31  0D55               	rlf	___fltol@f1+2,w
  8137  1C32  0D56               	rlf	___fltol@f1+3,w
  8138  1C33  00D7               	movwf	??___fltol
  8139  1C34  0857               	movf	??___fltol,w
  8140  1C35  00DD               	movwf	___fltol@exp1
  8141  1C36  085D               	movf	___fltol@exp1,w
  8142  1C37  1D03               	btfss	3,2
  8143  1C38  2C3A               	goto	u5031
  8144  1C39  2C3B               	goto	u5030
  8145  1C3A                     u5031:
  8146  1C3A  2C44               	goto	l3214
  8147  1C3B                     u5030:
  8148  1C3B                     l3210:
  8149  1C3B  3000               	movlw	0
  8150  1C3C  00D6               	movwf	?___fltol+3
  8151  1C3D  3000               	movlw	0
  8152  1C3E  00D5               	movwf	?___fltol+2
  8153  1C3F  3000               	movlw	0
  8154  1C40  00D4               	movwf	?___fltol+1
  8155  1C41  3000               	movlw	0
  8156  1C42  00D3               	movwf	?___fltol
  8157  1C43  2CA9               	goto	l566
  8158  1C44                     l3214:
  8159  1C44  0853               	movf	___fltol@f1,w
  8160  1C45  00D7               	movwf	??___fltol
  8161  1C46  0854               	movf	___fltol@f1+1,w
  8162  1C47  00D8               	movwf	??___fltol+1
  8163  1C48  0855               	movf	___fltol@f1+2,w
  8164  1C49  00D9               	movwf	??___fltol+2
  8165  1C4A  0856               	movf	___fltol@f1+3,w
  8166  1C4B  00DA               	movwf	??___fltol+3
  8167  1C4C  301F               	movlw	31
  8168  1C4D                     u5045:
  8169  1C4D  1003               	clrc
  8170  1C4E  0CDA               	rrf	??___fltol+3,f
  8171  1C4F  0CD9               	rrf	??___fltol+2,f
  8172  1C50  0CD8               	rrf	??___fltol+1,f
  8173  1C51  0CD7               	rrf	??___fltol,f
  8174  1C52                     u5040:
  8175  1C52  3EFF               	addlw	-1
  8176  1C53  1D03               	skipz
  8177  1C54  2C4D               	goto	u5045
  8178  1C55  0857               	movf	??___fltol,w
  8179  1C56  00DB               	movwf	??___fltol+4
  8180  1C57  085B               	movf	??___fltol+4,w
  8181  1C58  00DC               	movwf	___fltol@sign1
  8182  1C59                     l3216:
  8183  1C59  17D5               	bsf	___fltol@f1+2,7
  8184  1C5A                     l3218:
  8185  1C5A  30FF               	movlw	255
  8186  1C5B  05D3               	andwf	___fltol@f1,f
  8187  1C5C  30FF               	movlw	255
  8188  1C5D  05D4               	andwf	___fltol@f1+1,f
  8189  1C5E  30FF               	movlw	255
  8190  1C5F  05D5               	andwf	___fltol@f1+2,f
  8191  1C60  3000               	movlw	0
  8192  1C61  05D6               	andwf	___fltol@f1+3,f
  8193  1C62                     l3220:
  8194  1C62  3096               	movlw	150
  8195  1C63  02DD               	subwf	___fltol@exp1,f
  8196  1C64                     l3222:
  8197  1C64  1FDD               	btfss	___fltol@exp1,7
  8198  1C65  2C67               	goto	u5051
  8199  1C66  2C68               	goto	u5050
  8200  1C67                     u5051:
  8201  1C67  2C82               	goto	l3232
  8202  1C68                     u5050:
  8203  1C68                     l3224:
  8204  1C68  085D               	movf	___fltol@exp1,w
  8205  1C69  3A80               	xorlw	128
  8206  1C6A  3E97               	addlw	151
  8207  1C6B  1803               	skipnc
  8208  1C6C  2C6E               	goto	u5061
  8209  1C6D  2C6F               	goto	u5060
  8210  1C6E                     u5061:
  8211  1C6E  2C70               	goto	l3230
  8212  1C6F                     u5060:
  8213  1C6F  2C3B               	goto	l3210
  8214  1C70                     l3230:
  8215  1C70  3001               	movlw	1
  8216  1C71                     u5075:
  8217  1C71  1003               	clrc
  8218  1C72  0CD6               	rrf	___fltol@f1+3,f
  8219  1C73  0CD5               	rrf	___fltol@f1+2,f
  8220  1C74  0CD4               	rrf	___fltol@f1+1,f
  8221  1C75  0CD3               	rrf	___fltol@f1,f
  8222  1C76  3EFF               	addlw	-1
  8223  1C77  1D03               	skipz
  8224  1C78  2C71               	goto	u5075
  8225  1C79  3001               	movlw	1
  8226  1C7A  00D7               	movwf	??___fltol
  8227  1C7B  0857               	movf	??___fltol,w
  8228  1C7C  07DD               	addwf	___fltol@exp1,f
  8229  1C7D  1D03               	btfss	3,2
  8230  1C7E  2C80               	goto	u5081
  8231  1C7F  2C81               	goto	u5080
  8232  1C80                     u5081:
  8233  1C80  2C70               	goto	l3230
  8234  1C81                     u5080:
  8235  1C81  2C99               	goto	l3240
  8236  1C82                     l3232:
  8237  1C82  3020               	movlw	32
  8238  1C83  025D               	subwf	___fltol@exp1,w
  8239  1C84  1C03               	skipc
  8240  1C85  2C87               	goto	u5091
  8241  1C86  2C88               	goto	u5090
  8242  1C87                     u5091:
  8243  1C87  2C94               	goto	l573
  8244  1C88                     u5090:
  8245  1C88  2C3B               	goto	l3210
  8246  1C89                     l3238:
  8247  1C89  3001               	movlw	1
  8248  1C8A  00D7               	movwf	??___fltol
  8249  1C8B                     u5105:
  8250  1C8B  1003               	clrc
  8251  1C8C  0DD3               	rlf	___fltol@f1,f
  8252  1C8D  0DD4               	rlf	___fltol@f1+1,f
  8253  1C8E  0DD5               	rlf	___fltol@f1+2,f
  8254  1C8F  0DD6               	rlf	___fltol@f1+3,f
  8255  1C90  0BD7               	decfsz	??___fltol,f
  8256  1C91  2C8B               	goto	u5105
  8257  1C92  3001               	movlw	1
  8258  1C93  02DD               	subwf	___fltol@exp1,f
  8259  1C94                     l573:
  8260  1C94  085D               	movf	___fltol@exp1,w
  8261  1C95  1D03               	btfss	3,2
  8262  1C96  2C98               	goto	u5111
  8263  1C97  2C99               	goto	u5110
  8264  1C98                     u5111:
  8265  1C98  2C89               	goto	l3238
  8266  1C99                     u5110:
  8267  1C99                     l3240:
  8268  1C99  085C               	movf	___fltol@sign1,w
  8269  1C9A  1903               	btfsc	3,2
  8270  1C9B  2C9D               	goto	u5121
  8271  1C9C  2C9E               	goto	u5120
  8272  1C9D                     u5121:
  8273  1C9D  2CA9               	goto	l576
  8274  1C9E                     u5120:
  8275  1C9E                     l3242:
  8276  1C9E  09D3               	comf	___fltol@f1,f
  8277  1C9F  09D4               	comf	___fltol@f1+1,f
  8278  1CA0  09D5               	comf	___fltol@f1+2,f
  8279  1CA1  09D6               	comf	___fltol@f1+3,f
  8280  1CA2  0AD3               	incf	___fltol@f1,f
  8281  1CA3  1903               	skipnz
  8282  1CA4  0AD4               	incf	___fltol@f1+1,f
  8283  1CA5  1903               	skipnz
  8284  1CA6  0AD5               	incf	___fltol@f1+2,f
  8285  1CA7  1903               	skipnz
  8286  1CA8  0AD6               	incf	___fltol@f1+3,f
  8287  1CA9                     l576:
  8288  1CA9                     l566:
  8289  1CA9  0008               	return
  8290  1CAA                     __end_of___fltol:
  8291                           
  8292                           	psect	text17
  8293  18C3                     __ptext17:	
  8294 ;; *************** function ___flsub *****************
  8295 ;; Defined at:
  8296 ;;		line 242 in file "C:\Program Files\Microchip\xc8\v2.35\pic\sources\c90\common\sprcadd.c"
  8297 ;; Parameters:    Size  Location     Type
  8298 ;;  a               4   72[BANK0 ] long 
  8299 ;;  b               4   76[BANK0 ] long 
  8300 ;; Auto vars:     Size  Location     Type
  8301 ;;		None
  8302 ;; Return value:  Size  Location     Type
  8303 ;;                  4   72[BANK0 ] long 
  8304 ;; Registers used:
  8305 ;;		wreg, status,2, status,0, btemp+1, pclath, cstack
  8306 ;; Tracked objects:
  8307 ;;		On entry : 0/0
  8308 ;;		On exit  : 0/0
  8309 ;;		Unchanged: 0/0
  8310 ;; Data sizes:     COMMON   BANK0   BANK1   BANK3   BANK2
  8311 ;;      Params:         0       8       0       0       0
  8312 ;;      Locals:         0       0       0       0       0
  8313 ;;      Temps:          0       0       0       0       0
  8314 ;;      Totals:         0       8       0       0       0
  8315 ;;Total ram usage:        8 bytes
  8316 ;; Hardware stack levels used: 1
  8317 ;; Hardware stack levels required when called: 1
  8318 ;; This function calls:
  8319 ;;		___fladd
  8320 ;; This function is called by:
  8321 ;;		_sprintf
  8322 ;; This function uses a non-reentrant model
  8323 ;;
  8324                           
  8325  18C3                     ___flsub:	
  8326                           ;psect for function ___flsub
  8327                           
  8328  18C3                     l3264:	
  8329                           ;incstack = 0
  8330                           ; Regs used in ___flsub: [wreg+status,2+status,0+btemp+1+pclath+cstack]
  8331                           
  8332  18C3  3080               	movlw	128
  8333  18C4  1283               	bcf	3,5	;RP0=0, select bank0
  8334  18C5  1303               	bcf	3,6	;RP1=0, select bank0
  8335  18C6  06EB               	xorwf	___flsub@a+3,f
  8336  18C7                     l3266:
  8337  18C7  086F               	movf	___flsub@b+3,w
  8338  18C8  00D7               	movwf	___fladd@b+3
  8339  18C9  086E               	movf	___flsub@b+2,w
  8340  18CA  00D6               	movwf	___fladd@b+2
  8341  18CB  086D               	movf	___flsub@b+1,w
  8342  18CC  00D5               	movwf	___fladd@b+1
  8343  18CD  086C               	movf	___flsub@b,w
  8344  18CE  00D4               	movwf	___fladd@b
  8345  18CF  086B               	movf	___flsub@a+3,w
  8346  18D0  00DB               	movwf	___fladd@a+3
  8347  18D1  086A               	movf	___flsub@a+2,w
  8348  18D2  00DA               	movwf	___fladd@a+2
  8349  18D3  0869               	movf	___flsub@a+1,w
  8350  18D4  00D9               	movwf	___fladd@a+1
  8351  18D5  0868               	movf	___flsub@a,w
  8352  18D6  00D8               	movwf	___fladd@a
  8353  18D7  160A  118A  2578  160A  158A  	fcall	___fladd
  8354  18DC  1283               	bcf	3,5	;RP0=0, select bank0
  8355  18DD  1303               	bcf	3,6	;RP1=0, select bank0
  8356  18DE  0857               	movf	?___fladd+3,w
  8357  18DF  00EB               	movwf	?___flsub+3
  8358  18E0  0856               	movf	?___fladd+2,w
  8359  18E1  00EA               	movwf	?___flsub+2
  8360  18E2  0855               	movf	?___fladd+1,w
  8361  18E3  00E9               	movwf	?___flsub+1
  8362  18E4  0854               	movf	?___fladd,w
  8363  18E5  00E8               	movwf	?___flsub
  8364  18E6                     l736:
  8365  18E6  0008               	return
  8366  18E7                     __end_of___flsub:
  8367                           
  8368                           	psect	text18
  8369  1578                     __ptext18:	
  8370 ;; *************** function ___fladd *****************
  8371 ;; Defined at:
  8372 ;;		line 10 in file "C:\Program Files\Microchip\xc8\v2.35\pic\sources\c90\common\sprcadd.c"
  8373 ;; Parameters:    Size  Location     Type
  8374 ;;  b               4   52[BANK0 ] long 
  8375 ;;  a               4   56[BANK0 ] long 
  8376 ;; Auto vars:     Size  Location     Type
  8377 ;;  grs             1   71[BANK0 ] unsigned char 
  8378 ;;  bexp            1   70[BANK0 ] unsigned char 
  8379 ;;  aexp            1   69[BANK0 ] unsigned char 
  8380 ;;  signs           1   68[BANK0 ] unsigned char 
  8381 ;; Return value:  Size  Location     Type
  8382 ;;                  4   52[BANK0 ] unsigned char 
  8383 ;; Registers used:
  8384 ;;		wreg, status,2, status,0, btemp+1
  8385 ;; Tracked objects:
  8386 ;;		On entry : 0/0
  8387 ;;		On exit  : 0/0
  8388 ;;		Unchanged: 0/0
  8389 ;; Data sizes:     COMMON   BANK0   BANK1   BANK3   BANK2
  8390 ;;      Params:         0       8       0       0       0
  8391 ;;      Locals:         0       4       0       0       0
  8392 ;;      Temps:          0       8       0       0       0
  8393 ;;      Totals:         0      20       0       0       0
  8394 ;;Total ram usage:       20 bytes
  8395 ;; Hardware stack levels used: 1
  8396 ;; This function calls:
  8397 ;;		Nothing
  8398 ;; This function is called by:
  8399 ;;		_main
  8400 ;;		_sprintf
  8401 ;;		___flsub
  8402 ;; This function uses a non-reentrant model
  8403 ;;
  8404                           
  8405  1578                     ___fladd:	
  8406                           ;psect for function ___fladd
  8407                           
  8408  1578                     l2586:	
  8409                           ;incstack = 0
  8410                           ; Regs used in ___fladd: [wreg+status,2+status,0+btemp+1]
  8411                           
  8412  1578  1283               	bcf	3,5	;RP0=0, select bank0
  8413  1579  1303               	bcf	3,6	;RP1=0, select bank0
  8414  157A  0857               	movf	___fladd@b+3,w
  8415  157B  3980               	andlw	128
  8416  157C  00DC               	movwf	??___fladd
  8417  157D  085C               	movf	??___fladd,w
  8418  157E  00E4               	movwf	___fladd@signs
  8419  157F                     l2588:
  8420  157F  0857               	movf	___fladd@b+3,w
  8421  1580  00DC               	movwf	??___fladd
  8422  1581  075C               	addwf	??___fladd,w
  8423  1582  00DD               	movwf	??___fladd+1
  8424  1583  085D               	movf	??___fladd+1,w
  8425  1584  00E6               	movwf	___fladd@bexp
  8426  1585                     l2590:
  8427  1585  1FD6               	btfss	___fladd@b+2,7
  8428  1586  2D88               	goto	u3421
  8429  1587  2D89               	goto	u3420
  8430  1588                     u3421:
  8431  1588  2D8A               	goto	l2594
  8432  1589                     u3420:
  8433  1589                     l2592:
  8434  1589  1466               	bsf	___fladd@bexp,0
  8435  158A                     l2594:
  8436  158A  0866               	movf	___fladd@bexp,w
  8437  158B  1903               	btfsc	3,2
  8438  158C  2D8E               	goto	u3431
  8439  158D  2D8F               	goto	u3430
  8440  158E                     u3431:
  8441  158E  2D9F               	goto	l2604
  8442  158F                     u3430:
  8443  158F                     l2596:
  8444  158F  0A66               	incf	___fladd@bexp,w
  8445  1590  1D03               	btfss	3,2
  8446  1591  2D93               	goto	u3441
  8447  1592  2D94               	goto	u3440
  8448  1593                     u3441:
  8449  1593  2D9C               	goto	l2600
  8450  1594                     u3440:
  8451  1594                     l2598:
  8452  1594  3000               	movlw	0
  8453  1595  00D7               	movwf	___fladd@b+3
  8454  1596  3000               	movlw	0
  8455  1597  00D6               	movwf	___fladd@b+2
  8456  1598  3000               	movlw	0
  8457  1599  00D5               	movwf	___fladd@b+1
  8458  159A  3000               	movlw	0
  8459  159B  00D4               	movwf	___fladd@b
  8460  159C                     l2600:
  8461  159C  17D6               	bsf	___fladd@b+2,7
  8462  159D                     l2602:
  8463  159D  01D7               	clrf	___fladd@b+3
  8464  159E  2DA7               	goto	l2606
  8465  159F                     l2604:
  8466  159F  3000               	movlw	0
  8467  15A0  00D7               	movwf	___fladd@b+3
  8468  15A1  3000               	movlw	0
  8469  15A2  00D6               	movwf	___fladd@b+2
  8470  15A3  3000               	movlw	0
  8471  15A4  00D5               	movwf	___fladd@b+1
  8472  15A5  3000               	movlw	0
  8473  15A6  00D4               	movwf	___fladd@b
  8474  15A7                     l2606:
  8475  15A7  085B               	movf	___fladd@a+3,w
  8476  15A8  3980               	andlw	128
  8477  15A9  00DC               	movwf	??___fladd
  8478  15AA  085C               	movf	??___fladd,w
  8479  15AB  00E5               	movwf	___fladd@aexp
  8480  15AC                     l2608:
  8481  15AC  0865               	movf	___fladd@aexp,w
  8482  15AD  0664               	xorwf	___fladd@signs,w
  8483  15AE  1903               	skipnz
  8484  15AF  2DB1               	goto	u3451
  8485  15B0  2DB2               	goto	u3450
  8486  15B1                     u3451:
  8487  15B1  2DB3               	goto	l2612
  8488  15B2                     u3450:
  8489  15B2                     l2610:
  8490  15B2  1764               	bsf	___fladd@signs,6
  8491  15B3                     l2612:
  8492  15B3  085B               	movf	___fladd@a+3,w
  8493  15B4  00DC               	movwf	??___fladd
  8494  15B5  075C               	addwf	??___fladd,w
  8495  15B6  00DD               	movwf	??___fladd+1
  8496  15B7  085D               	movf	??___fladd+1,w
  8497  15B8  00E5               	movwf	___fladd@aexp
  8498  15B9                     l2614:
  8499  15B9  1FDA               	btfss	___fladd@a+2,7
  8500  15BA  2DBC               	goto	u3461
  8501  15BB  2DBD               	goto	u3460
  8502  15BC                     u3461:
  8503  15BC  2DBE               	goto	l2618
  8504  15BD                     u3460:
  8505  15BD                     l2616:
  8506  15BD  1465               	bsf	___fladd@aexp,0
  8507  15BE                     l2618:
  8508  15BE  0865               	movf	___fladd@aexp,w
  8509  15BF  1903               	btfsc	3,2
  8510  15C0  2DC2               	goto	u3471
  8511  15C1  2DC3               	goto	u3470
  8512  15C2                     u3471:
  8513  15C2  2DD3               	goto	l2628
  8514  15C3                     u3470:
  8515  15C3                     l2620:
  8516  15C3  0A65               	incf	___fladd@aexp,w
  8517  15C4  1D03               	btfss	3,2
  8518  15C5  2DC7               	goto	u3481
  8519  15C6  2DC8               	goto	u3480
  8520  15C7                     u3481:
  8521  15C7  2DD0               	goto	l2624
  8522  15C8                     u3480:
  8523  15C8                     l2622:
  8524  15C8  3000               	movlw	0
  8525  15C9  00DB               	movwf	___fladd@a+3
  8526  15CA  3000               	movlw	0
  8527  15CB  00DA               	movwf	___fladd@a+2
  8528  15CC  3000               	movlw	0
  8529  15CD  00D9               	movwf	___fladd@a+1
  8530  15CE  3000               	movlw	0
  8531  15CF  00D8               	movwf	___fladd@a
  8532  15D0                     l2624:
  8533  15D0  17DA               	bsf	___fladd@a+2,7
  8534  15D1                     l2626:
  8535  15D1  01DB               	clrf	___fladd@a+3
  8536  15D2  2DDB               	goto	l690
  8537  15D3                     l2628:
  8538  15D3  3000               	movlw	0
  8539  15D4  00DB               	movwf	___fladd@a+3
  8540  15D5  3000               	movlw	0
  8541  15D6  00DA               	movwf	___fladd@a+2
  8542  15D7  3000               	movlw	0
  8543  15D8  00D9               	movwf	___fladd@a+1
  8544  15D9  3000               	movlw	0
  8545  15DA  00D8               	movwf	___fladd@a
  8546  15DB                     l690:
  8547  15DB  0866               	movf	___fladd@bexp,w
  8548  15DC  0265               	subwf	___fladd@aexp,w
  8549  15DD  1803               	skipnc
  8550  15DE  2DE0               	goto	u3491
  8551  15DF  2DE1               	goto	u3490
  8552  15E0                     u3491:
  8553  15E0  2E25               	goto	l2664
  8554  15E1                     u3490:
  8555  15E1                     l2630:
  8556  15E1  1F64               	btfss	___fladd@signs,6
  8557  15E2  2DE4               	goto	u3501
  8558  15E3  2DE5               	goto	u3500
  8559  15E4                     u3501:
  8560  15E4  2DE9               	goto	l2634
  8561  15E5                     u3500:
  8562  15E5                     l2632:
  8563  15E5  3080               	movlw	128
  8564  15E6  00DC               	movwf	??___fladd
  8565  15E7  085C               	movf	??___fladd,w
  8566  15E8  06E4               	xorwf	___fladd@signs,f
  8567  15E9                     l2634:
  8568  15E9  0866               	movf	___fladd@bexp,w
  8569  15EA  00DC               	movwf	??___fladd
  8570  15EB  085C               	movf	??___fladd,w
  8571  15EC  00E7               	movwf	___fladd@grs
  8572  15ED                     l2636:
  8573  15ED  0865               	movf	___fladd@aexp,w
  8574  15EE  00DC               	movwf	??___fladd
  8575  15EF  085C               	movf	??___fladd,w
  8576  15F0  00E6               	movwf	___fladd@bexp
  8577  15F1                     l2638:
  8578  15F1  0867               	movf	___fladd@grs,w
  8579  15F2  00DC               	movwf	??___fladd
  8580  15F3  085C               	movf	??___fladd,w
  8581  15F4  00E5               	movwf	___fladd@aexp
  8582  15F5                     l2640:
  8583  15F5  0854               	movf	___fladd@b,w
  8584  15F6  00DC               	movwf	??___fladd
  8585  15F7  085C               	movf	??___fladd,w
  8586  15F8  00E7               	movwf	___fladd@grs
  8587  15F9                     l2642:
  8588  15F9  0858               	movf	___fladd@a,w
  8589  15FA  00DC               	movwf	??___fladd
  8590  15FB  085C               	movf	??___fladd,w
  8591  15FC  00D4               	movwf	___fladd@b
  8592  15FD                     l2644:
  8593  15FD  0867               	movf	___fladd@grs,w
  8594  15FE  00DC               	movwf	??___fladd
  8595  15FF  085C               	movf	??___fladd,w
  8596  1600  00D8               	movwf	___fladd@a
  8597  1601                     l2646:
  8598  1601  0855               	movf	___fladd@b+1,w
  8599  1602  00DC               	movwf	??___fladd
  8600  1603  085C               	movf	??___fladd,w
  8601  1604  00E7               	movwf	___fladd@grs
  8602  1605                     l2648:
  8603  1605  0859               	movf	___fladd@a+1,w
  8604  1606  00DC               	movwf	??___fladd
  8605  1607  085C               	movf	??___fladd,w
  8606  1608  00D5               	movwf	___fladd@b+1
  8607  1609                     l2650:
  8608  1609  0867               	movf	___fladd@grs,w
  8609  160A  00DC               	movwf	??___fladd
  8610  160B  085C               	movf	??___fladd,w
  8611  160C  00D9               	movwf	___fladd@a+1
  8612  160D                     l2652:
  8613  160D  0856               	movf	___fladd@b+2,w
  8614  160E  00DC               	movwf	??___fladd
  8615  160F  085C               	movf	??___fladd,w
  8616  1610  00E7               	movwf	___fladd@grs
  8617  1611                     l2654:
  8618  1611  085A               	movf	___fladd@a+2,w
  8619  1612  00DC               	movwf	??___fladd
  8620  1613  085C               	movf	??___fladd,w
  8621  1614  00D6               	movwf	___fladd@b+2
  8622  1615                     l2656:
  8623  1615  0867               	movf	___fladd@grs,w
  8624  1616  00DC               	movwf	??___fladd
  8625  1617  085C               	movf	??___fladd,w
  8626  1618  00DA               	movwf	___fladd@a+2
  8627  1619                     l2658:
  8628  1619  0857               	movf	___fladd@b+3,w
  8629  161A  00DC               	movwf	??___fladd
  8630  161B  085C               	movf	??___fladd,w
  8631  161C  00E7               	movwf	___fladd@grs
  8632  161D                     l2660:
  8633  161D  085B               	movf	___fladd@a+3,w
  8634  161E  00DC               	movwf	??___fladd
  8635  161F  085C               	movf	??___fladd,w
  8636  1620  00D7               	movwf	___fladd@b+3
  8637  1621                     l2662:
  8638  1621  0867               	movf	___fladd@grs,w
  8639  1622  00DC               	movwf	??___fladd
  8640  1623  085C               	movf	??___fladd,w
  8641  1624  00DB               	movwf	___fladd@a+3
  8642  1625                     l2664:
  8643  1625  01E7               	clrf	___fladd@grs
  8644  1626                     l2666:
  8645  1626  0865               	movf	___fladd@aexp,w
  8646  1627  00DC               	movwf	??___fladd
  8647  1628  01DD               	clrf	??___fladd+1
  8648  1629  085D               	movf	??___fladd+1,w
  8649  162A  00DF               	movwf	??___fladd+3
  8650  162B  0866               	movf	___fladd@bexp,w
  8651  162C  025C               	subwf	??___fladd,w
  8652  162D  00DE               	movwf	??___fladd+2
  8653  162E  1C03               	skipc
  8654  162F  03DF               	decf	??___fladd+3,f
  8655  1630  085F               	movf	??___fladd+3,w
  8656  1631  3A80               	xorlw	128
  8657  1632  00FF               	movwf	btemp+1
  8658  1633  3080               	movlw	128
  8659  1634  027F               	subwf	btemp+1,w
  8660  1635  1D03               	skipz
  8661  1636  2E39               	goto	u3515
  8662  1637  301A               	movlw	26
  8663  1638  025E               	subwf	??___fladd+2,w
  8664  1639                     u3515:
  8665  1639  1C03               	skipc
  8666  163A  2E3C               	goto	u3511
  8667  163B  2E3D               	goto	u3510
  8668  163C                     u3511:
  8669  163C  2E7A               	goto	l2682
  8670  163D                     u3510:
  8671  163D                     l2668:
  8672  163D  1283               	bcf	3,5	;RP0=0, select bank0
  8673  163E  1303               	bcf	3,6	;RP1=0, select bank0
  8674  163F  0857               	movf	___fladd@b+3,w
  8675  1640  0456               	iorwf	___fladd@b+2,w
  8676  1641  0455               	iorwf	___fladd@b+1,w
  8677  1642  0454               	iorwf	___fladd@b,w
  8678  1643  1D03               	skipz
  8679  1644  2E46               	goto	u3521
  8680  1645  2E48               	goto	u3520
  8681  1646                     u3521:
  8682  1646  3001               	movlw	1
  8683  1647  2E49               	goto	u3530
  8684  1648                     u3520:
  8685  1648  3000               	movlw	0
  8686  1649                     u3530:
  8687  1649  00DC               	movwf	??___fladd
  8688  164A  085C               	movf	??___fladd,w
  8689  164B  00E7               	movwf	___fladd@grs
  8690  164C  3000               	movlw	0
  8691  164D  00D7               	movwf	___fladd@b+3
  8692  164E  3000               	movlw	0
  8693  164F  00D6               	movwf	___fladd@b+2
  8694  1650  3000               	movlw	0
  8695  1651  00D5               	movwf	___fladd@b+1
  8696  1652  3000               	movlw	0
  8697  1653  00D4               	movwf	___fladd@b
  8698  1654  0865               	movf	___fladd@aexp,w
  8699  1655  00DC               	movwf	??___fladd
  8700  1656  085C               	movf	??___fladd,w
  8701  1657  00E6               	movwf	___fladd@bexp
  8702  1658  2E82               	goto	l694
  8703  1659                     l696:
  8704  1659  1C67               	btfss	___fladd@grs,0
  8705  165A  2E5C               	goto	u3541
  8706  165B  2E5D               	goto	u3540
  8707  165C                     u3541:
  8708  165C  2E66               	goto	l2672
  8709  165D                     u3540:
  8710  165D                     l2670:
  8711  165D  0867               	movf	___fladd@grs,w
  8712  165E  00DC               	movwf	??___fladd
  8713  165F  1003               	clrc
  8714  1660  0C5C               	rrf	??___fladd,w
  8715  1661  3801               	iorlw	1
  8716  1662  00DD               	movwf	??___fladd+1
  8717  1663  085D               	movf	??___fladd+1,w
  8718  1664  00E7               	movwf	___fladd@grs
  8719  1665  2E68               	goto	l2674
  8720  1666                     l2672:
  8721  1666  1003               	clrc
  8722  1667  0CE7               	rrf	___fladd@grs,f
  8723  1668                     l2674:
  8724  1668  1C54               	btfss	___fladd@b,0
  8725  1669  2E6B               	goto	u3551
  8726  166A  2E6C               	goto	u3550
  8727  166B                     u3551:
  8728  166B  2E6D               	goto	l2678
  8729  166C                     u3550:
  8730  166C                     l2676:
  8731  166C  17E7               	bsf	___fladd@grs,7
  8732  166D                     l2678:
  8733  166D  3001               	movlw	1
  8734  166E  00DC               	movwf	??___fladd
  8735  166F                     u3565:
  8736  166F  0D57               	rlf	___fladd@b+3,w
  8737  1670  0CD7               	rrf	___fladd@b+3,f
  8738  1671  0CD6               	rrf	___fladd@b+2,f
  8739  1672  0CD5               	rrf	___fladd@b+1,f
  8740  1673  0CD4               	rrf	___fladd@b,f
  8741  1674  0BDC               	decfsz	??___fladd& (0+127),f
  8742  1675  2E6F               	goto	u3565
  8743  1676                     l2680:
  8744  1676  3001               	movlw	1
  8745  1677  00DC               	movwf	??___fladd
  8746  1678  085C               	movf	??___fladd,w
  8747  1679  07E6               	addwf	___fladd@bexp,f
  8748  167A                     l2682:
  8749  167A  1283               	bcf	3,5	;RP0=0, select bank0
  8750  167B  1303               	bcf	3,6	;RP1=0, select bank0
  8751  167C  0865               	movf	___fladd@aexp,w
  8752  167D  0266               	subwf	___fladd@bexp,w
  8753  167E  1C03               	skipc
  8754  167F  2E81               	goto	u3571
  8755  1680  2E82               	goto	u3570
  8756  1681                     u3571:
  8757  1681  2E59               	goto	l696
  8758  1682                     u3570:
  8759  1682                     l694:
  8760  1682  1B64               	btfsc	___fladd@signs,6
  8761  1683  2E85               	goto	u3581
  8762  1684  2E86               	goto	u3580
  8763  1685                     u3581:
  8764  1685  2ED1               	goto	l2708
  8765  1686                     u3580:
  8766  1686                     l2684:
  8767  1686  0866               	movf	___fladd@bexp,w
  8768  1687  1D03               	btfss	3,2
  8769  1688  2E8A               	goto	u3591
  8770  1689  2E8B               	goto	u3590
  8771  168A                     u3591:
  8772  168A  2E94               	goto	l2690
  8773  168B                     u3590:
  8774  168B                     l2686:
  8775  168B  3000               	movlw	0
  8776  168C  00D7               	movwf	?___fladd+3
  8777  168D  3000               	movlw	0
  8778  168E  00D6               	movwf	?___fladd+2
  8779  168F  3000               	movlw	0
  8780  1690  00D5               	movwf	?___fladd+1
  8781  1691  3000               	movlw	0
  8782  1692  00D4               	movwf	?___fladd
  8783  1693  2FFF               	goto	l703
  8784  1694                     l2690:
  8785  1694  0858               	movf	___fladd@a,w
  8786  1695  07D4               	addwf	___fladd@b,f
  8787  1696  0859               	movf	___fladd@a+1,w
  8788  1697  1103               	clrz
  8789  1698  1803               	skipnc
  8790  1699  3E01               	addlw	1
  8791  169A  1903               	skipnz
  8792  169B  2E9D               	goto	u3601
  8793  169C  07D5               	addwf	___fladd@b+1,f
  8794  169D                     u3601:
  8795  169D  085A               	movf	___fladd@a+2,w
  8796  169E  1103               	clrz
  8797  169F  1803               	skipnc
  8798  16A0  3E01               	addlw	1
  8799  16A1  1903               	skipnz
  8800  16A2  2EA4               	goto	u3602
  8801  16A3  07D6               	addwf	___fladd@b+2,f
  8802  16A4                     u3602:
  8803  16A4  085B               	movf	___fladd@a+3,w
  8804  16A5  1103               	clrz
  8805  16A6  1803               	skipnc
  8806  16A7  3E01               	addlw	1
  8807  16A8  1903               	skipnz
  8808  16A9  2EAB               	goto	u3603
  8809  16AA  07D7               	addwf	___fladd@b+3,f
  8810  16AB                     u3603:
  8811  16AB                     l2692:
  8812  16AB  1C57               	btfss	___fladd@b+3,0
  8813  16AC  2EAE               	goto	u3611
  8814  16AD  2EAF               	goto	u3610
  8815  16AE                     u3611:
  8816  16AE  2F85               	goto	l2742
  8817  16AF                     u3610:
  8818  16AF                     l2694:
  8819  16AF  1C67               	btfss	___fladd@grs,0
  8820  16B0  2EB2               	goto	u3621
  8821  16B1  2EB3               	goto	u3620
  8822  16B2                     u3621:
  8823  16B2  2EBC               	goto	l2698
  8824  16B3                     u3620:
  8825  16B3                     l2696:
  8826  16B3  0867               	movf	___fladd@grs,w
  8827  16B4  00DC               	movwf	??___fladd
  8828  16B5  1003               	clrc
  8829  16B6  0C5C               	rrf	??___fladd,w
  8830  16B7  3801               	iorlw	1
  8831  16B8  00DD               	movwf	??___fladd+1
  8832  16B9  085D               	movf	??___fladd+1,w
  8833  16BA  00E7               	movwf	___fladd@grs
  8834  16BB  2EBE               	goto	l2700
  8835  16BC                     l2698:
  8836  16BC  1003               	clrc
  8837  16BD  0CE7               	rrf	___fladd@grs,f
  8838  16BE                     l2700:
  8839  16BE  1C54               	btfss	___fladd@b,0
  8840  16BF  2EC1               	goto	u3631
  8841  16C0  2EC2               	goto	u3630
  8842  16C1                     u3631:
  8843  16C1  2EC3               	goto	l2704
  8844  16C2                     u3630:
  8845  16C2                     l2702:
  8846  16C2  17E7               	bsf	___fladd@grs,7
  8847  16C3                     l2704:
  8848  16C3  3001               	movlw	1
  8849  16C4  00DC               	movwf	??___fladd
  8850  16C5                     u3645:
  8851  16C5  0D57               	rlf	___fladd@b+3,w
  8852  16C6  0CD7               	rrf	___fladd@b+3,f
  8853  16C7  0CD6               	rrf	___fladd@b+2,f
  8854  16C8  0CD5               	rrf	___fladd@b+1,f
  8855  16C9  0CD4               	rrf	___fladd@b,f
  8856  16CA  0BDC               	decfsz	??___fladd& (0+127),f
  8857  16CB  2EC5               	goto	u3645
  8858  16CC                     l2706:
  8859  16CC  3001               	movlw	1
  8860  16CD  00DC               	movwf	??___fladd
  8861  16CE  085C               	movf	??___fladd,w
  8862  16CF  07E6               	addwf	___fladd@bexp,f
  8863  16D0  2F85               	goto	l2742
  8864  16D1                     l2708:
  8865  16D1  0857               	movf	___fladd@b+3,w
  8866  16D2  3A80               	xorlw	128
  8867  16D3  00FF               	movwf	btemp+1
  8868  16D4  085B               	movf	___fladd@a+3,w
  8869  16D5  3A80               	xorlw	128
  8870  16D6  027F               	subwf	btemp+1,w
  8871  16D7  1D03               	skipz
  8872  16D8  2EE3               	goto	u3653
  8873  16D9  085A               	movf	___fladd@a+2,w
  8874  16DA  0256               	subwf	___fladd@b+2,w
  8875  16DB  1D03               	skipz
  8876  16DC  2EE3               	goto	u3653
  8877  16DD  0859               	movf	___fladd@a+1,w
  8878  16DE  0255               	subwf	___fladd@b+1,w
  8879  16DF  1D03               	skipz
  8880  16E0  2EE3               	goto	u3653
  8881  16E1  0858               	movf	___fladd@a,w
  8882  16E2  0254               	subwf	___fladd@b,w
  8883  16E3                     u3653:
  8884  16E3  1803               	skipnc
  8885  16E4  2EE6               	goto	u3651
  8886  16E5  2EE7               	goto	u3650
  8887  16E6                     u3651:
  8888  16E6  2F3F               	goto	l2718
  8889  16E7                     u3650:
  8890  16E7                     l2710:
  8891  16E7  30FF               	movlw	255
  8892  16E8  00DC               	movwf	??___fladd
  8893  16E9  30FF               	movlw	255
  8894  16EA  00DD               	movwf	??___fladd+1
  8895  16EB  30FF               	movlw	255
  8896  16EC  00DE               	movwf	??___fladd+2
  8897  16ED  30FF               	movlw	255
  8898  16EE  00DF               	movwf	??___fladd+3
  8899  16EF  0858               	movf	___fladd@a,w
  8900  16F0  00E0               	movwf	??___fladd+4
  8901  16F1  0859               	movf	___fladd@a+1,w
  8902  16F2  00E1               	movwf	??___fladd+5
  8903  16F3  085A               	movf	___fladd@a+2,w
  8904  16F4  00E2               	movwf	??___fladd+6
  8905  16F5  085B               	movf	___fladd@a+3,w
  8906  16F6  00E3               	movwf	??___fladd+7
  8907  16F7  0854               	movf	___fladd@b,w
  8908  16F8  02E0               	subwf	??___fladd+4,f
  8909  16F9  0855               	movf	___fladd@b+1,w
  8910  16FA  1C03               	skipc
  8911  16FB  0F55               	incfsz	___fladd@b+1,w
  8912  16FC  2EFE               	goto	u3661
  8913  16FD  2EFF               	goto	u3662
  8914  16FE                     u3661:
  8915  16FE  02E1               	subwf	??___fladd+5,f
  8916  16FF                     u3662:
  8917  16FF  0856               	movf	___fladd@b+2,w
  8918  1700  1C03               	skipc
  8919  1701  0F56               	incfsz	___fladd@b+2,w
  8920  1702  2F04               	goto	u3663
  8921  1703  2F05               	goto	u3664
  8922  1704                     u3663:
  8923  1704  02E2               	subwf	??___fladd+6,f
  8924  1705                     u3664:
  8925  1705  0857               	movf	___fladd@b+3,w
  8926  1706  1C03               	skipc
  8927  1707  0F57               	incfsz	___fladd@b+3,w
  8928  1708  2F0A               	goto	u3665
  8929  1709  2F0B               	goto	u3666
  8930  170A                     u3665:
  8931  170A  02E3               	subwf	??___fladd+7,f
  8932  170B                     u3666:
  8933  170B  0860               	movf	??___fladd+4,w
  8934  170C  07DC               	addwf	??___fladd,f
  8935  170D  0861               	movf	??___fladd+5,w
  8936  170E  1803               	skipnc
  8937  170F  0F61               	incfsz	??___fladd+5,w
  8938  1710  2F12               	goto	u3670
  8939  1711  2F13               	goto	u3671
  8940  1712                     u3670:
  8941  1712  07DD               	addwf	??___fladd+1,f
  8942  1713                     u3671:
  8943  1713  0862               	movf	??___fladd+6,w
  8944  1714  1803               	skipnc
  8945  1715  0F62               	incfsz	??___fladd+6,w
  8946  1716  2F18               	goto	u3672
  8947  1717  2F19               	goto	u3673
  8948  1718                     u3672:
  8949  1718  07DE               	addwf	??___fladd+2,f
  8950  1719                     u3673:
  8951  1719  0863               	movf	??___fladd+7,w
  8952  171A  1803               	skipnc
  8953  171B  0A63               	incf	??___fladd+7,w
  8954  171C  07DF               	addwf	??___fladd+3,f
  8955  171D  085F               	movf	??___fladd+3,w
  8956  171E  00D7               	movwf	___fladd@b+3
  8957  171F  085E               	movf	??___fladd+2,w
  8958  1720  00D6               	movwf	___fladd@b+2
  8959  1721  085D               	movf	??___fladd+1,w
  8960  1722  00D5               	movwf	___fladd@b+1
  8961  1723  085C               	movf	??___fladd,w
  8962  1724  00D4               	movwf	___fladd@b
  8963  1725                     l2712:
  8964  1725  3080               	movlw	128
  8965  1726  00DC               	movwf	??___fladd
  8966  1727  085C               	movf	??___fladd,w
  8967  1728  06E4               	xorwf	___fladd@signs,f
  8968  1729  09E7               	comf	___fladd@grs,f
  8969  172A  0AE7               	incf	___fladd@grs,f
  8970  172B                     l2714:
  8971  172B  0867               	movf	___fladd@grs,w
  8972  172C  1D03               	btfss	3,2
  8973  172D  2F2F               	goto	u3681
  8974  172E  2F30               	goto	u3680
  8975  172F                     u3681:
  8976  172F  2F4D               	goto	l711
  8977  1730                     u3680:
  8978  1730                     l2716:
  8979  1730  3001               	movlw	1
  8980  1731  07D4               	addwf	___fladd@b,f
  8981  1732  3000               	movlw	0
  8982  1733  1803               	skipnc
  8983  1734  3001               	movlw	1
  8984  1735  07D5               	addwf	___fladd@b+1,f
  8985  1736  3000               	movlw	0
  8986  1737  1803               	skipnc
  8987  1738  3001               	movlw	1
  8988  1739  07D6               	addwf	___fladd@b+2,f
  8989  173A  3000               	movlw	0
  8990  173B  1803               	skipnc
  8991  173C  3001               	movlw	1
  8992  173D  07D7               	addwf	___fladd@b+3,f
  8993  173E  2F4D               	goto	l711
  8994  173F                     l2718:
  8995  173F  0858               	movf	___fladd@a,w
  8996  1740  02D4               	subwf	___fladd@b,f
  8997  1741  0859               	movf	___fladd@a+1,w
  8998  1742  1C03               	skipc
  8999  1743  0F59               	incfsz	___fladd@a+1,w
  9000  1744  02D5               	subwf	___fladd@b+1,f
  9001  1745  085A               	movf	___fladd@a+2,w
  9002  1746  1C03               	skipc
  9003  1747  0F5A               	incfsz	___fladd@a+2,w
  9004  1748  02D6               	subwf	___fladd@b+2,f
  9005  1749  085B               	movf	___fladd@a+3,w
  9006  174A  1C03               	skipc
  9007  174B  0F5B               	incfsz	___fladd@a+3,w
  9008  174C  02D7               	subwf	___fladd@b+3,f
  9009  174D                     l711:
  9010  174D  0857               	movf	___fladd@b+3,w
  9011  174E  0456               	iorwf	___fladd@b+2,w
  9012  174F  0455               	iorwf	___fladd@b+1,w
  9013  1750  0454               	iorwf	___fladd@b,w
  9014  1751  1D03               	skipz
  9015  1752  2F54               	goto	u3691
  9016  1753  2F55               	goto	u3690
  9017  1754                     u3691:
  9018  1754  2F81               	goto	l2740
  9019  1755                     u3690:
  9020  1755                     l2720:
  9021  1755  0867               	movf	___fladd@grs,w
  9022  1756  1D03               	btfss	3,2
  9023  1757  2F59               	goto	u3701
  9024  1758  2F5A               	goto	u3700
  9025  1759                     u3701:
  9026  1759  2F81               	goto	l2740
  9027  175A                     u3700:
  9028  175A                     l2722:
  9029  175A  3000               	movlw	0
  9030  175B  00D7               	movwf	?___fladd+3
  9031  175C  3000               	movlw	0
  9032  175D  00D6               	movwf	?___fladd+2
  9033  175E  3000               	movlw	0
  9034  175F  00D5               	movwf	?___fladd+1
  9035  1760  3000               	movlw	0
  9036  1761  00D4               	movwf	?___fladd
  9037  1762  2FFF               	goto	l703
  9038  1763                     l2726:
  9039  1763  3001               	movlw	1
  9040  1764  00DC               	movwf	??___fladd
  9041  1765                     u3715:
  9042  1765  1003               	clrc
  9043  1766  0DD4               	rlf	___fladd@b,f
  9044  1767  0DD5               	rlf	___fladd@b+1,f
  9045  1768  0DD6               	rlf	___fladd@b+2,f
  9046  1769  0DD7               	rlf	___fladd@b+3,f
  9047  176A  0BDC               	decfsz	??___fladd,f
  9048  176B  2F65               	goto	u3715
  9049  176C                     l2728:
  9050  176C  1FE7               	btfss	___fladd@grs,7
  9051  176D  2F6F               	goto	u3721
  9052  176E  2F70               	goto	u3720
  9053  176F                     u3721:
  9054  176F  2F71               	goto	l715
  9055  1770                     u3720:
  9056  1770                     l2730:
  9057  1770  1454               	bsf	___fladd@b,0
  9058  1771                     l715:
  9059  1771  1C67               	btfss	___fladd@grs,0
  9060  1772  2F74               	goto	u3731
  9061  1773  2F75               	goto	u3730
  9062  1774                     u3731:
  9063  1774  2F78               	goto	l2734
  9064  1775                     u3730:
  9065  1775                     l2732:
  9066  1775  1403               	setc
  9067  1776  0DE7               	rlf	___fladd@grs,f
  9068  1777  2F7A               	goto	l2736
  9069  1778                     l2734:
  9070  1778  1003               	clrc
  9071  1779  0DE7               	rlf	___fladd@grs,f
  9072  177A                     l2736:
  9073  177A  0866               	movf	___fladd@bexp,w
  9074  177B  1903               	btfsc	3,2
  9075  177C  2F7E               	goto	u3741
  9076  177D  2F7F               	goto	u3740
  9077  177E                     u3741:
  9078  177E  2F81               	goto	l2740
  9079  177F                     u3740:
  9080  177F                     l2738:
  9081  177F  3001               	movlw	1
  9082  1780  02E6               	subwf	___fladd@bexp,f
  9083  1781                     l2740:
  9084  1781  1FD6               	btfss	___fladd@b+2,7
  9085  1782  2F84               	goto	u3751
  9086  1783  2F85               	goto	u3750
  9087  1784                     u3751:
  9088  1784  2F63               	goto	l2726
  9089  1785                     u3750:
  9090  1785                     l2742:
  9091  1785  01E5               	clrf	___fladd@aexp
  9092  1786                     l2744:
  9093  1786  1FE7               	btfss	___fladd@grs,7
  9094  1787  2F89               	goto	u3761
  9095  1788  2F8A               	goto	u3760
  9096  1789                     u3761:
  9097  1789  2F98               	goto	l2752
  9098  178A                     u3760:
  9099  178A                     l2746:
  9100  178A  0867               	movf	___fladd@grs,w
  9101  178B  397F               	andlw	127
  9102  178C  1903               	btfsc	3,2
  9103  178D  2F8F               	goto	u3771
  9104  178E  2F90               	goto	u3770
  9105  178F                     u3771:
  9106  178F  2F93               	goto	l721
  9107  1790                     u3770:
  9108  1790                     l2748:
  9109  1790  01E5               	clrf	___fladd@aexp
  9110  1791  0AE5               	incf	___fladd@aexp,f
  9111  1792  2F98               	goto	l2752
  9112  1793                     l721:
  9113  1793  1C54               	btfss	___fladd@b,0
  9114  1794  2F96               	goto	u3781
  9115  1795  2F97               	goto	u3780
  9116  1796                     u3781:
  9117  1796  2F98               	goto	l2752
  9118  1797                     u3780:
  9119  1797  2F90               	goto	l2748
  9120  1798                     l2752:
  9121  1798  0865               	movf	___fladd@aexp,w
  9122  1799  1903               	btfsc	3,2
  9123  179A  2F9C               	goto	u3791
  9124  179B  2F9D               	goto	u3790
  9125  179C                     u3791:
  9126  179C  2FD1               	goto	l724
  9127  179D                     u3790:
  9128  179D                     l2754:
  9129  179D  3001               	movlw	1
  9130  179E  07D4               	addwf	___fladd@b,f
  9131  179F  3000               	movlw	0
  9132  17A0  1803               	skipnc
  9133  17A1  3001               	movlw	1
  9134  17A2  07D5               	addwf	___fladd@b+1,f
  9135  17A3  3000               	movlw	0
  9136  17A4  1803               	skipnc
  9137  17A5  3001               	movlw	1
  9138  17A6  07D6               	addwf	___fladd@b+2,f
  9139  17A7  3000               	movlw	0
  9140  17A8  1803               	skipnc
  9141  17A9  3001               	movlw	1
  9142  17AA  07D7               	addwf	___fladd@b+3,f
  9143  17AB                     l2756:
  9144  17AB  1C57               	btfss	___fladd@b+3,0
  9145  17AC  2FAE               	goto	u3801
  9146  17AD  2FAF               	goto	u3800
  9147  17AE                     u3801:
  9148  17AE  2FD1               	goto	l724
  9149  17AF                     u3800:
  9150  17AF                     l2758:
  9151  17AF  0854               	movf	___fladd@b,w
  9152  17B0  00DC               	movwf	??___fladd
  9153  17B1  0855               	movf	___fladd@b+1,w
  9154  17B2  00DD               	movwf	??___fladd+1
  9155  17B3  0856               	movf	___fladd@b+2,w
  9156  17B4  00DE               	movwf	??___fladd+2
  9157  17B5  0857               	movf	___fladd@b+3,w
  9158  17B6  00DF               	movwf	??___fladd+3
  9159  17B7  3001               	movlw	1
  9160  17B8  00E0               	movwf	??___fladd+4
  9161  17B9                     u3815:
  9162  17B9  0D5F               	rlf	??___fladd+3,w
  9163  17BA  0CDF               	rrf	??___fladd+3,f
  9164  17BB  0CDE               	rrf	??___fladd+2,f
  9165  17BC  0CDD               	rrf	??___fladd+1,f
  9166  17BD  0CDC               	rrf	??___fladd,f
  9167  17BE                     u3810:
  9168  17BE  0BE0               	decfsz	??___fladd+4,f
  9169  17BF  2FB9               	goto	u3815
  9170  17C0  085F               	movf	??___fladd+3,w
  9171  17C1  00D7               	movwf	___fladd@b+3
  9172  17C2  085E               	movf	??___fladd+2,w
  9173  17C3  00D6               	movwf	___fladd@b+2
  9174  17C4  085D               	movf	??___fladd+1,w
  9175  17C5  00D5               	movwf	___fladd@b+1
  9176  17C6  085C               	movf	??___fladd,w
  9177  17C7  00D4               	movwf	___fladd@b
  9178  17C8  0A66               	incf	___fladd@bexp,w
  9179  17C9  1903               	btfsc	3,2
  9180  17CA  2FCC               	goto	u3821
  9181  17CB  2FCD               	goto	u3820
  9182  17CC                     u3821:
  9183  17CC  2FD1               	goto	l724
  9184  17CD                     u3820:
  9185  17CD                     l2760:
  9186  17CD  3001               	movlw	1
  9187  17CE  00DC               	movwf	??___fladd
  9188  17CF  085C               	movf	??___fladd,w
  9189  17D0  07E6               	addwf	___fladd@bexp,f
  9190  17D1                     l724:
  9191  17D1  0A66               	incf	___fladd@bexp,w
  9192  17D2  1903               	btfsc	3,2
  9193  17D3  2FD5               	goto	u3831
  9194  17D4  2FD6               	goto	u3830
  9195  17D5                     u3831:
  9196  17D5  2FDB               	goto	l2764
  9197  17D6                     u3830:
  9198  17D6                     l2762:
  9199  17D6  0866               	movf	___fladd@bexp,w
  9200  17D7  1D03               	btfss	3,2
  9201  17D8  2FDA               	goto	u3841
  9202  17D9  2FDB               	goto	u3840
  9203  17DA                     u3841:
  9204  17DA  2FE9               	goto	l2770
  9205  17DB                     u3840:
  9206  17DB                     l2764:
  9207  17DB  3000               	movlw	0
  9208  17DC  00D7               	movwf	___fladd@b+3
  9209  17DD  3000               	movlw	0
  9210  17DE  00D6               	movwf	___fladd@b+2
  9211  17DF  3000               	movlw	0
  9212  17E0  00D5               	movwf	___fladd@b+1
  9213  17E1  3000               	movlw	0
  9214  17E2  00D4               	movwf	___fladd@b
  9215  17E3                     l2766:
  9216  17E3  0866               	movf	___fladd@bexp,w
  9217  17E4  1D03               	btfss	3,2
  9218  17E5  2FE7               	goto	u3851
  9219  17E6  2FE8               	goto	u3850
  9220  17E7                     u3851:
  9221  17E7  2FE9               	goto	l2770
  9222  17E8                     u3850:
  9223  17E8                     l2768:
  9224  17E8  01E4               	clrf	___fladd@signs
  9225  17E9                     l2770:
  9226  17E9  1C66               	btfss	___fladd@bexp,0
  9227  17EA  2FEC               	goto	u3861
  9228  17EB  2FED               	goto	u3860
  9229  17EC                     u3861:
  9230  17EC  2FEF               	goto	l2774
  9231  17ED                     u3860:
  9232  17ED                     l2772:
  9233  17ED  17D6               	bsf	___fladd@b+2,7
  9234  17EE  2FF3               	goto	l732
  9235  17EF                     l2774:
  9236  17EF  307F               	movlw	127
  9237  17F0  00DC               	movwf	??___fladd
  9238  17F1  085C               	movf	??___fladd,w
  9239  17F2  05D6               	andwf	___fladd@b+2,f
  9240  17F3                     l732:
  9241  17F3  0866               	movf	___fladd@bexp,w
  9242  17F4  00DC               	movwf	??___fladd
  9243  17F5  1003               	clrc
  9244  17F6  0C5C               	rrf	??___fladd,w
  9245  17F7  00DD               	movwf	??___fladd+1
  9246  17F8  085D               	movf	??___fladd+1,w
  9247  17F9  00D7               	movwf	___fladd@b+3
  9248  17FA                     l2776:
  9249  17FA  1FE4               	btfss	___fladd@signs,7
  9250  17FB  2FFD               	goto	u3871
  9251  17FC  2FFE               	goto	u3870
  9252  17FD                     u3871:
  9253  17FD  2FFF               	goto	l733
  9254  17FE                     u3870:
  9255  17FE                     l2778:
  9256  17FE  17D7               	bsf	___fladd@b+3,7
  9257  17FF                     l733:
  9258  17FF                     l703:
  9259  17FF  0008               	return
  9260  1800                     __end_of___fladd:
  9261                           
  9262                           	psect	text19
  9263  181D                     __ptext19:	
  9264 ;; *************** function ___flneg *****************
  9265 ;; Defined at:
  9266 ;;		line 15 in file "C:\Program Files\Microchip\xc8\v2.35\pic\sources\c90\common\flneg.c"
  9267 ;; Parameters:    Size  Location     Type
  9268 ;;  f1              4    0[COMMON] unsigned char 
  9269 ;; Auto vars:     Size  Location     Type
  9270 ;;		None
  9271 ;; Return value:  Size  Location     Type
  9272 ;;                  4    0[COMMON] unsigned char 
  9273 ;; Registers used:
  9274 ;;		wreg
  9275 ;; Tracked objects:
  9276 ;;		On entry : 0/0
  9277 ;;		On exit  : 0/0
  9278 ;;		Unchanged: 0/0
  9279 ;; Data sizes:     COMMON   BANK0   BANK1   BANK3   BANK2
  9280 ;;      Params:         4       0       0       0       0
  9281 ;;      Locals:         0       0       0       0       0
  9282 ;;      Temps:          0       0       0       0       0
  9283 ;;      Totals:         4       0       0       0       0
  9284 ;;Total ram usage:        4 bytes
  9285 ;; Hardware stack levels used: 1
  9286 ;; This function calls:
  9287 ;;		Nothing
  9288 ;; This function is called by:
  9289 ;;		_sprintf
  9290 ;; This function uses a non-reentrant model
  9291 ;;
  9292                           
  9293  181D                     ___flneg:	
  9294                           ;psect for function ___flneg
  9295                           
  9296  181D                     l3200:	
  9297                           ;incstack = 0
  9298                           ; Regs used in ___flneg: [wreg]
  9299                           
  9300  181D  0873               	movf	___flneg@f1+3,w
  9301  181E  0472               	iorwf	___flneg@f1+2,w
  9302  181F  0471               	iorwf	___flneg@f1+1,w
  9303  1820  0470               	iorwf	___flneg@f1,w
  9304  1821  1903               	skipnz
  9305  1822  2824               	goto	u5021
  9306  1823  2825               	goto	u5020
  9307  1824                     u5021:
  9308  1824  2827               	goto	l3204
  9309  1825                     u5020:
  9310  1825                     l3202:
  9311  1825  3080               	movlw	128
  9312  1826  06F3               	xorwf	___flneg@f1+3,f
  9313  1827                     l3204:
  9314  1827                     l562:
  9315  1827  0008               	return
  9316  1828                     __end_of___flneg:
  9317                           
  9318                           	psect	text20
  9319  0050                     __ptext20:	
  9320 ;; *************** function ___flge *****************
  9321 ;; Defined at:
  9322 ;;		line 4 in file "C:\Program Files\Microchip\xc8\v2.35\pic\sources\c90\common\flge.c"
  9323 ;; Parameters:    Size  Location     Type
  9324 ;;  ff1             4   72[BANK0 ] unsigned char 
  9325 ;;  ff2             4   76[BANK0 ] unsigned char 
  9326 ;; Auto vars:     Size  Location     Type
  9327 ;;		None
  9328 ;; Return value:  Size  Location     Type
  9329 ;;		None               void
  9330 ;; Registers used:
  9331 ;;		wreg, status,2, status,0
  9332 ;; Tracked objects:
  9333 ;;		On entry : 0/0
  9334 ;;		On exit  : 0/0
  9335 ;;		Unchanged: 0/0
  9336 ;; Data sizes:     COMMON   BANK0   BANK1   BANK3   BANK2
  9337 ;;      Params:         0       8       0       0       0
  9338 ;;      Locals:         0       0       0       0       0
  9339 ;;      Temps:          0       0       4       0       0
  9340 ;;      Totals:         0       8       4       0       0
  9341 ;;Total ram usage:       12 bytes
  9342 ;; Hardware stack levels used: 1
  9343 ;; This function calls:
  9344 ;;		Nothing
  9345 ;; This function is called by:
  9346 ;;		_main
  9347 ;;		_sprintf
  9348 ;; This function uses a non-reentrant model
  9349 ;;
  9350                           
  9351  0050                     ___flge:	
  9352                           ;psect for function ___flge
  9353                           
  9354  0050                     l3180:	
  9355                           ;incstack = 0
  9356                           ; Regs used in ___flge: [wreg+status,2+status,0]
  9357                           
  9358  0050  3000               	movlw	0
  9359  0051  1283               	bcf	3,5	;RP0=0, select bank0
  9360  0052  1303               	bcf	3,6	;RP1=0, select bank0
  9361  0053  0568               	andwf	___flge@ff1,w
  9362  0054  1683               	bsf	3,5	;RP0=1, select bank1
  9363  0055  1303               	bcf	3,6	;RP1=0, select bank1
  9364  0056  00A0               	movwf	??___flge^(0+128)
  9365  0057  3000               	movlw	0
  9366  0058  1283               	bcf	3,5	;RP0=0, select bank0
  9367  0059  1303               	bcf	3,6	;RP1=0, select bank0
  9368  005A  0569               	andwf	___flge@ff1+1,w
  9369  005B  1683               	bsf	3,5	;RP0=1, select bank1
  9370  005C  1303               	bcf	3,6	;RP1=0, select bank1
  9371  005D  00A1               	movwf	(??___flge^(0+128)+1)
  9372  005E  3080               	movlw	128
  9373  005F  1283               	bcf	3,5	;RP0=0, select bank0
  9374  0060  1303               	bcf	3,6	;RP1=0, select bank0
  9375  0061  056A               	andwf	___flge@ff1+2,w
  9376  0062  1683               	bsf	3,5	;RP0=1, select bank1
  9377  0063  1303               	bcf	3,6	;RP1=0, select bank1
  9378  0064  00A2               	movwf	(??___flge^(0+128)+2)
  9379  0065  307F               	movlw	127
  9380  0066  1283               	bcf	3,5	;RP0=0, select bank0
  9381  0067  1303               	bcf	3,6	;RP1=0, select bank0
  9382  0068  056B               	andwf	___flge@ff1+3,w
  9383  0069  1683               	bsf	3,5	;RP0=1, select bank1
  9384  006A  1303               	bcf	3,6	;RP1=0, select bank1
  9385  006B  00A3               	movwf	(??___flge^(0+128)+3)
  9386  006C  0823               	movf	(??___flge+3)^(0+128),w
  9387  006D  0422               	iorwf	(??___flge+2)^(0+128),w
  9388  006E  0421               	iorwf	(??___flge+1)^(0+128),w
  9389  006F  0420               	iorwf	??___flge^(0+128),w
  9390  0070  1D03               	skipz
  9391  0071  2873               	goto	u4951
  9392  0072  2874               	goto	u4950
  9393  0073                     u4951:
  9394  0073  287E               	goto	l554
  9395  0074                     u4950:
  9396  0074                     l3182:
  9397  0074  3000               	movlw	0
  9398  0075  1283               	bcf	3,5	;RP0=0, select bank0
  9399  0076  1303               	bcf	3,6	;RP1=0, select bank0
  9400  0077  00EB               	movwf	___flge@ff1+3
  9401  0078  3000               	movlw	0
  9402  0079  00EA               	movwf	___flge@ff1+2
  9403  007A  3000               	movlw	0
  9404  007B  00E9               	movwf	___flge@ff1+1
  9405  007C  3000               	movlw	0
  9406  007D  00E8               	movwf	___flge@ff1
  9407  007E                     l554:
  9408  007E  3000               	movlw	0
  9409  007F  1283               	bcf	3,5	;RP0=0, select bank0
  9410  0080  056C               	andwf	___flge@ff2,w
  9411  0081  1683               	bsf	3,5	;RP0=1, select bank1
  9412  0082  1303               	bcf	3,6	;RP1=0, select bank1
  9413  0083  00A0               	movwf	??___flge^(0+128)
  9414  0084  3000               	movlw	0
  9415  0085  1283               	bcf	3,5	;RP0=0, select bank0
  9416  0086  1303               	bcf	3,6	;RP1=0, select bank0
  9417  0087  056D               	andwf	___flge@ff2+1,w
  9418  0088  1683               	bsf	3,5	;RP0=1, select bank1
  9419  0089  1303               	bcf	3,6	;RP1=0, select bank1
  9420  008A  00A1               	movwf	(??___flge^(0+128)+1)
  9421  008B  3080               	movlw	128
  9422  008C  1283               	bcf	3,5	;RP0=0, select bank0
  9423  008D  1303               	bcf	3,6	;RP1=0, select bank0
  9424  008E  056E               	andwf	___flge@ff2+2,w
  9425  008F  1683               	bsf	3,5	;RP0=1, select bank1
  9426  0090  1303               	bcf	3,6	;RP1=0, select bank1
  9427  0091  00A2               	movwf	(??___flge^(0+128)+2)
  9428  0092  307F               	movlw	127
  9429  0093  1283               	bcf	3,5	;RP0=0, select bank0
  9430  0094  1303               	bcf	3,6	;RP1=0, select bank0
  9431  0095  056F               	andwf	___flge@ff2+3,w
  9432  0096  1683               	bsf	3,5	;RP0=1, select bank1
  9433  0097  1303               	bcf	3,6	;RP1=0, select bank1
  9434  0098  00A3               	movwf	(??___flge^(0+128)+3)
  9435  0099  0823               	movf	(??___flge+3)^(0+128),w
  9436  009A  0422               	iorwf	(??___flge+2)^(0+128),w
  9437  009B  0421               	iorwf	(??___flge+1)^(0+128),w
  9438  009C  0420               	iorwf	??___flge^(0+128),w
  9439  009D  1D03               	skipz
  9440  009E  28A0               	goto	u4961
  9441  009F  28A1               	goto	u4960
  9442  00A0                     u4961:
  9443  00A0  28AB               	goto	l3186
  9444  00A1                     u4960:
  9445  00A1                     l3184:
  9446  00A1  3000               	movlw	0
  9447  00A2  1283               	bcf	3,5	;RP0=0, select bank0
  9448  00A3  1303               	bcf	3,6	;RP1=0, select bank0
  9449  00A4  00EF               	movwf	___flge@ff2+3
  9450  00A5  3000               	movlw	0
  9451  00A6  00EE               	movwf	___flge@ff2+2
  9452  00A7  3000               	movlw	0
  9453  00A8  00ED               	movwf	___flge@ff2+1
  9454  00A9  3000               	movlw	0
  9455  00AA  00EC               	movwf	___flge@ff2
  9456  00AB                     l3186:
  9457  00AB  1283               	bcf	3,5	;RP0=0, select bank0
  9458  00AC  1FEB               	btfss	___flge@ff1+3,7
  9459  00AD  28AF               	goto	u4971
  9460  00AE  28B0               	goto	u4970
  9461  00AF                     u4971:
  9462  00AF  28F8               	goto	l3190
  9463  00B0                     u4970:
  9464  00B0                     l3188:
  9465  00B0  3000               	movlw	0
  9466  00B1  1683               	bsf	3,5	;RP0=1, select bank1
  9467  00B2  1303               	bcf	3,6	;RP1=0, select bank1
  9468  00B3  00A0               	movwf	??___flge^(0+128)
  9469  00B4  3000               	movlw	0
  9470  00B5  00A1               	movwf	(??___flge^(0+128)+1)
  9471  00B6  3000               	movlw	0
  9472  00B7  00A2               	movwf	(??___flge^(0+128)+2)
  9473  00B8  3080               	movlw	128
  9474  00B9  00A3               	movwf	(??___flge^(0+128)+3)
  9475  00BA  1283               	bcf	3,5	;RP0=0, select bank0
  9476  00BB  1303               	bcf	3,6	;RP1=0, select bank0
  9477  00BC  0868               	movf	___flge@ff1,w
  9478  00BD  1683               	bsf	3,5	;RP0=1, select bank1
  9479  00BE  1303               	bcf	3,6	;RP1=0, select bank1
  9480  00BF  02A0               	subwf	??___flge^(0+128),f
  9481  00C0  1283               	bcf	3,5	;RP0=0, select bank0
  9482  00C1  1303               	bcf	3,6	;RP1=0, select bank0
  9483  00C2  0869               	movf	___flge@ff1+1,w
  9484  00C3  1C03               	skipc
  9485  00C4  0F69               	incfsz	___flge@ff1+1,w
  9486  00C5  28C7               	goto	u4981
  9487  00C6  28CA               	goto	u4982
  9488  00C7                     u4981:
  9489  00C7  1683               	bsf	3,5	;RP0=1, select bank1
  9490  00C8  1303               	bcf	3,6	;RP1=0, select bank1
  9491  00C9  02A1               	subwf	(??___flge^(0+128)+1),f
  9492  00CA                     u4982:
  9493  00CA  1283               	bcf	3,5	;RP0=0, select bank0
  9494  00CB  1303               	bcf	3,6	;RP1=0, select bank0
  9495  00CC  086A               	movf	___flge@ff1+2,w
  9496  00CD  1C03               	skipc
  9497  00CE  0F6A               	incfsz	___flge@ff1+2,w
  9498  00CF  28D1               	goto	u4983
  9499  00D0  28D4               	goto	u4984
  9500  00D1                     u4983:
  9501  00D1  1683               	bsf	3,5	;RP0=1, select bank1
  9502  00D2  1303               	bcf	3,6	;RP1=0, select bank1
  9503  00D3  02A2               	subwf	(??___flge^(0+128)+2),f
  9504  00D4                     u4984:
  9505  00D4  1283               	bcf	3,5	;RP0=0, select bank0
  9506  00D5  1303               	bcf	3,6	;RP1=0, select bank0
  9507  00D6  086B               	movf	___flge@ff1+3,w
  9508  00D7  1C03               	skipc
  9509  00D8  0F6B               	incfsz	___flge@ff1+3,w
  9510  00D9  28DB               	goto	u4985
  9511  00DA  28DE               	goto	u4986
  9512  00DB                     u4985:
  9513  00DB  1683               	bsf	3,5	;RP0=1, select bank1
  9514  00DC  1303               	bcf	3,6	;RP1=0, select bank1
  9515  00DD  02A3               	subwf	(??___flge^(0+128)+3),f
  9516  00DE                     u4986:
  9517  00DE  1283               	bcf	3,5	;RP0=0, select bank0
  9518  00DF  1303               	bcf	3,6	;RP1=0, select bank0
  9519  00E0  1683               	bsf	3,5	;RP0=1, select bank1
  9520  00E1  1303               	bcf	3,6	;RP1=0, select bank1
  9521  00E2  0823               	movf	(??___flge+3)^(0+128),w
  9522  00E3  1283               	bcf	3,5	;RP0=0, select bank0
  9523  00E4  1303               	bcf	3,6	;RP1=0, select bank0
  9524  00E5  00EB               	movwf	___flge@ff1+3
  9525  00E6  1683               	bsf	3,5	;RP0=1, select bank1
  9526  00E7  1303               	bcf	3,6	;RP1=0, select bank1
  9527  00E8  0822               	movf	(??___flge+2)^(0+128),w
  9528  00E9  1283               	bcf	3,5	;RP0=0, select bank0
  9529  00EA  1303               	bcf	3,6	;RP1=0, select bank0
  9530  00EB  00EA               	movwf	___flge@ff1+2
  9531  00EC  1683               	bsf	3,5	;RP0=1, select bank1
  9532  00ED  1303               	bcf	3,6	;RP1=0, select bank1
  9533  00EE  0821               	movf	(??___flge+1)^(0+128),w
  9534  00EF  1283               	bcf	3,5	;RP0=0, select bank0
  9535  00F0  1303               	bcf	3,6	;RP1=0, select bank0
  9536  00F1  00E9               	movwf	___flge@ff1+1
  9537  00F2  1683               	bsf	3,5	;RP0=1, select bank1
  9538  00F3  1303               	bcf	3,6	;RP1=0, select bank1
  9539  00F4  0820               	movf	??___flge^(0+128),w
  9540  00F5  1283               	bcf	3,5	;RP0=0, select bank0
  9541  00F6  1303               	bcf	3,6	;RP1=0, select bank0
  9542  00F7  00E8               	movwf	___flge@ff1
  9543  00F8                     l3190:
  9544  00F8  1FEF               	btfss	___flge@ff2+3,7
  9545  00F9  28FB               	goto	u4991
  9546  00FA  28FC               	goto	u4990
  9547  00FB                     u4991:
  9548  00FB  2944               	goto	l557
  9549  00FC                     u4990:
  9550  00FC                     l3192:
  9551  00FC  3000               	movlw	0
  9552  00FD  1683               	bsf	3,5	;RP0=1, select bank1
  9553  00FE  1303               	bcf	3,6	;RP1=0, select bank1
  9554  00FF  00A0               	movwf	??___flge^(0+128)
  9555  0100  3000               	movlw	0
  9556  0101  00A1               	movwf	(??___flge^(0+128)+1)
  9557  0102  3000               	movlw	0
  9558  0103  00A2               	movwf	(??___flge^(0+128)+2)
  9559  0104  3080               	movlw	128
  9560  0105  00A3               	movwf	(??___flge^(0+128)+3)
  9561  0106  1283               	bcf	3,5	;RP0=0, select bank0
  9562  0107  1303               	bcf	3,6	;RP1=0, select bank0
  9563  0108  086C               	movf	___flge@ff2,w
  9564  0109  1683               	bsf	3,5	;RP0=1, select bank1
  9565  010A  1303               	bcf	3,6	;RP1=0, select bank1
  9566  010B  02A0               	subwf	??___flge^(0+128),f
  9567  010C  1283               	bcf	3,5	;RP0=0, select bank0
  9568  010D  1303               	bcf	3,6	;RP1=0, select bank0
  9569  010E  086D               	movf	___flge@ff2+1,w
  9570  010F  1C03               	skipc
  9571  0110  0F6D               	incfsz	___flge@ff2+1,w
  9572  0111  2913               	goto	u5001
  9573  0112  2916               	goto	u5002
  9574  0113                     u5001:
  9575  0113  1683               	bsf	3,5	;RP0=1, select bank1
  9576  0114  1303               	bcf	3,6	;RP1=0, select bank1
  9577  0115  02A1               	subwf	(??___flge^(0+128)+1),f
  9578  0116                     u5002:
  9579  0116  1283               	bcf	3,5	;RP0=0, select bank0
  9580  0117  1303               	bcf	3,6	;RP1=0, select bank0
  9581  0118  086E               	movf	___flge@ff2+2,w
  9582  0119  1C03               	skipc
  9583  011A  0F6E               	incfsz	___flge@ff2+2,w
  9584  011B  291D               	goto	u5003
  9585  011C  2920               	goto	u5004
  9586  011D                     u5003:
  9587  011D  1683               	bsf	3,5	;RP0=1, select bank1
  9588  011E  1303               	bcf	3,6	;RP1=0, select bank1
  9589  011F  02A2               	subwf	(??___flge^(0+128)+2),f
  9590  0120                     u5004:
  9591  0120  1283               	bcf	3,5	;RP0=0, select bank0
  9592  0121  1303               	bcf	3,6	;RP1=0, select bank0
  9593  0122  086F               	movf	___flge@ff2+3,w
  9594  0123  1C03               	skipc
  9595  0124  0F6F               	incfsz	___flge@ff2+3,w
  9596  0125  2927               	goto	u5005
  9597  0126  292A               	goto	u5006
  9598  0127                     u5005:
  9599  0127  1683               	bsf	3,5	;RP0=1, select bank1
  9600  0128  1303               	bcf	3,6	;RP1=0, select bank1
  9601  0129  02A3               	subwf	(??___flge^(0+128)+3),f
  9602  012A                     u5006:
  9603  012A  1283               	bcf	3,5	;RP0=0, select bank0
  9604  012B  1303               	bcf	3,6	;RP1=0, select bank0
  9605  012C  1683               	bsf	3,5	;RP0=1, select bank1
  9606  012D  1303               	bcf	3,6	;RP1=0, select bank1
  9607  012E  0823               	movf	(??___flge+3)^(0+128),w
  9608  012F  1283               	bcf	3,5	;RP0=0, select bank0
  9609  0130  1303               	bcf	3,6	;RP1=0, select bank0
  9610  0131  00EF               	movwf	___flge@ff2+3
  9611  0132  1683               	bsf	3,5	;RP0=1, select bank1
  9612  0133  1303               	bcf	3,6	;RP1=0, select bank1
  9613  0134  0822               	movf	(??___flge+2)^(0+128),w
  9614  0135  1283               	bcf	3,5	;RP0=0, select bank0
  9615  0136  1303               	bcf	3,6	;RP1=0, select bank0
  9616  0137  00EE               	movwf	___flge@ff2+2
  9617  0138  1683               	bsf	3,5	;RP0=1, select bank1
  9618  0139  1303               	bcf	3,6	;RP1=0, select bank1
  9619  013A  0821               	movf	(??___flge+1)^(0+128),w
  9620  013B  1283               	bcf	3,5	;RP0=0, select bank0
  9621  013C  1303               	bcf	3,6	;RP1=0, select bank0
  9622  013D  00ED               	movwf	___flge@ff2+1
  9623  013E  1683               	bsf	3,5	;RP0=1, select bank1
  9624  013F  1303               	bcf	3,6	;RP1=0, select bank1
  9625  0140  0820               	movf	??___flge^(0+128),w
  9626  0141  1283               	bcf	3,5	;RP0=0, select bank0
  9627  0142  1303               	bcf	3,6	;RP1=0, select bank0
  9628  0143  00EC               	movwf	___flge@ff2
  9629  0144                     l557:
  9630  0144  3080               	movlw	128
  9631  0145  06EB               	xorwf	___flge@ff1+3,f
  9632  0146  3080               	movlw	128
  9633  0147  06EF               	xorwf	___flge@ff2+3,f
  9634  0148  086F               	movf	___flge@ff2+3,w
  9635  0149  026B               	subwf	___flge@ff1+3,w
  9636  014A  1D03               	skipz
  9637  014B  2956               	goto	u5015
  9638  014C  086E               	movf	___flge@ff2+2,w
  9639  014D  026A               	subwf	___flge@ff1+2,w
  9640  014E  1D03               	skipz
  9641  014F  2956               	goto	u5015
  9642  0150  086D               	movf	___flge@ff2+1,w
  9643  0151  0269               	subwf	___flge@ff1+1,w
  9644  0152  1D03               	skipz
  9645  0153  2956               	goto	u5015
  9646  0154  086C               	movf	___flge@ff2,w
  9647  0155  0268               	subwf	___flge@ff1,w
  9648  0156                     u5015:
  9649  0156  1803               	skipnc
  9650  0157  2959               	goto	u5011
  9651  0158  295A               	goto	u5010
  9652  0159                     u5011:
  9653  0159  295C               	goto	l3196
  9654  015A                     u5010:
  9655  015A                     l3194:
  9656  015A  1003               	clrc
  9657  015B  295D               	goto	l558
  9658  015C                     l3196:
  9659  015C  1403               	setc
  9660  015D                     l558:
  9661  015D  0008               	return
  9662  015E                     __end_of___flge:
  9663                           
  9664                           	psect	text21
  9665  1ABD                     __ptext21:	
  9666 ;; *************** function ___fleq *****************
  9667 ;; Defined at:
  9668 ;;		line 4 in file "C:\Program Files\Microchip\xc8\v2.35\pic\sources\c90\common\fleq.c"
  9669 ;; Parameters:    Size  Location     Type
  9670 ;;  ff1             4    0[COMMON] unsigned char 
  9671 ;;  ff2             4    4[COMMON] unsigned char 
  9672 ;; Auto vars:     Size  Location     Type
  9673 ;;		None
  9674 ;; Return value:  Size  Location     Type
  9675 ;;		None               void
  9676 ;; Registers used:
  9677 ;;		wreg, status,2, status,0
  9678 ;; Tracked objects:
  9679 ;;		On entry : 0/0
  9680 ;;		On exit  : 0/0
  9681 ;;		Unchanged: 0/0
  9682 ;; Data sizes:     COMMON   BANK0   BANK1   BANK3   BANK2
  9683 ;;      Params:         8       0       0       0       0
  9684 ;;      Locals:         0       0       0       0       0
  9685 ;;      Temps:          4       0       0       0       0
  9686 ;;      Totals:        12       0       0       0       0
  9687 ;;Total ram usage:       12 bytes
  9688 ;; Hardware stack levels used: 1
  9689 ;; This function calls:
  9690 ;;		Nothing
  9691 ;; This function is called by:
  9692 ;;		_sprintf
  9693 ;; This function uses a non-reentrant model
  9694 ;;
  9695                           
  9696  1ABD                     ___fleq:	
  9697                           ;psect for function ___fleq
  9698                           
  9699  1ABD                     l3168:	
  9700                           ;incstack = 0
  9701                           ; Regs used in ___fleq: [wreg+status,2+status,0]
  9702                           
  9703  1ABD  3000               	movlw	0
  9704  1ABE  0570               	andwf	___fleq@ff1,w
  9705  1ABF  00F8               	movwf	??___fleq
  9706  1AC0  3000               	movlw	0
  9707  1AC1  0571               	andwf	___fleq@ff1+1,w
  9708  1AC2  00F9               	movwf	??___fleq+1
  9709  1AC3  3080               	movlw	128
  9710  1AC4  0572               	andwf	___fleq@ff1+2,w
  9711  1AC5  00FA               	movwf	??___fleq+2
  9712  1AC6  307F               	movlw	127
  9713  1AC7  0573               	andwf	___fleq@ff1+3,w
  9714  1AC8  00FB               	movwf	??___fleq+3
  9715  1AC9  087B               	movf	??___fleq+3,w
  9716  1ACA  047A               	iorwf	??___fleq+2,w
  9717  1ACB  0479               	iorwf	??___fleq+1,w
  9718  1ACC  0478               	iorwf	??___fleq,w
  9719  1ACD  1D03               	skipz
  9720  1ACE  2AD0               	goto	u4921
  9721  1ACF  2AD1               	goto	u4920
  9722  1AD0                     u4921:
  9723  1AD0  2AD9               	goto	l549
  9724  1AD1                     u4920:
  9725  1AD1                     l3170:
  9726  1AD1  3000               	movlw	0
  9727  1AD2  00F3               	movwf	___fleq@ff1+3
  9728  1AD3  3000               	movlw	0
  9729  1AD4  00F2               	movwf	___fleq@ff1+2
  9730  1AD5  3000               	movlw	0
  9731  1AD6  00F1               	movwf	___fleq@ff1+1
  9732  1AD7  3000               	movlw	0
  9733  1AD8  00F0               	movwf	___fleq@ff1
  9734  1AD9                     l549:
  9735  1AD9  3000               	movlw	0
  9736  1ADA  0574               	andwf	___fleq@ff2,w
  9737  1ADB  00F8               	movwf	??___fleq
  9738  1ADC  3000               	movlw	0
  9739  1ADD  0575               	andwf	___fleq@ff2+1,w
  9740  1ADE  00F9               	movwf	??___fleq+1
  9741  1ADF  3080               	movlw	128
  9742  1AE0  0576               	andwf	___fleq@ff2+2,w
  9743  1AE1  00FA               	movwf	??___fleq+2
  9744  1AE2  307F               	movlw	127
  9745  1AE3  0577               	andwf	___fleq@ff2+3,w
  9746  1AE4  00FB               	movwf	??___fleq+3
  9747  1AE5  087B               	movf	??___fleq+3,w
  9748  1AE6  047A               	iorwf	??___fleq+2,w
  9749  1AE7  0479               	iorwf	??___fleq+1,w
  9750  1AE8  0478               	iorwf	??___fleq,w
  9751  1AE9  1D03               	skipz
  9752  1AEA  2AEC               	goto	u4931
  9753  1AEB  2AED               	goto	u4930
  9754  1AEC                     u4931:
  9755  1AEC  2AF5               	goto	l550
  9756  1AED                     u4930:
  9757  1AED                     l3172:
  9758  1AED  3000               	movlw	0
  9759  1AEE  00F7               	movwf	___fleq@ff2+3
  9760  1AEF  3000               	movlw	0
  9761  1AF0  00F6               	movwf	___fleq@ff2+2
  9762  1AF1  3000               	movlw	0
  9763  1AF2  00F5               	movwf	___fleq@ff2+1
  9764  1AF3  3000               	movlw	0
  9765  1AF4  00F4               	movwf	___fleq@ff2
  9766  1AF5                     l550:
  9767  1AF5  0877               	movf	___fleq@ff2+3,w
  9768  1AF6  0673               	xorwf	___fleq@ff1+3,w
  9769  1AF7  1D03               	skipz
  9770  1AF8  2B03               	goto	u4945
  9771  1AF9  0876               	movf	___fleq@ff2+2,w
  9772  1AFA  0672               	xorwf	___fleq@ff1+2,w
  9773  1AFB  1D03               	skipz
  9774  1AFC  2B03               	goto	u4945
  9775  1AFD  0875               	movf	___fleq@ff2+1,w
  9776  1AFE  0671               	xorwf	___fleq@ff1+1,w
  9777  1AFF  1D03               	skipz
  9778  1B00  2B03               	goto	u4945
  9779  1B01  0874               	movf	___fleq@ff2,w
  9780  1B02  0670               	xorwf	___fleq@ff1,w
  9781  1B03                     u4945:
  9782  1B03  1903               	skipnz
  9783  1B04  2B06               	goto	u4941
  9784  1B05  2B07               	goto	u4940
  9785  1B06                     u4941:
  9786  1B06  2B09               	goto	l3176
  9787  1B07                     u4940:
  9788  1B07                     l3174:
  9789  1B07  1003               	clrc
  9790  1B08  2B0A               	goto	l551
  9791  1B09                     l3176:
  9792  1B09  1403               	setc
  9793  1B0A                     l551:
  9794  1B0A  0008               	return
  9795  1B0B                     __end_of___fleq:
  9796                           
  9797                           	psect	text22
  9798  1882                     __ptext22:	
  9799 ;; *************** function _memset *****************
  9800 ;; Defined at:
  9801 ;;		line 8 in file "C:\Program Files\Microchip\xc8\v2.35\pic\sources\c90\common\memset.c"
  9802 ;; Parameters:    Size  Location     Type
  9803 ;;  p1              1    wreg     PTR void 
  9804 ;;		 -> main@Str(50), 
  9805 ;;  c               2    0[COMMON] int 
  9806 ;;  n               2    2[COMMON] unsigned int 
  9807 ;; Auto vars:     Size  Location     Type
  9808 ;;  p1              1    5[COMMON] PTR void 
  9809 ;;		 -> main@Str(50), 
  9810 ;;  p               1    6[COMMON] PTR unsigned char 
  9811 ;;		 -> main@Str(50), 
  9812 ;; Return value:  Size  Location     Type
  9813 ;;                  1    wreg      PTR void 
  9814 ;; Registers used:
  9815 ;;		wreg, fsr0l, fsr0h, status,2, status,0
  9816 ;; Tracked objects:
  9817 ;;		On entry : 0/0
  9818 ;;		On exit  : 0/0
  9819 ;;		Unchanged: 0/0
  9820 ;; Data sizes:     COMMON   BANK0   BANK1   BANK3   BANK2
  9821 ;;      Params:         4       0       0       0       0
  9822 ;;      Locals:         2       0       0       0       0
  9823 ;;      Temps:          1       0       0       0       0
  9824 ;;      Totals:         7       0       0       0       0
  9825 ;;Total ram usage:        7 bytes
  9826 ;; Hardware stack levels used: 1
  9827 ;; This function calls:
  9828 ;;		Nothing
  9829 ;; This function is called by:
  9830 ;;		_main
  9831 ;; This function uses a non-reentrant model
  9832 ;;
  9833                           
  9834  1882                     _memset:	
  9835                           ;psect for function _memset
  9836                           
  9837                           
  9838                           ;incstack = 0
  9839                           ; Regs used in _memset: [wreg-fsr0h+status,2+status,0]
  9840                           ;memset@p1 stored from wreg
  9841  1882  00F5               	movwf	memset@p1
  9842  1883                     l3412:
  9843  1883  0875               	movf	memset@p1,w
  9844  1884  00F4               	movwf	??_memset
  9845  1885  0874               	movf	??_memset,w
  9846  1886  00F6               	movwf	memset@p
  9847  1887  2893               	goto	l3418
  9848  1888                     l3414:
  9849  1888  0870               	movf	memset@c,w
  9850  1889  00F4               	movwf	??_memset
  9851  188A  0876               	movf	memset@p,w
  9852  188B  0084               	movwf	4
  9853  188C  0874               	movf	??_memset,w
  9854  188D  1783               	bsf	3,7	;select IRP bank2
  9855  188E  0080               	movwf	0
  9856  188F                     l3416:
  9857  188F  3001               	movlw	1
  9858  1890  00F4               	movwf	??_memset
  9859  1891  0874               	movf	??_memset,w
  9860  1892  07F6               	addwf	memset@p,f
  9861  1893                     l3418:
  9862  1893  3001               	movlw	1
  9863  1894  02F2               	subwf	memset@n,f
  9864  1895  3000               	movlw	0
  9865  1896  1C03               	skipc
  9866  1897  03F3               	decf	memset@n+1,f
  9867  1898  02F3               	subwf	memset@n+1,f
  9868  1899  0A72               	incf	memset@n,w
  9869  189A  1D03               	skipz
  9870  189B  28A0               	goto	u5421
  9871  189C  0A73               	incf	memset@n+1,w
  9872  189D  1D03               	btfss	3,2
  9873  189E  28A0               	goto	u5421
  9874  189F  28A1               	goto	u5420
  9875  18A0                     u5421:
  9876  18A0  2888               	goto	l3414
  9877  18A1                     u5420:
  9878  18A1                     l856:
  9879  18A1  0008               	return
  9880  18A2                     __end_of_memset:
  9881                           
  9882                           	psect	text23
  9883  1E23                     __ptext23:	
  9884 ;; *************** function ___fldiv *****************
  9885 ;; Defined at:
  9886 ;;		line 8 in file "C:\Program Files\Microchip\xc8\v2.35\pic\sources\c90\common\sprcdiv.c"
  9887 ;; Parameters:    Size  Location     Type
  9888 ;;  a               4   32[BANK0 ] PTR void 
  9889 ;;  b               4   36[BANK0 ] PTR void 
  9890 ;; Auto vars:     Size  Location     Type
  9891 ;;  grs             4   52[BANK0 ] unsigned long 
  9892 ;;  rem             4   45[BANK0 ] unsigned long 
  9893 ;;  new_exp         2   50[BANK0 ] int 
  9894 ;;  aexp            1   57[BANK0 ] unsigned char 
  9895 ;;  bexp            1   56[BANK0 ] unsigned char 
  9896 ;;  sign            1   49[BANK0 ] unsigned char 
  9897 ;; Return value:  Size  Location     Type
  9898 ;;                  4   32[BANK0 ] unsigned char 
  9899 ;; Registers used:
  9900 ;;		wreg, status,2, status,0, btemp+1
  9901 ;; Tracked objects:
  9902 ;;		On entry : 0/0
  9903 ;;		On exit  : 0/0
  9904 ;;		Unchanged: 0/0
  9905 ;; Data sizes:     COMMON   BANK0   BANK1   BANK3   BANK2
  9906 ;;      Params:         0       8       0       0       0
  9907 ;;      Locals:         0      13       0       0       0
  9908 ;;      Temps:          0       5       0       0       0
  9909 ;;      Totals:         0      26       0       0       0
  9910 ;;Total ram usage:       26 bytes
  9911 ;; Hardware stack levels used: 1
  9912 ;; This function calls:
  9913 ;;		Nothing
  9914 ;; This function is called by:
  9915 ;;		_main
  9916 ;; This function uses a non-reentrant model
  9917 ;;
  9918                           
  9919  1E23                     ___fldiv:	
  9920                           ;psect for function ___fldiv
  9921                           
  9922  1E23                     l3628:	
  9923                           ;incstack = 0
  9924                           ; Regs used in ___fldiv: [wreg+status,2+status,0+btemp+1]
  9925                           
  9926  1E23  1283               	bcf	3,5	;RP0=0, select bank0
  9927  1E24  1303               	bcf	3,6	;RP1=0, select bank0
  9928  1E25  0847               	movf	___fldiv@b+3,w
  9929  1E26  3980               	andlw	128
  9930  1E27  00C8               	movwf	??___fldiv
  9931  1E28  0848               	movf	??___fldiv,w
  9932  1E29  00D1               	movwf	___fldiv@sign
  9933  1E2A                     l3630:
  9934  1E2A  0847               	movf	___fldiv@b+3,w
  9935  1E2B  00C8               	movwf	??___fldiv
  9936  1E2C  0748               	addwf	??___fldiv,w
  9937  1E2D  00C9               	movwf	??___fldiv+1
  9938  1E2E  0849               	movf	??___fldiv+1,w
  9939  1E2F  00D8               	movwf	___fldiv@bexp
  9940  1E30                     l3632:
  9941  1E30  1FC6               	btfss	___fldiv@b+2,7
  9942  1E31  2E33               	goto	u5781
  9943  1E32  2E34               	goto	u5780
  9944  1E33                     u5781:
  9945  1E33  2E35               	goto	l3636
  9946  1E34                     u5780:
  9947  1E34                     l3634:
  9948  1E34  1458               	bsf	___fldiv@bexp,0
  9949  1E35                     l3636:
  9950  1E35  0858               	movf	___fldiv@bexp,w
  9951  1E36  1903               	btfsc	3,2
  9952  1E37  2E39               	goto	u5791
  9953  1E38  2E3A               	goto	u5790
  9954  1E39                     u5791:
  9955  1E39  2E4A               	goto	l3646
  9956  1E3A                     u5790:
  9957  1E3A                     l3638:
  9958  1E3A  0A58               	incf	___fldiv@bexp,w
  9959  1E3B  1D03               	btfss	3,2
  9960  1E3C  2E3E               	goto	u5801
  9961  1E3D  2E3F               	goto	u5800
  9962  1E3E                     u5801:
  9963  1E3E  2E47               	goto	l3642
  9964  1E3F                     u5800:
  9965  1E3F                     l3640:
  9966  1E3F  3000               	movlw	0
  9967  1E40  00C7               	movwf	___fldiv@b+3
  9968  1E41  3000               	movlw	0
  9969  1E42  00C6               	movwf	___fldiv@b+2
  9970  1E43  3000               	movlw	0
  9971  1E44  00C5               	movwf	___fldiv@b+1
  9972  1E45  3000               	movlw	0
  9973  1E46  00C4               	movwf	___fldiv@b
  9974  1E47                     l3642:
  9975  1E47  17C6               	bsf	___fldiv@b+2,7
  9976  1E48                     l3644:
  9977  1E48  01C7               	clrf	___fldiv@b+3
  9978  1E49  2E52               	goto	l3648
  9979  1E4A                     l3646:
  9980  1E4A  3000               	movlw	0
  9981  1E4B  00C7               	movwf	___fldiv@b+3
  9982  1E4C  3000               	movlw	0
  9983  1E4D  00C6               	movwf	___fldiv@b+2
  9984  1E4E  3000               	movlw	0
  9985  1E4F  00C5               	movwf	___fldiv@b+1
  9986  1E50  3000               	movlw	0
  9987  1E51  00C4               	movwf	___fldiv@b
  9988  1E52                     l3648:
  9989  1E52  0843               	movf	___fldiv@a+3,w
  9990  1E53  3980               	andlw	128
  9991  1E54  00C8               	movwf	??___fldiv
  9992  1E55  0848               	movf	??___fldiv,w
  9993  1E56  06D1               	xorwf	___fldiv@sign,f
  9994  1E57                     l3650:
  9995  1E57  0843               	movf	___fldiv@a+3,w
  9996  1E58  00C8               	movwf	??___fldiv
  9997  1E59  0748               	addwf	??___fldiv,w
  9998  1E5A  00C9               	movwf	??___fldiv+1
  9999  1E5B  0849               	movf	??___fldiv+1,w
 10000  1E5C  00D9               	movwf	___fldiv@aexp
 10001  1E5D                     l3652:
 10002  1E5D  1FC2               	btfss	___fldiv@a+2,7
 10003  1E5E  2E60               	goto	u5811
 10004  1E5F  2E61               	goto	u5810
 10005  1E60                     u5811:
 10006  1E60  2E62               	goto	l3656
 10007  1E61                     u5810:
 10008  1E61                     l3654:
 10009  1E61  1459               	bsf	___fldiv@aexp,0
 10010  1E62                     l3656:
 10011  1E62  0859               	movf	___fldiv@aexp,w
 10012  1E63  1903               	btfsc	3,2
 10013  1E64  2E66               	goto	u5821
 10014  1E65  2E67               	goto	u5820
 10015  1E66                     u5821:
 10016  1E66  2E77               	goto	l3666
 10017  1E67                     u5820:
 10018  1E67                     l3658:
 10019  1E67  0A59               	incf	___fldiv@aexp,w
 10020  1E68  1D03               	btfss	3,2
 10021  1E69  2E6B               	goto	u5831
 10022  1E6A  2E6C               	goto	u5830
 10023  1E6B                     u5831:
 10024  1E6B  2E74               	goto	l3662
 10025  1E6C                     u5830:
 10026  1E6C                     l3660:
 10027  1E6C  3000               	movlw	0
 10028  1E6D  00C3               	movwf	___fldiv@a+3
 10029  1E6E  3000               	movlw	0
 10030  1E6F  00C2               	movwf	___fldiv@a+2
 10031  1E70  3000               	movlw	0
 10032  1E71  00C1               	movwf	___fldiv@a+1
 10033  1E72  3000               	movlw	0
 10034  1E73  00C0               	movwf	___fldiv@a
 10035  1E74                     l3662:
 10036  1E74  17C2               	bsf	___fldiv@a+2,7
 10037  1E75                     l3664:
 10038  1E75  01C3               	clrf	___fldiv@a+3
 10039  1E76  2E7F               	goto	l746
 10040  1E77                     l3666:
 10041  1E77  3000               	movlw	0
 10042  1E78  00C3               	movwf	___fldiv@a+3
 10043  1E79  3000               	movlw	0
 10044  1E7A  00C2               	movwf	___fldiv@a+2
 10045  1E7B  3000               	movlw	0
 10046  1E7C  00C1               	movwf	___fldiv@a+1
 10047  1E7D  3000               	movlw	0
 10048  1E7E  00C0               	movwf	___fldiv@a
 10049  1E7F                     l746:
 10050  1E7F  0843               	movf	___fldiv@a+3,w
 10051  1E80  0442               	iorwf	___fldiv@a+2,w
 10052  1E81  0441               	iorwf	___fldiv@a+1,w
 10053  1E82  0440               	iorwf	___fldiv@a,w
 10054  1E83  1D03               	skipz
 10055  1E84  2E86               	goto	u5841
 10056  1E85  2E87               	goto	u5840
 10057  1E86                     u5841:
 10058  1E86  2EA0               	goto	l3676
 10059  1E87                     u5840:
 10060  1E87                     l3668:
 10061  1E87  3000               	movlw	0
 10062  1E88  00C7               	movwf	___fldiv@b+3
 10063  1E89  3000               	movlw	0
 10064  1E8A  00C6               	movwf	___fldiv@b+2
 10065  1E8B  3000               	movlw	0
 10066  1E8C  00C5               	movwf	___fldiv@b+1
 10067  1E8D  3000               	movlw	0
 10068  1E8E  00C4               	movwf	___fldiv@b
 10069  1E8F  3080               	movlw	128
 10070  1E90  04C6               	iorwf	___fldiv@b+2,f
 10071  1E91  307F               	movlw	127
 10072  1E92  04C7               	iorwf	___fldiv@b+3,f
 10073  1E93                     l3670:
 10074  1E93  0851               	movf	___fldiv@sign,w
 10075  1E94  00C8               	movwf	??___fldiv
 10076  1E95  0848               	movf	??___fldiv,w
 10077  1E96  04C7               	iorwf	___fldiv@b+3,f
 10078  1E97                     l3672:
 10079  1E97  0847               	movf	___fldiv@b+3,w
 10080  1E98  00C3               	movwf	?___fldiv+3
 10081  1E99  0846               	movf	___fldiv@b+2,w
 10082  1E9A  00C2               	movwf	?___fldiv+2
 10083  1E9B  0845               	movf	___fldiv@b+1,w
 10084  1E9C  00C1               	movwf	?___fldiv+1
 10085  1E9D  0844               	movf	___fldiv@b,w
 10086  1E9E  00C0               	movwf	?___fldiv
 10087  1E9F  2FFF               	goto	l748
 10088  1EA0                     l3676:
 10089  1EA0  0858               	movf	___fldiv@bexp,w
 10090  1EA1  1D03               	btfss	3,2
 10091  1EA2  2EA4               	goto	u5851
 10092  1EA3  2EA5               	goto	u5850
 10093  1EA4                     u5851:
 10094  1EA4  2EAE               	goto	l3682
 10095  1EA5                     u5850:
 10096  1EA5                     l3678:
 10097  1EA5  3000               	movlw	0
 10098  1EA6  00C3               	movwf	?___fldiv+3
 10099  1EA7  3000               	movlw	0
 10100  1EA8  00C2               	movwf	?___fldiv+2
 10101  1EA9  3000               	movlw	0
 10102  1EAA  00C1               	movwf	?___fldiv+1
 10103  1EAB  3000               	movlw	0
 10104  1EAC  00C0               	movwf	?___fldiv
 10105  1EAD  2FFF               	goto	l748
 10106  1EAE                     l3682:
 10107  1EAE  0858               	movf	___fldiv@bexp,w
 10108  1EAF  00C8               	movwf	??___fldiv
 10109  1EB0  01C9               	clrf	??___fldiv+1
 10110  1EB1  0849               	movf	??___fldiv+1,w
 10111  1EB2  00CB               	movwf	??___fldiv+3
 10112  1EB3  0859               	movf	___fldiv@aexp,w
 10113  1EB4  0248               	subwf	??___fldiv,w
 10114  1EB5  00CA               	movwf	??___fldiv+2
 10115  1EB6  1C03               	skipc
 10116  1EB7  03CB               	decf	??___fldiv+3,f
 10117  1EB8  084A               	movf	??___fldiv+2,w
 10118  1EB9  3E7F               	addlw	127
 10119  1EBA  00D2               	movwf	___fldiv@new_exp
 10120  1EBB  084B               	movf	??___fldiv+3,w
 10121  1EBC  1803               	skipnc
 10122  1EBD  3E01               	addlw	1
 10123  1EBE  3E00               	addlw	0
 10124  1EBF  00D3               	movwf	___fldiv@new_exp+1
 10125  1EC0                     l3684:
 10126  1EC0  0847               	movf	___fldiv@b+3,w
 10127  1EC1  00D0               	movwf	___fldiv@rem+3
 10128  1EC2  0846               	movf	___fldiv@b+2,w
 10129  1EC3  00CF               	movwf	___fldiv@rem+2
 10130  1EC4  0845               	movf	___fldiv@b+1,w
 10131  1EC5  00CE               	movwf	___fldiv@rem+1
 10132  1EC6  0844               	movf	___fldiv@b,w
 10133  1EC7  00CD               	movwf	___fldiv@rem
 10134  1EC8                     l3686:
 10135  1EC8  3000               	movlw	0
 10136  1EC9  00C7               	movwf	___fldiv@b+3
 10137  1ECA  3000               	movlw	0
 10138  1ECB  00C6               	movwf	___fldiv@b+2
 10139  1ECC  3000               	movlw	0
 10140  1ECD  00C5               	movwf	___fldiv@b+1
 10141  1ECE  3000               	movlw	0
 10142  1ECF  00C4               	movwf	___fldiv@b
 10143  1ED0                     l3688:
 10144  1ED0  3000               	movlw	0
 10145  1ED1  00D7               	movwf	___fldiv@grs+3
 10146  1ED2  3000               	movlw	0
 10147  1ED3  00D6               	movwf	___fldiv@grs+2
 10148  1ED4  3000               	movlw	0
 10149  1ED5  00D5               	movwf	___fldiv@grs+1
 10150  1ED6  3000               	movlw	0
 10151  1ED7  00D4               	movwf	___fldiv@grs
 10152  1ED8                     l3690:
 10153  1ED8  01D9               	clrf	___fldiv@aexp
 10154  1ED9  2F24               	goto	l3710
 10155  1EDA                     l3692:
 10156  1EDA  0859               	movf	___fldiv@aexp,w
 10157  1EDB  1903               	btfsc	3,2
 10158  1EDC  2EDE               	goto	u5861
 10159  1EDD  2EDF               	goto	u5860
 10160  1EDE                     u5861:
 10161  1EDE  2EFF               	goto	l3702
 10162  1EDF                     u5860:
 10163  1EDF                     l3694:
 10164  1EDF  3001               	movlw	1
 10165  1EE0  00C8               	movwf	??___fldiv
 10166  1EE1                     u5875:
 10167  1EE1  1003               	clrc
 10168  1EE2  0DCD               	rlf	___fldiv@rem,f
 10169  1EE3  0DCE               	rlf	___fldiv@rem+1,f
 10170  1EE4  0DCF               	rlf	___fldiv@rem+2,f
 10171  1EE5  0DD0               	rlf	___fldiv@rem+3,f
 10172  1EE6  0BC8               	decfsz	??___fldiv,f
 10173  1EE7  2EE1               	goto	u5875
 10174  1EE8  3001               	movlw	1
 10175  1EE9  00C8               	movwf	??___fldiv
 10176  1EEA                     u5885:
 10177  1EEA  1003               	clrc
 10178  1EEB  0DC4               	rlf	___fldiv@b,f
 10179  1EEC  0DC5               	rlf	___fldiv@b+1,f
 10180  1EED  0DC6               	rlf	___fldiv@b+2,f
 10181  1EEE  0DC7               	rlf	___fldiv@b+3,f
 10182  1EEF  0BC8               	decfsz	??___fldiv,f
 10183  1EF0  2EEA               	goto	u5885
 10184  1EF1                     l3696:
 10185  1EF1  1FD7               	btfss	___fldiv@grs+3,7
 10186  1EF2  2EF4               	goto	u5891
 10187  1EF3  2EF5               	goto	u5890
 10188  1EF4                     u5891:
 10189  1EF4  2EF6               	goto	l3700
 10190  1EF5                     u5890:
 10191  1EF5                     l3698:
 10192  1EF5  1444               	bsf	___fldiv@b,0
 10193  1EF6                     l3700:
 10194  1EF6  3001               	movlw	1
 10195  1EF7  00C8               	movwf	??___fldiv
 10196  1EF8                     u5905:
 10197  1EF8  1003               	clrc
 10198  1EF9  0DD4               	rlf	___fldiv@grs,f
 10199  1EFA  0DD5               	rlf	___fldiv@grs+1,f
 10200  1EFB  0DD6               	rlf	___fldiv@grs+2,f
 10201  1EFC  0DD7               	rlf	___fldiv@grs+3,f
 10202  1EFD  0BC8               	decfsz	??___fldiv,f
 10203  1EFE  2EF8               	goto	u5905
 10204  1EFF                     l3702:
 10205  1EFF  0843               	movf	___fldiv@a+3,w
 10206  1F00  0250               	subwf	___fldiv@rem+3,w
 10207  1F01  1D03               	skipz
 10208  1F02  2F0D               	goto	u5915
 10209  1F03  0842               	movf	___fldiv@a+2,w
 10210  1F04  024F               	subwf	___fldiv@rem+2,w
 10211  1F05  1D03               	skipz
 10212  1F06  2F0D               	goto	u5915
 10213  1F07  0841               	movf	___fldiv@a+1,w
 10214  1F08  024E               	subwf	___fldiv@rem+1,w
 10215  1F09  1D03               	skipz
 10216  1F0A  2F0D               	goto	u5915
 10217  1F0B  0840               	movf	___fldiv@a,w
 10218  1F0C  024D               	subwf	___fldiv@rem,w
 10219  1F0D                     u5915:
 10220  1F0D  1C03               	skipc
 10221  1F0E  2F10               	goto	u5911
 10222  1F0F  2F11               	goto	u5910
 10223  1F10                     u5911:
 10224  1F10  2F20               	goto	l3708
 10225  1F11                     u5910:
 10226  1F11                     l3704:
 10227  1F11  1757               	bsf	___fldiv@grs+3,6
 10228  1F12                     l3706:
 10229  1F12  0840               	movf	___fldiv@a,w
 10230  1F13  02CD               	subwf	___fldiv@rem,f
 10231  1F14  0841               	movf	___fldiv@a+1,w
 10232  1F15  1C03               	skipc
 10233  1F16  0F41               	incfsz	___fldiv@a+1,w
 10234  1F17  02CE               	subwf	___fldiv@rem+1,f
 10235  1F18  0842               	movf	___fldiv@a+2,w
 10236  1F19  1C03               	skipc
 10237  1F1A  0F42               	incfsz	___fldiv@a+2,w
 10238  1F1B  02CF               	subwf	___fldiv@rem+2,f
 10239  1F1C  0843               	movf	___fldiv@a+3,w
 10240  1F1D  1C03               	skipc
 10241  1F1E  0F43               	incfsz	___fldiv@a+3,w
 10242  1F1F  02D0               	subwf	___fldiv@rem+3,f
 10243  1F20                     l3708:
 10244  1F20  3001               	movlw	1
 10245  1F21  00C8               	movwf	??___fldiv
 10246  1F22  0848               	movf	??___fldiv,w
 10247  1F23  07D9               	addwf	___fldiv@aexp,f
 10248  1F24                     l3710:
 10249  1F24  301A               	movlw	26
 10250  1F25  0259               	subwf	___fldiv@aexp,w
 10251  1F26  1C03               	skipc
 10252  1F27  2F29               	goto	u5921
 10253  1F28  2F2A               	goto	u5920
 10254  1F29                     u5921:
 10255  1F29  2EDA               	goto	l3692
 10256  1F2A                     u5920:
 10257  1F2A                     l3712:
 10258  1F2A  0850               	movf	___fldiv@rem+3,w
 10259  1F2B  044F               	iorwf	___fldiv@rem+2,w
 10260  1F2C  044E               	iorwf	___fldiv@rem+1,w
 10261  1F2D  044D               	iorwf	___fldiv@rem,w
 10262  1F2E  1903               	skipnz
 10263  1F2F  2F31               	goto	u5931
 10264  1F30  2F32               	goto	u5930
 10265  1F31                     u5931:
 10266  1F31  2F51               	goto	l3726
 10267  1F32                     u5930:
 10268  1F32                     l3714:
 10269  1F32  1454               	bsf	___fldiv@grs,0
 10270  1F33  2F51               	goto	l3726
 10271  1F34                     l3716:
 10272  1F34  3001               	movlw	1
 10273  1F35  00C8               	movwf	??___fldiv
 10274  1F36                     u5945:
 10275  1F36  1003               	clrc
 10276  1F37  0DC4               	rlf	___fldiv@b,f
 10277  1F38  0DC5               	rlf	___fldiv@b+1,f
 10278  1F39  0DC6               	rlf	___fldiv@b+2,f
 10279  1F3A  0DC7               	rlf	___fldiv@b+3,f
 10280  1F3B  0BC8               	decfsz	??___fldiv,f
 10281  1F3C  2F36               	goto	u5945
 10282  1F3D                     l3718:
 10283  1F3D  1FD7               	btfss	___fldiv@grs+3,7
 10284  1F3E  2F40               	goto	u5951
 10285  1F3F  2F41               	goto	u5950
 10286  1F40                     u5951:
 10287  1F40  2F42               	goto	l3722
 10288  1F41                     u5950:
 10289  1F41                     l3720:
 10290  1F41  1444               	bsf	___fldiv@b,0
 10291  1F42                     l3722:
 10292  1F42  3001               	movlw	1
 10293  1F43  00C8               	movwf	??___fldiv
 10294  1F44                     u5965:
 10295  1F44  1003               	clrc
 10296  1F45  0DD4               	rlf	___fldiv@grs,f
 10297  1F46  0DD5               	rlf	___fldiv@grs+1,f
 10298  1F47  0DD6               	rlf	___fldiv@grs+2,f
 10299  1F48  0DD7               	rlf	___fldiv@grs+3,f
 10300  1F49  0BC8               	decfsz	??___fldiv,f
 10301  1F4A  2F44               	goto	u5965
 10302  1F4B                     l3724:
 10303  1F4B  30FF               	movlw	255
 10304  1F4C  07D2               	addwf	___fldiv@new_exp,f
 10305  1F4D  1803               	skipnc
 10306  1F4E  0AD3               	incf	___fldiv@new_exp+1,f
 10307  1F4F  30FF               	movlw	255
 10308  1F50  07D3               	addwf	___fldiv@new_exp+1,f
 10309  1F51                     l3726:
 10310  1F51  1FC6               	btfss	___fldiv@b+2,7
 10311  1F52  2F54               	goto	u5971
 10312  1F53  2F55               	goto	u5970
 10313  1F54                     u5971:
 10314  1F54  2F34               	goto	l3716
 10315  1F55                     u5970:
 10316  1F55                     l3728:
 10317  1F55  01D9               	clrf	___fldiv@aexp
 10318  1F56                     l3730:
 10319  1F56  1FD7               	btfss	___fldiv@grs+3,7
 10320  1F57  2F59               	goto	u5981
 10321  1F58  2F5A               	goto	u5980
 10322  1F59                     u5981:
 10323  1F59  2F76               	goto	l3738
 10324  1F5A                     u5980:
 10325  1F5A                     l3732:
 10326  1F5A  30FF               	movlw	255
 10327  1F5B  0554               	andwf	___fldiv@grs,w
 10328  1F5C  00C8               	movwf	??___fldiv
 10329  1F5D  30FF               	movlw	255
 10330  1F5E  0555               	andwf	___fldiv@grs+1,w
 10331  1F5F  00C9               	movwf	??___fldiv+1
 10332  1F60  30FF               	movlw	255
 10333  1F61  0556               	andwf	___fldiv@grs+2,w
 10334  1F62  00CA               	movwf	??___fldiv+2
 10335  1F63  307F               	movlw	127
 10336  1F64  0557               	andwf	___fldiv@grs+3,w
 10337  1F65  00CB               	movwf	??___fldiv+3
 10338  1F66  084B               	movf	??___fldiv+3,w
 10339  1F67  044A               	iorwf	??___fldiv+2,w
 10340  1F68  0449               	iorwf	??___fldiv+1,w
 10341  1F69  0448               	iorwf	??___fldiv,w
 10342  1F6A  1903               	skipnz
 10343  1F6B  2F6D               	goto	u5991
 10344  1F6C  2F6E               	goto	u5990
 10345  1F6D                     u5991:
 10346  1F6D  2F71               	goto	l762
 10347  1F6E                     u5990:
 10348  1F6E                     l3734:
 10349  1F6E  01D9               	clrf	___fldiv@aexp
 10350  1F6F  0AD9               	incf	___fldiv@aexp,f
 10351  1F70  2F76               	goto	l3738
 10352  1F71                     l762:
 10353  1F71  1C44               	btfss	___fldiv@b,0
 10354  1F72  2F74               	goto	u6001
 10355  1F73  2F75               	goto	u6000
 10356  1F74                     u6001:
 10357  1F74  2F76               	goto	l3738
 10358  1F75                     u6000:
 10359  1F75  2F6E               	goto	l3734
 10360  1F76                     l3738:
 10361  1F76  0859               	movf	___fldiv@aexp,w
 10362  1F77  1903               	btfsc	3,2
 10363  1F78  2F7A               	goto	u6011
 10364  1F79  2F7B               	goto	u6010
 10365  1F7A                     u6011:
 10366  1F7A  2FAC               	goto	l3748
 10367  1F7B                     u6010:
 10368  1F7B                     l3740:
 10369  1F7B  3001               	movlw	1
 10370  1F7C  07C4               	addwf	___fldiv@b,f
 10371  1F7D  3000               	movlw	0
 10372  1F7E  1803               	skipnc
 10373  1F7F  3001               	movlw	1
 10374  1F80  07C5               	addwf	___fldiv@b+1,f
 10375  1F81  3000               	movlw	0
 10376  1F82  1803               	skipnc
 10377  1F83  3001               	movlw	1
 10378  1F84  07C6               	addwf	___fldiv@b+2,f
 10379  1F85  3000               	movlw	0
 10380  1F86  1803               	skipnc
 10381  1F87  3001               	movlw	1
 10382  1F88  07C7               	addwf	___fldiv@b+3,f
 10383  1F89                     l3742:
 10384  1F89  1C47               	btfss	___fldiv@b+3,0
 10385  1F8A  2F8C               	goto	u6021
 10386  1F8B  2F8D               	goto	u6020
 10387  1F8C                     u6021:
 10388  1F8C  2FAC               	goto	l3748
 10389  1F8D                     u6020:
 10390  1F8D                     l3744:
 10391  1F8D  0844               	movf	___fldiv@b,w
 10392  1F8E  00C8               	movwf	??___fldiv
 10393  1F8F  0845               	movf	___fldiv@b+1,w
 10394  1F90  00C9               	movwf	??___fldiv+1
 10395  1F91  0846               	movf	___fldiv@b+2,w
 10396  1F92  00CA               	movwf	??___fldiv+2
 10397  1F93  0847               	movf	___fldiv@b+3,w
 10398  1F94  00CB               	movwf	??___fldiv+3
 10399  1F95  3001               	movlw	1
 10400  1F96  00CC               	movwf	??___fldiv+4
 10401  1F97                     u6035:
 10402  1F97  0D4B               	rlf	??___fldiv+3,w
 10403  1F98  0CCB               	rrf	??___fldiv+3,f
 10404  1F99  0CCA               	rrf	??___fldiv+2,f
 10405  1F9A  0CC9               	rrf	??___fldiv+1,f
 10406  1F9B  0CC8               	rrf	??___fldiv,f
 10407  1F9C                     u6030:
 10408  1F9C  0BCC               	decfsz	??___fldiv+4,f
 10409  1F9D  2F97               	goto	u6035
 10410  1F9E  084B               	movf	??___fldiv+3,w
 10411  1F9F  00C7               	movwf	___fldiv@b+3
 10412  1FA0  084A               	movf	??___fldiv+2,w
 10413  1FA1  00C6               	movwf	___fldiv@b+2
 10414  1FA2  0849               	movf	??___fldiv+1,w
 10415  1FA3  00C5               	movwf	___fldiv@b+1
 10416  1FA4  0848               	movf	??___fldiv,w
 10417  1FA5  00C4               	movwf	___fldiv@b
 10418  1FA6                     l3746:
 10419  1FA6  3001               	movlw	1
 10420  1FA7  07D2               	addwf	___fldiv@new_exp,f
 10421  1FA8  1803               	skipnc
 10422  1FA9  0AD3               	incf	___fldiv@new_exp+1,f
 10423  1FAA  3000               	movlw	0
 10424  1FAB  07D3               	addwf	___fldiv@new_exp+1,f
 10425  1FAC                     l3748:
 10426  1FAC  0853               	movf	___fldiv@new_exp+1,w
 10427  1FAD  3A80               	xorlw	128
 10428  1FAE  00FF               	movwf	btemp+1
 10429  1FAF  3080               	movlw	128
 10430  1FB0  027F               	subwf	btemp+1,w
 10431  1FB1  1D03               	skipz
 10432  1FB2  2FB5               	goto	u6045
 10433  1FB3  30FF               	movlw	255
 10434  1FB4  0252               	subwf	___fldiv@new_exp,w
 10435  1FB5                     u6045:
 10436  1FB5  1C03               	skipc
 10437  1FB6  2FB8               	goto	u6041
 10438  1FB7  2FB9               	goto	u6040
 10439  1FB8                     u6041:
 10440  1FB8  2FC7               	goto	l3752
 10441  1FB9                     u6040:
 10442  1FB9                     l3750:
 10443  1FB9  30FF               	movlw	255
 10444  1FBA  1283               	bcf	3,5	;RP0=0, select bank0
 10445  1FBB  1303               	bcf	3,6	;RP1=0, select bank0
 10446  1FBC  00D2               	movwf	___fldiv@new_exp
 10447  1FBD  3000               	movlw	0
 10448  1FBE  00D3               	movwf	___fldiv@new_exp+1
 10449  1FBF  3000               	movlw	0
 10450  1FC0  00C7               	movwf	___fldiv@b+3
 10451  1FC1  3000               	movlw	0
 10452  1FC2  00C6               	movwf	___fldiv@b+2
 10453  1FC3  3000               	movlw	0
 10454  1FC4  00C5               	movwf	___fldiv@b+1
 10455  1FC5  3000               	movlw	0
 10456  1FC6  00C4               	movwf	___fldiv@b
 10457  1FC7                     l3752:
 10458  1FC7  1283               	bcf	3,5	;RP0=0, select bank0
 10459  1FC8  1303               	bcf	3,6	;RP1=0, select bank0
 10460  1FC9  0853               	movf	___fldiv@new_exp+1,w
 10461  1FCA  3A80               	xorlw	128
 10462  1FCB  00FF               	movwf	btemp+1
 10463  1FCC  3080               	movlw	128
 10464  1FCD  027F               	subwf	btemp+1,w
 10465  1FCE  1D03               	skipz
 10466  1FCF  2FD2               	goto	u6055
 10467  1FD0  3001               	movlw	1
 10468  1FD1  0252               	subwf	___fldiv@new_exp,w
 10469  1FD2                     u6055:
 10470  1FD2  1803               	skipnc
 10471  1FD3  2FD5               	goto	u6051
 10472  1FD4  2FD6               	goto	u6050
 10473  1FD5                     u6051:
 10474  1FD5  2FE3               	goto	l768
 10475  1FD6                     u6050:
 10476  1FD6                     l3754:
 10477  1FD6  1283               	bcf	3,5	;RP0=0, select bank0
 10478  1FD7  1303               	bcf	3,6	;RP1=0, select bank0
 10479  1FD8  01D2               	clrf	___fldiv@new_exp
 10480  1FD9  01D3               	clrf	___fldiv@new_exp+1
 10481  1FDA                     l3756:
 10482  1FDA  3000               	movlw	0
 10483  1FDB  00C7               	movwf	___fldiv@b+3
 10484  1FDC  3000               	movlw	0
 10485  1FDD  00C6               	movwf	___fldiv@b+2
 10486  1FDE  3000               	movlw	0
 10487  1FDF  00C5               	movwf	___fldiv@b+1
 10488  1FE0  3000               	movlw	0
 10489  1FE1  00C4               	movwf	___fldiv@b
 10490  1FE2                     l3758:
 10491  1FE2  01D1               	clrf	___fldiv@sign
 10492  1FE3                     l768:
 10493  1FE3  1283               	bcf	3,5	;RP0=0, select bank0
 10494  1FE4  1303               	bcf	3,6	;RP1=0, select bank0
 10495  1FE5  0852               	movf	___fldiv@new_exp,w
 10496  1FE6  00C8               	movwf	??___fldiv
 10497  1FE7  0848               	movf	??___fldiv,w
 10498  1FE8  00D8               	movwf	___fldiv@bexp
 10499  1FE9                     l3760:
 10500  1FE9  1C58               	btfss	___fldiv@bexp,0
 10501  1FEA  2FEC               	goto	u6061
 10502  1FEB  2FED               	goto	u6060
 10503  1FEC                     u6061:
 10504  1FEC  2FEF               	goto	l3764
 10505  1FED                     u6060:
 10506  1FED                     l3762:
 10507  1FED  17C6               	bsf	___fldiv@b+2,7
 10508  1FEE  2FF3               	goto	l770
 10509  1FEF                     l3764:
 10510  1FEF  307F               	movlw	127
 10511  1FF0  00C8               	movwf	??___fldiv
 10512  1FF1  0848               	movf	??___fldiv,w
 10513  1FF2  05C6               	andwf	___fldiv@b+2,f
 10514  1FF3                     l770:
 10515  1FF3  0858               	movf	___fldiv@bexp,w
 10516  1FF4  00C8               	movwf	??___fldiv
 10517  1FF5  1003               	clrc
 10518  1FF6  0C48               	rrf	??___fldiv,w
 10519  1FF7  00C9               	movwf	??___fldiv+1
 10520  1FF8  0849               	movf	??___fldiv+1,w
 10521  1FF9  00C7               	movwf	___fldiv@b+3
 10522  1FFA  0851               	movf	___fldiv@sign,w
 10523  1FFB  00C8               	movwf	??___fldiv
 10524  1FFC  0848               	movf	??___fldiv,w
 10525  1FFD  04C7               	iorwf	___fldiv@b+3,f
 10526  1FFE  2E97               	goto	l3672
 10527  1FFF                     l748:
 10528  1FFF  0008               	return
 10529  2000                     __end_of___fldiv:
 10530                           
 10531                           	psect	text24
 10532  1932                     __ptext24:	
 10533 ;; *************** function _UART_SendTxt *****************
 10534 ;; Defined at:
 10535 ;;		line 27 in file "Uart.c"
 10536 ;; Parameters:    Size  Location     Type
 10537 ;;  Str             2    1[COMMON] PTR unsigned char 
 10538 ;;		 -> STR_4(3), main@Str(50), STR_1(19), 
 10539 ;; Auto vars:     Size  Location     Type
 10540 ;;		None
 10541 ;; Return value:  Size  Location     Type
 10542 ;;                  1    wreg      void 
 10543 ;; Registers used:
 10544 ;;		wreg, fsr0l, fsr0h, status,2, status,0, btemp+1, pclath, cstack
 10545 ;; Tracked objects:
 10546 ;;		On entry : 0/0
 10547 ;;		On exit  : 0/0
 10548 ;;		Unchanged: 0/0
 10549 ;; Data sizes:     COMMON   BANK0   BANK1   BANK3   BANK2
 10550 ;;      Params:         2       0       0       0       0
 10551 ;;      Locals:         0       0       0       0       0
 10552 ;;      Temps:          0       0       0       0       0
 10553 ;;      Totals:         2       0       0       0       0
 10554 ;;Total ram usage:        2 bytes
 10555 ;; Hardware stack levels used: 1
 10556 ;; Hardware stack levels required when called: 1
 10557 ;; This function calls:
 10558 ;;		_UART_TxChar
 10559 ;; This function is called by:
 10560 ;;		_main
 10561 ;; This function uses a non-reentrant model
 10562 ;;
 10563                           
 10564  1932                     _UART_SendTxt:	
 10565                           ;psect for function _UART_SendTxt
 10566                           
 10567  1932                     l3318:	
 10568                           ;incstack = 0
 10569                           ; Regs used in _UART_SendTxt: [wreg-fsr0h+status,2+status,0+btemp+1+pclath+cstack]
 10570                           
 10571                           
 10572                           ;Uart.c: 27: void UART_SendTxt(char* Str);Uart.c: 28: {;Uart.c: 29:     while(*Str)
 10573  1932  2947               	goto	l3324
 10574  1933                     l3320:
 10575                           
 10576                           ;Uart.c: 30:     {;Uart.c: 31:         UART_TxChar(*Str);
 10577  1933  0872               	movf	UART_SendTxt@Str+1,w
 10578  1934  00FF               	movwf	btemp+1
 10579  1935  0871               	movf	UART_SendTxt@Str,w
 10580  1936  0084               	movwf	4
 10581  1937  120A  158A  2000  160A  158A  	fcall	stringtab
 10582  193C  160A  158A  2012  160A  158A  	fcall	_UART_TxChar
 10583  1941                     l3322:
 10584                           
 10585                           ;Uart.c: 32:         Str++;
 10586  1941  3001               	movlw	1
 10587  1942  07F1               	addwf	UART_SendTxt@Str,f
 10588  1943  1803               	skipnc
 10589  1944  0AF2               	incf	UART_SendTxt@Str+1,f
 10590  1945  3000               	movlw	0
 10591  1946  07F2               	addwf	UART_SendTxt@Str+1,f
 10592  1947                     l3324:
 10593                           
 10594                           ;Uart.c: 29:     while(*Str)
 10595  1947  0872               	movf	UART_SendTxt@Str+1,w
 10596  1948  1283               	bcf	3,5	;RP0=0, select bank0
 10597  1949  1303               	bcf	3,6	;RP1=0, select bank0
 10598  194A  00FF               	movwf	btemp+1
 10599  194B  0871               	movf	UART_SendTxt@Str,w
 10600  194C  0084               	movwf	4
 10601  194D  120A  158A  2000  160A  158A  	fcall	stringtab
 10602  1952  3A00               	xorlw	0
 10603  1953  1D03               	skipz
 10604  1954  2956               	goto	u5341
 10605  1955  2957               	goto	u5340
 10606  1956                     u5341:
 10607  1956  2933               	goto	l3320
 10608  1957                     u5340:
 10609  1957                     l37:
 10610  1957  0008               	return
 10611  1958                     __end_of_UART_SendTxt:
 10612                           
 10613                           	psect	text25
 10614  1812                     __ptext25:	
 10615 ;; *************** function _UART_TxChar *****************
 10616 ;; Defined at:
 10617 ;;		line 12 in file "Uart.c"
 10618 ;; Parameters:    Size  Location     Type
 10619 ;;  ch              1    wreg     unsigned char 
 10620 ;; Auto vars:     Size  Location     Type
 10621 ;;  ch              1    0[COMMON] unsigned char 
 10622 ;; Return value:  Size  Location     Type
 10623 ;;                  1    wreg      void 
 10624 ;; Registers used:
 10625 ;;		wreg
 10626 ;; Tracked objects:
 10627 ;;		On entry : 0/0
 10628 ;;		On exit  : 0/0
 10629 ;;		Unchanged: 0/0
 10630 ;; Data sizes:     COMMON   BANK0   BANK1   BANK3   BANK2
 10631 ;;      Params:         0       0       0       0       0
 10632 ;;      Locals:         1       0       0       0       0
 10633 ;;      Temps:          0       0       0       0       0
 10634 ;;      Totals:         1       0       0       0       0
 10635 ;;Total ram usage:        1 bytes
 10636 ;; Hardware stack levels used: 1
 10637 ;; This function calls:
 10638 ;;		Nothing
 10639 ;; This function is called by:
 10640 ;;		_UART_SendTxt
 10641 ;; This function uses a non-reentrant model
 10642 ;;
 10643                           
 10644  1812                     _UART_TxChar:	
 10645                           ;psect for function _UART_TxChar
 10646                           
 10647                           
 10648                           ;incstack = 0
 10649                           ; Regs used in _UART_TxChar: [wreg]
 10650                           ;UART_TxChar@ch stored from wreg
 10651  1812  00F0               	movwf	UART_TxChar@ch
 10652  1813                     l2920:
 10653  1813                     l22:	
 10654                           ;Uart.c: 12: void UART_TxChar(char ch);Uart.c: 13: {;Uart.c: 14:     while(TXIF==0);
 10655                           
 10656  1813  1283               	bcf	3,5	;RP0=0, select bank0
 10657  1814  1303               	bcf	3,6	;RP1=0, select bank0
 10658  1815  1E0C               	btfss	12,4	;volatile
 10659  1816  2818               	goto	u4251
 10660  1817  2819               	goto	u4250
 10661  1818                     u4251:
 10662  1818  2813               	goto	l22
 10663  1819                     u4250:
 10664  1819                     l24:
 10665                           
 10666                           ;Uart.c: 15:     TXIF=0;
 10667  1819  120C               	bcf	12,4	;volatile
 10668  181A                     l2922:
 10669                           
 10670                           ;Uart.c: 16:     TXREG=ch;
 10671  181A  0870               	movf	UART_TxChar@ch,w
 10672  181B  0099               	movwf	25	;volatile
 10673  181C                     l25:
 10674  181C  0008               	return
 10675  181D                     __end_of_UART_TxChar:
 10676                           
 10677                           	psect	text26
 10678  19D5                     __ptext26:	
 10679 ;; *************** function _UART_Init *****************
 10680 ;; Defined at:
 10681 ;;		line 3 in file "Uart.c"
 10682 ;; Parameters:    Size  Location     Type
 10683 ;;  baudRate        2    0[BANK0 ] int 
 10684 ;; Auto vars:     Size  Location     Type
 10685 ;;		None
 10686 ;; Return value:  Size  Location     Type
 10687 ;;                  1    wreg      void 
 10688 ;; Registers used:
 10689 ;;		wreg, status,2, status,0, pclath, cstack
 10690 ;; Tracked objects:
 10691 ;;		On entry : 0/0
 10692 ;;		On exit  : 0/0
 10693 ;;		Unchanged: 0/0
 10694 ;; Data sizes:     COMMON   BANK0   BANK1   BANK3   BANK2
 10695 ;;      Params:         0       2       0       0       0
 10696 ;;      Locals:         0       0       0       0       0
 10697 ;;      Temps:          0       4       0       0       0
 10698 ;;      Totals:         0       6       0       0       0
 10699 ;;Total ram usage:        6 bytes
 10700 ;; Hardware stack levels used: 1
 10701 ;; Hardware stack levels required when called: 1
 10702 ;; This function calls:
 10703 ;;		___lldiv
 10704 ;; This function is called by:
 10705 ;;		_main
 10706 ;; This function uses a non-reentrant model
 10707 ;;
 10708                           
 10709  19D5                     _UART_Init:	
 10710                           ;psect for function _UART_Init
 10711                           
 10712  19D5                     l3314:	
 10713                           ;incstack = 0
 10714                           ; Regs used in _UART_Init: [wreg+status,2+status,0+pclath+cstack]
 10715                           
 10716                           
 10717                           ;Uart.c: 3: void UART_Init(int baudRate);Uart.c: 4: {;Uart.c: 5:     TRISC=0x80;
 10718  19D5  3080               	movlw	128
 10719  19D6  1683               	bsf	3,5	;RP0=1, select bank1
 10720  19D7  1303               	bcf	3,6	;RP1=0, select bank1
 10721  19D8  0087               	movwf	7	;volatile
 10722                           
 10723                           ;Uart.c: 6:     TXSTA=(1<<5);
 10724  19D9  3020               	movlw	32
 10725  19DA  0098               	movwf	24	;volatile
 10726                           
 10727                           ;Uart.c: 7:     RCSTA=(1<<7) | (1<<4);
 10728  19DB  3090               	movlw	144
 10729  19DC  1283               	bcf	3,5	;RP0=0, select bank0
 10730  19DD  1303               	bcf	3,6	;RP1=0, select bank0
 10731  19DE  0098               	movwf	24	;volatile
 10732  19DF                     l3316:
 10733                           
 10734                           ;Uart.c: 8:     SPBRG = ( 16000000UL /(long)(64UL*baudRate))-1;
 10735  19DF  0820               	movf	UART_Init@baudRate,w
 10736  19E0  00A2               	movwf	??_UART_Init
 10737  19E1  0821               	movf	UART_Init@baudRate+1,w
 10738  19E2  00A3               	movwf	??_UART_Init+1
 10739  19E3  3000               	movlw	0
 10740  19E4  1BA3               	btfsc	??_UART_Init+1,7
 10741  19E5  30FF               	movlw	255
 10742  19E6  00A4               	movwf	??_UART_Init+2
 10743  19E7  00A5               	movwf	??_UART_Init+3
 10744  19E8  3006               	movlw	6
 10745  19E9                     u5335:
 10746  19E9  1003               	clrc
 10747  19EA  0DA2               	rlf	??_UART_Init,f
 10748  19EB  0DA3               	rlf	??_UART_Init+1,f
 10749  19EC  0DA4               	rlf	??_UART_Init+2,f
 10750  19ED  0DA5               	rlf	??_UART_Init+3,f
 10751  19EE                     u5330:
 10752  19EE  3EFF               	addlw	-1
 10753  19EF  1D03               	skipz
 10754  19F0  29E9               	goto	u5335
 10755  19F1  0825               	movf	??_UART_Init+3,w
 10756  19F2  00F3               	movwf	___lldiv@divisor+3
 10757  19F3  0824               	movf	??_UART_Init+2,w
 10758  19F4  00F2               	movwf	___lldiv@divisor+2
 10759  19F5  0823               	movf	??_UART_Init+1,w
 10760  19F6  00F1               	movwf	___lldiv@divisor+1
 10761  19F7  0822               	movf	??_UART_Init,w
 10762  19F8  00F0               	movwf	___lldiv@divisor
 10763  19F9  3000               	movlw	0
 10764  19FA  00F7               	movwf	___lldiv@dividend+3
 10765  19FB  30F4               	movlw	244
 10766  19FC  00F6               	movwf	___lldiv@dividend+2
 10767  19FD  3024               	movlw	36
 10768  19FE  00F5               	movwf	___lldiv@dividend+1
 10769  19FF  3000               	movlw	0
 10770  1A00  00F4               	movwf	___lldiv@dividend
 10771  1A01  160A  158A  235F  160A  158A  	fcall	___lldiv
 10772  1A06  0870               	movf	?___lldiv,w
 10773  1A07  3EFF               	addlw	255
 10774  1A08  1683               	bsf	3,5	;RP0=1, select bank1
 10775  1A09  1303               	bcf	3,6	;RP1=0, select bank1
 10776  1A0A  0099               	movwf	25	;volatile
 10777  1A0B                     l19:
 10778  1A0B  0008               	return
 10779  1A0C                     __end_of_UART_Init:
 10780                           
 10781                           	psect	text27
 10782  1B5F                     __ptext27:	
 10783 ;; *************** function ___lldiv *****************
 10784 ;; Defined at:
 10785 ;;		line 5 in file "C:\Program Files\Microchip\xc8\v2.35\pic\sources\c90\common\__lldiv.c"
 10786 ;; Parameters:    Size  Location     Type
 10787 ;;  divisor         4    0[COMMON] unsigned long 
 10788 ;;  dividend        4    4[COMMON] unsigned long 
 10789 ;; Auto vars:     Size  Location     Type
 10790 ;;  quotient        4    9[COMMON] unsigned long 
 10791 ;;  counter         1   13[COMMON] unsigned char 
 10792 ;; Return value:  Size  Location     Type
 10793 ;;                  4    0[COMMON] unsigned long 
 10794 ;; Registers used:
 10795 ;;		wreg, status,2, status,0
 10796 ;; Tracked objects:
 10797 ;;		On entry : 0/0
 10798 ;;		On exit  : 0/0
 10799 ;;		Unchanged: 0/0
 10800 ;; Data sizes:     COMMON   BANK0   BANK1   BANK3   BANK2
 10801 ;;      Params:         8       0       0       0       0
 10802 ;;      Locals:         5       0       0       0       0
 10803 ;;      Temps:          1       0       0       0       0
 10804 ;;      Totals:        14       0       0       0       0
 10805 ;;Total ram usage:       14 bytes
 10806 ;; Hardware stack levels used: 1
 10807 ;; This function calls:
 10808 ;;		Nothing
 10809 ;; This function is called by:
 10810 ;;		_UART_Init
 10811 ;;		_sprintf
 10812 ;; This function uses a non-reentrant model
 10813 ;;
 10814                           
 10815  1B5F                     ___lldiv:	
 10816                           ;psect for function ___lldiv
 10817                           
 10818  1B5F                     l3144:	
 10819                           ;incstack = 0
 10820                           ; Regs used in ___lldiv: [wreg+status,2+status,0]
 10821                           
 10822  1B5F  3000               	movlw	0
 10823  1B60  00FC               	movwf	___lldiv@quotient+3
 10824  1B61  3000               	movlw	0
 10825  1B62  00FB               	movwf	___lldiv@quotient+2
 10826  1B63  3000               	movlw	0
 10827  1B64  00FA               	movwf	___lldiv@quotient+1
 10828  1B65  3000               	movlw	0
 10829  1B66  00F9               	movwf	___lldiv@quotient
 10830  1B67  0873               	movf	___lldiv@divisor+3,w
 10831  1B68  0472               	iorwf	___lldiv@divisor+2,w
 10832  1B69  0471               	iorwf	___lldiv@divisor+1,w
 10833  1B6A  0470               	iorwf	___lldiv@divisor,w
 10834  1B6B  1903               	skipnz
 10835  1B6C  2B6E               	goto	u4851
 10836  1B6D  2B6F               	goto	u4850
 10837  1B6E                     u4851:
 10838  1B6E  2BBC               	goto	l3164
 10839  1B6F                     u4850:
 10840  1B6F                     l3146:
 10841  1B6F  01FD               	clrf	___lldiv@counter
 10842  1B70  0AFD               	incf	___lldiv@counter,f
 10843  1B71  2B7F               	goto	l3150
 10844  1B72                     l3148:
 10845  1B72  3001               	movlw	1
 10846  1B73  00F8               	movwf	??___lldiv
 10847  1B74                     u4865:
 10848  1B74  1003               	clrc
 10849  1B75  0DF0               	rlf	___lldiv@divisor,f
 10850  1B76  0DF1               	rlf	___lldiv@divisor+1,f
 10851  1B77  0DF2               	rlf	___lldiv@divisor+2,f
 10852  1B78  0DF3               	rlf	___lldiv@divisor+3,f
 10853  1B79  0BF8               	decfsz	??___lldiv,f
 10854  1B7A  2B74               	goto	u4865
 10855  1B7B  3001               	movlw	1
 10856  1B7C  00F8               	movwf	??___lldiv
 10857  1B7D  0878               	movf	??___lldiv,w
 10858  1B7E  07FD               	addwf	___lldiv@counter,f
 10859  1B7F                     l3150:
 10860  1B7F  1FF3               	btfss	___lldiv@divisor+3,7
 10861  1B80  2B82               	goto	u4871
 10862  1B81  2B83               	goto	u4870
 10863  1B82                     u4871:
 10864  1B82  2B72               	goto	l3148
 10865  1B83                     u4870:
 10866  1B83                     l3152:
 10867  1B83  3001               	movlw	1
 10868  1B84  00F8               	movwf	??___lldiv
 10869  1B85                     u4885:
 10870  1B85  1003               	clrc
 10871  1B86  0DF9               	rlf	___lldiv@quotient,f
 10872  1B87  0DFA               	rlf	___lldiv@quotient+1,f
 10873  1B88  0DFB               	rlf	___lldiv@quotient+2,f
 10874  1B89  0DFC               	rlf	___lldiv@quotient+3,f
 10875  1B8A  0BF8               	decfsz	??___lldiv,f
 10876  1B8B  2B85               	goto	u4885
 10877  1B8C                     l3154:
 10878  1B8C  0873               	movf	___lldiv@divisor+3,w
 10879  1B8D  0277               	subwf	___lldiv@dividend+3,w
 10880  1B8E  1D03               	skipz
 10881  1B8F  2B9A               	goto	u4895
 10882  1B90  0872               	movf	___lldiv@divisor+2,w
 10883  1B91  0276               	subwf	___lldiv@dividend+2,w
 10884  1B92  1D03               	skipz
 10885  1B93  2B9A               	goto	u4895
 10886  1B94  0871               	movf	___lldiv@divisor+1,w
 10887  1B95  0275               	subwf	___lldiv@dividend+1,w
 10888  1B96  1D03               	skipz
 10889  1B97  2B9A               	goto	u4895
 10890  1B98  0870               	movf	___lldiv@divisor,w
 10891  1B99  0274               	subwf	___lldiv@dividend,w
 10892  1B9A                     u4895:
 10893  1B9A  1C03               	skipc
 10894  1B9B  2B9D               	goto	u4891
 10895  1B9C  2B9E               	goto	u4890
 10896  1B9D                     u4891:
 10897  1B9D  2BAD               	goto	l3160
 10898  1B9E                     u4890:
 10899  1B9E                     l3156:
 10900  1B9E  0870               	movf	___lldiv@divisor,w
 10901  1B9F  02F4               	subwf	___lldiv@dividend,f
 10902  1BA0  0871               	movf	___lldiv@divisor+1,w
 10903  1BA1  1C03               	skipc
 10904  1BA2  0F71               	incfsz	___lldiv@divisor+1,w
 10905  1BA3  02F5               	subwf	___lldiv@dividend+1,f
 10906  1BA4  0872               	movf	___lldiv@divisor+2,w
 10907  1BA5  1C03               	skipc
 10908  1BA6  0F72               	incfsz	___lldiv@divisor+2,w
 10909  1BA7  02F6               	subwf	___lldiv@dividend+2,f
 10910  1BA8  0873               	movf	___lldiv@divisor+3,w
 10911  1BA9  1C03               	skipc
 10912  1BAA  0F73               	incfsz	___lldiv@divisor+3,w
 10913  1BAB  02F7               	subwf	___lldiv@dividend+3,f
 10914  1BAC                     l3158:
 10915  1BAC  1479               	bsf	___lldiv@quotient,0
 10916  1BAD                     l3160:
 10917  1BAD  3001               	movlw	1
 10918  1BAE                     u4905:
 10919  1BAE  1003               	clrc
 10920  1BAF  0CF3               	rrf	___lldiv@divisor+3,f
 10921  1BB0  0CF2               	rrf	___lldiv@divisor+2,f
 10922  1BB1  0CF1               	rrf	___lldiv@divisor+1,f
 10923  1BB2  0CF0               	rrf	___lldiv@divisor,f
 10924  1BB3  3EFF               	addlw	-1
 10925  1BB4  1D03               	skipz
 10926  1BB5  2BAE               	goto	u4905
 10927  1BB6                     l3162:
 10928  1BB6  3001               	movlw	1
 10929  1BB7  02FD               	subwf	___lldiv@counter,f
 10930  1BB8  1D03               	btfss	3,2
 10931  1BB9  2BBB               	goto	u4911
 10932  1BBA  2BBC               	goto	u4910
 10933  1BBB                     u4911:
 10934  1BBB  2B83               	goto	l3152
 10935  1BBC                     u4910:
 10936  1BBC                     l3164:
 10937  1BBC  087C               	movf	___lldiv@quotient+3,w
 10938  1BBD  00F3               	movwf	?___lldiv+3
 10939  1BBE  087B               	movf	___lldiv@quotient+2,w
 10940  1BBF  00F2               	movwf	?___lldiv+2
 10941  1BC0  087A               	movf	___lldiv@quotient+1,w
 10942  1BC1  00F1               	movwf	?___lldiv+1
 10943  1BC2  0879               	movf	___lldiv@quotient,w
 10944  1BC3  00F0               	movwf	?___lldiv
 10945  1BC4                     l399:
 10946  1BC4  0008               	return
 10947  1BC5                     __end_of___lldiv:
 10948                           
 10949                           	psect	text28
 10950  1000                     __ptext28:	
 10951 ;; *************** function _PWM_Start *****************
 10952 ;; Defined at:
 10953 ;;		line 79 in file "PWM.c"
 10954 ;; Parameters:    Size  Location     Type
 10955 ;;  channel         1    wreg     unsigned char 
 10956 ;; Auto vars:     Size  Location     Type
 10957 ;;  channel         1    0[COMMON] unsigned char 
 10958 ;; Return value:  Size  Location     Type
 10959 ;;                  1    wreg      void 
 10960 ;; Registers used:
 10961 ;;		wreg
 10962 ;; Tracked objects:
 10963 ;;		On entry : 0/0
 10964 ;;		On exit  : 0/0
 10965 ;;		Unchanged: 0/0
 10966 ;; Data sizes:     COMMON   BANK0   BANK1   BANK3   BANK2
 10967 ;;      Params:         0       0       0       0       0
 10968 ;;      Locals:         0       0       0       0       0
 10969 ;;      Temps:          0       0       0       0       0
 10970 ;;      Totals:         0       0       0       0       0
 10971 ;;Total ram usage:        0 bytes
 10972 ;; Hardware stack levels used: 1
 10973 ;; This function calls:
 10974 ;;		Nothing
 10975 ;; This function is called by:
 10976 ;;		_main
 10977 ;; This function uses a non-reentrant model
 10978 ;;
 10979                           
 10980  1000                     _PWM_Start:	
 10981                           ;psect for function _PWM_Start
 10982                           
 10983  1000                     l3384:	
 10984                           ;incstack = 0
 10985                           ; Regs used in _PWM_Start: [wreg]
 10986                           
 10987                           
 10988                           ;PWM.c: 79: void PWM_Start(unsigned char channel);PWM.c: 80: {;PWM.c: 81:     TMR2ON = 1
      +                          ;
 10989  1000  1283               	bcf	3,5	;RP0=0, select bank0
 10990  1001  1303               	bcf	3,6	;RP1=0, select bank0
 10991  1002  1512               	bsf	18,2	;volatile
 10992  1003                     l177:
 10993  1003  0008               	return
 10994  1004                     __end_of_PWM_Start:
 10995                           
 10996                           	psect	text29
 10997  1958                     __ptext29:	
 10998 ;; *************** function _PWM_SetDutyCycle *****************
 10999 ;; Defined at:
 11000 ;;		line 49 in file "PWM.c"
 11001 ;; Parameters:    Size  Location     Type
 11002 ;;  channel         1    wreg     unsigned char 
 11003 ;;  dutyCycle       1    0[COMMON] unsigned char 
 11004 ;; Auto vars:     Size  Location     Type
 11005 ;;  channel         1    3[COMMON] unsigned char 
 11006 ;; Return value:  Size  Location     Type
 11007 ;;                  1    wreg      void 
 11008 ;; Registers used:
 11009 ;;		wreg, fsr0l, fsr0h, status,2, status,0
 11010 ;; Tracked objects:
 11011 ;;		On entry : 0/0
 11012 ;;		On exit  : 0/0
 11013 ;;		Unchanged: 0/0
 11014 ;; Data sizes:     COMMON   BANK0   BANK1   BANK3   BANK2
 11015 ;;      Params:         1       0       0       0       0
 11016 ;;      Locals:         1       0       0       0       0
 11017 ;;      Temps:          2       0       0       0       0
 11018 ;;      Totals:         4       0       0       0       0
 11019 ;;Total ram usage:        4 bytes
 11020 ;; Hardware stack levels used: 1
 11021 ;; This function calls:
 11022 ;;		Nothing
 11023 ;; This function is called by:
 11024 ;;		_main
 11025 ;; This function uses a non-reentrant model
 11026 ;;
 11027                           
 11028  1958                     _PWM_SetDutyCycle:	
 11029                           ;psect for function _PWM_SetDutyCycle
 11030                           
 11031                           
 11032                           ;incstack = 0
 11033                           ; Regs used in _PWM_SetDutyCycle: [wreg-fsr0h+status,2+status,0]
 11034                           ;PWM_SetDutyCycle@channel stored from wreg
 11035  1958  00F3               	movwf	PWM_SetDutyCycle@channel
 11036  1959                     l3368:
 11037                           
 11038                           ;PWM.c: 49: void PWM_SetDutyCycle(unsigned char channel,unsigned char dutyCycle);PWM.c: 
      +                          50: {;PWM.c: 51:     if(dutyCycle>100)
 11039  1959  3065               	movlw	101
 11040  195A  0270               	subwf	PWM_SetDutyCycle@dutyCycle,w
 11041  195B  1C03               	skipc
 11042  195C  295E               	goto	u5371
 11043  195D  295F               	goto	u5370
 11044  195E                     u5371:
 11045  195E  296E               	goto	l3378
 11046  195F                     u5370:
 11047  195F                     l3370:
 11048                           
 11049                           ;PWM.c: 52:         dutyCycle = 100;
 11050  195F  3064               	movlw	100
 11051  1960  00F1               	movwf	??_PWM_SetDutyCycle
 11052  1961  0871               	movf	??_PWM_SetDutyCycle,w
 11053  1962  00F0               	movwf	PWM_SetDutyCycle@dutyCycle
 11054  1963  296E               	goto	l3378
 11055  1964                     l3372:
 11056                           
 11057                           ;PWM.c: 57:         CCPR1L = dutyCycle;
 11058  1964  0870               	movf	PWM_SetDutyCycle@dutyCycle,w
 11059  1965  1283               	bcf	3,5	;RP0=0, select bank0
 11060  1966  1303               	bcf	3,6	;RP1=0, select bank0
 11061  1967  0095               	movwf	21	;volatile
 11062                           
 11063                           ;PWM.c: 58:         break;
 11064  1968  297E               	goto	l174
 11065  1969                     l3374:
 11066                           
 11067                           ;PWM.c: 61:         CCPR2L = dutyCycle;
 11068  1969  0870               	movf	PWM_SetDutyCycle@dutyCycle,w
 11069  196A  1283               	bcf	3,5	;RP0=0, select bank0
 11070  196B  1303               	bcf	3,6	;RP1=0, select bank0
 11071  196C  009B               	movwf	27	;volatile
 11072                           
 11073                           ;PWM.c: 62:         break;
 11074  196D  297E               	goto	l174
 11075  196E                     l3378:
 11076  196E  0873               	movf	PWM_SetDutyCycle@channel,w
 11077  196F  00F1               	movwf	??_PWM_SetDutyCycle
 11078  1970  01F2               	clrf	??_PWM_SetDutyCycle+1
 11079                           
 11080                           ; Switch on 2 bytes has been partitioned into a top level switch of size 1, and 1 sub-sw
      +                          itches
 11081                           ; Switch size 1, requested type "simple"
 11082                           ; Number of cases is 1, Range of values is 0 to 0
 11083                           ; switch strategies available:
 11084                           ; Name         Instructions Cycles
 11085                           ; simple_byte            4     3 (average)
 11086                           ; direct_byte           11     8 (fixed)
 11087                           ; jumptable            260     6 (fixed)
 11088                           ;	Chosen strategy is simple_byte
 11089  1971  0872               	movf	??_PWM_SetDutyCycle+1,w
 11090  1972  3A00               	xorlw	0	; case 0
 11091  1973  1903               	skipnz
 11092  1974  2976               	goto	l3904
 11093  1975  297E               	goto	l174
 11094  1976                     l3904:
 11095                           
 11096                           ; Switch size 1, requested type "simple"
 11097                           ; Number of cases is 2, Range of values is 0 to 1
 11098                           ; switch strategies available:
 11099                           ; Name         Instructions Cycles
 11100                           ; simple_byte            7     4 (average)
 11101                           ; direct_byte           14     8 (fixed)
 11102                           ; jumptable            260     6 (fixed)
 11103                           ;	Chosen strategy is simple_byte
 11104  1976  0871               	movf	??_PWM_SetDutyCycle,w
 11105  1977  3A00               	xorlw	0	; case 0
 11106  1978  1903               	skipnz
 11107  1979  2964               	goto	l3372
 11108  197A  3A01               	xorlw	1	; case 1
 11109  197B  1903               	skipnz
 11110  197C  2969               	goto	l3374
 11111  197D  297E               	goto	l174
 11112  197E                     l174:
 11113  197E  0008               	return
 11114  197F                     __end_of_PWM_SetDutyCycle:
 11115                           
 11116                           	psect	text30
 11117  1A0C                     __ptext30:	
 11118 ;; *************** function _PWM_Init *****************
 11119 ;; Defined at:
 11120 ;;		line 10 in file "PWM.c"
 11121 ;; Parameters:    Size  Location     Type
 11122 ;;  channel         1    wreg     unsigned char 
 11123 ;; Auto vars:     Size  Location     Type
 11124 ;;  channel         1    2[COMMON] unsigned char 
 11125 ;; Return value:  Size  Location     Type
 11126 ;;                  1    wreg      void 
 11127 ;; Registers used:
 11128 ;;		wreg, fsr0l, fsr0h, status,2, status,0
 11129 ;; Tracked objects:
 11130 ;;		On entry : 0/0
 11131 ;;		On exit  : 0/0
 11132 ;;		Unchanged: 0/0
 11133 ;; Data sizes:     COMMON   BANK0   BANK1   BANK3   BANK2
 11134 ;;      Params:         0       0       0       0       0
 11135 ;;      Locals:         1       0       0       0       0
 11136 ;;      Temps:          2       0       0       0       0
 11137 ;;      Totals:         3       0       0       0       0
 11138 ;;Total ram usage:        3 bytes
 11139 ;; Hardware stack levels used: 1
 11140 ;; This function calls:
 11141 ;;		Nothing
 11142 ;; This function is called by:
 11143 ;;		_main
 11144 ;; This function uses a non-reentrant model
 11145 ;;
 11146                           
 11147  1A0C                     _PWM_Init:	
 11148                           ;psect for function _PWM_Init
 11149                           
 11150                           
 11151                           ;incstack = 0
 11152                           ; Regs used in _PWM_Init: [wreg-fsr0h+status,2+status,0]
 11153                           ;PWM_Init@channel stored from wreg
 11154  1A0C  00F2               	movwf	PWM_Init@channel
 11155  1A0D                     l3350:
 11156                           
 11157                           ;PWM.c: 10: void PWM_Init(unsigned char channel);PWM.c: 11: {;PWM.c: 12:     switch (cha
      +                          nnel)
 11158  1A0D  2A34               	goto	l3362
 11159  1A0E                     l3352:
 11160                           
 11161                           ;PWM.c: 15:         CCP1CON = 0x0F;
 11162  1A0E  300F               	movlw	15
 11163  1A0F  1283               	bcf	3,5	;RP0=0, select bank0
 11164  1A10  1303               	bcf	3,6	;RP1=0, select bank0
 11165  1A11  0097               	movwf	23	;volatile
 11166                           
 11167                           ;PWM.c: 16:         PR2 = 100;
 11168  1A12  3064               	movlw	100
 11169  1A13  1683               	bsf	3,5	;RP0=1, select bank1
 11170  1A14  1303               	bcf	3,6	;RP1=0, select bank1
 11171  1A15  0092               	movwf	18	;volatile
 11172                           
 11173                           ;PWM.c: 17:         CCPR1L = 50;
 11174  1A16  3032               	movlw	50
 11175  1A17  1283               	bcf	3,5	;RP0=0, select bank0
 11176  1A18  1303               	bcf	3,6	;RP1=0, select bank0
 11177  1A19  0095               	movwf	21	;volatile
 11178  1A1A                     l3354:
 11179                           
 11180                           ;PWM.c: 18:         ((TRISC) &= ~(1<<(2)));
 11181  1A1A  30FB               	movlw	251
 11182  1A1B  00F0               	movwf	??_PWM_Init
 11183  1A1C  0870               	movf	??_PWM_Init,w
 11184  1A1D  1683               	bsf	3,5	;RP0=1, select bank1
 11185  1A1E  1303               	bcf	3,6	;RP1=0, select bank1
 11186  1A1F  0587               	andwf	7,f	;volatile
 11187                           
 11188                           ;PWM.c: 19:         break;
 11189  1A20  2A44               	goto	l166
 11190  1A21                     l3356:
 11191                           
 11192                           ;PWM.c: 22:         CCP2CON = 0x0F;
 11193  1A21  300F               	movlw	15
 11194  1A22  1283               	bcf	3,5	;RP0=0, select bank0
 11195  1A23  1303               	bcf	3,6	;RP1=0, select bank0
 11196  1A24  009D               	movwf	29	;volatile
 11197                           
 11198                           ;PWM.c: 23:         PR2 = 100;
 11199  1A25  3064               	movlw	100
 11200  1A26  1683               	bsf	3,5	;RP0=1, select bank1
 11201  1A27  1303               	bcf	3,6	;RP1=0, select bank1
 11202  1A28  0092               	movwf	18	;volatile
 11203                           
 11204                           ;PWM.c: 24:         CCPR2L = 50;
 11205  1A29  3032               	movlw	50
 11206  1A2A  1283               	bcf	3,5	;RP0=0, select bank0
 11207  1A2B  1303               	bcf	3,6	;RP1=0, select bank0
 11208  1A2C  009B               	movwf	27	;volatile
 11209  1A2D                     l3358:
 11210                           
 11211                           ;PWM.c: 25:         ((TRISC) &= ~(1<<(1)));
 11212  1A2D  30FD               	movlw	253
 11213  1A2E  00F0               	movwf	??_PWM_Init
 11214  1A2F  0870               	movf	??_PWM_Init,w
 11215  1A30  1683               	bsf	3,5	;RP0=1, select bank1
 11216  1A31  1303               	bcf	3,6	;RP1=0, select bank1
 11217  1A32  0587               	andwf	7,f	;volatile
 11218                           
 11219                           ;PWM.c: 26:         break;
 11220  1A33  2A44               	goto	l166
 11221  1A34                     l3362:
 11222  1A34  0872               	movf	PWM_Init@channel,w
 11223  1A35  00F0               	movwf	??_PWM_Init
 11224  1A36  01F1               	clrf	??_PWM_Init+1
 11225                           
 11226                           ; Switch on 2 bytes has been partitioned into a top level switch of size 1, and 1 sub-sw
      +                          itches
 11227                           ; Switch size 1, requested type "simple"
 11228                           ; Number of cases is 1, Range of values is 0 to 0
 11229                           ; switch strategies available:
 11230                           ; Name         Instructions Cycles
 11231                           ; simple_byte            4     3 (average)
 11232                           ; direct_byte           11     8 (fixed)
 11233                           ; jumptable            260     6 (fixed)
 11234                           ;	Chosen strategy is simple_byte
 11235  1A37  0871               	movf	??_PWM_Init+1,w
 11236  1A38  3A00               	xorlw	0	; case 0
 11237  1A39  1903               	skipnz
 11238  1A3A  2A3C               	goto	l3906
 11239  1A3B  2A44               	goto	l166
 11240  1A3C                     l3906:
 11241                           
 11242                           ; Switch size 1, requested type "simple"
 11243                           ; Number of cases is 2, Range of values is 0 to 1
 11244                           ; switch strategies available:
 11245                           ; Name         Instructions Cycles
 11246                           ; simple_byte            7     4 (average)
 11247                           ; direct_byte           14     8 (fixed)
 11248                           ; jumptable            260     6 (fixed)
 11249                           ;	Chosen strategy is simple_byte
 11250  1A3C  0870               	movf	??_PWM_Init,w
 11251  1A3D  3A00               	xorlw	0	; case 0
 11252  1A3E  1903               	skipnz
 11253  1A3F  2A0E               	goto	l3352
 11254  1A40  3A01               	xorlw	1	; case 1
 11255  1A41  1903               	skipnz
 11256  1A42  2A21               	goto	l3356
 11257  1A43  2A44               	goto	l166
 11258  1A44                     l166:
 11259  1A44  0008               	return
 11260  1A45                     __end_of_PWM_Init:
 11261                           
 11262                           	psect	text31
 11263  190C                     __ptext31:	
 11264 ;; *************** function _LCD_Print *****************
 11265 ;; Defined at:
 11266 ;;		line 80 in file "LCD.c"
 11267 ;; Parameters:    Size  Location     Type
 11268 ;;  Str             2    4[COMMON] PTR unsigned char 
 11269 ;;		 -> main@Str(50), STR_2(17), 
 11270 ;; Auto vars:     Size  Location     Type
 11271 ;;		None
 11272 ;; Return value:  Size  Location     Type
 11273 ;;                  1    wreg      void 
 11274 ;; Registers used:
 11275 ;;		wreg, fsr0l, fsr0h, status,2, status,0, btemp+1, pclath, cstack
 11276 ;; Tracked objects:
 11277 ;;		On entry : 0/0
 11278 ;;		On exit  : 0/0
 11279 ;;		Unchanged: 0/0
 11280 ;; Data sizes:     COMMON   BANK0   BANK1   BANK3   BANK2
 11281 ;;      Params:         2       0       0       0       0
 11282 ;;      Locals:         0       0       0       0       0
 11283 ;;      Temps:          0       0       0       0       0
 11284 ;;      Totals:         2       0       0       0       0
 11285 ;;Total ram usage:        2 bytes
 11286 ;; Hardware stack levels used: 1
 11287 ;; Hardware stack levels required when called: 2
 11288 ;; This function calls:
 11289 ;;		_Lcd_DataWrite
 11290 ;; This function is called by:
 11291 ;;		_main
 11292 ;; This function uses a non-reentrant model
 11293 ;;
 11294                           
 11295  190C                     _LCD_Print:	
 11296                           ;psect for function _LCD_Print
 11297                           
 11298  190C                     l3392:	
 11299                           ;incstack = 0
 11300                           ; Regs used in _LCD_Print: [wreg-fsr0h+status,2+status,0+btemp+1+pclath+cstack]
 11301                           
 11302                           
 11303                           ;LCD.c: 80: void LCD_Print(char* Str);LCD.c: 81: {;LCD.c: 82:     while(*Str)
 11304  190C  2921               	goto	l3398
 11305  190D                     l3394:
 11306                           
 11307                           ;LCD.c: 83:     {;LCD.c: 84:         Lcd_DataWrite(*Str);
 11308  190D  0875               	movf	LCD_Print@Str+1,w
 11309  190E  00FF               	movwf	btemp+1
 11310  190F  0874               	movf	LCD_Print@Str,w
 11311  1910  0084               	movwf	4
 11312  1911  120A  158A  2000  160A  158A  	fcall	stringtab
 11313  1916  160A  118A  2004  160A  158A  	fcall	_Lcd_DataWrite
 11314  191B                     l3396:
 11315                           
 11316                           ;LCD.c: 85:         Str++;
 11317  191B  3001               	movlw	1
 11318  191C  07F4               	addwf	LCD_Print@Str,f
 11319  191D  1803               	skipnc
 11320  191E  0AF5               	incf	LCD_Print@Str+1,f
 11321  191F  3000               	movlw	0
 11322  1920  07F5               	addwf	LCD_Print@Str+1,f
 11323  1921                     l3398:
 11324                           
 11325                           ;LCD.c: 82:     while(*Str)
 11326  1921  0875               	movf	LCD_Print@Str+1,w
 11327  1922  1283               	bcf	3,5	;RP0=0, select bank0
 11328  1923  1303               	bcf	3,6	;RP1=0, select bank0
 11329  1924  00FF               	movwf	btemp+1
 11330  1925  0874               	movf	LCD_Print@Str,w
 11331  1926  0084               	movwf	4
 11332  1927  120A  158A  2000  160A  158A  	fcall	stringtab
 11333  192C  3A00               	xorlw	0
 11334  192D  1D03               	skipz
 11335  192E  2930               	goto	u5391
 11336  192F  2931               	goto	u5390
 11337  1930                     u5391:
 11338  1930  290D               	goto	l3394
 11339  1931                     u5390:
 11340  1931                     l118:
 11341  1931  0008               	return
 11342  1932                     __end_of_LCD_Print:
 11343                           
 11344                           	psect	text32
 11345  1004                     __ptext32:	
 11346 ;; *************** function _Lcd_DataWrite *****************
 11347 ;; Defined at:
 11348 ;;		line 51 in file "LCD.c"
 11349 ;; Parameters:    Size  Location     Type
 11350 ;;  dat             1    wreg     unsigned char 
 11351 ;; Auto vars:     Size  Location     Type
 11352 ;;  dat             1    3[COMMON] unsigned char 
 11353 ;; Return value:  Size  Location     Type
 11354 ;;                  1    wreg      void 
 11355 ;; Registers used:
 11356 ;;		wreg, status,2, status,0, pclath, cstack
 11357 ;; Tracked objects:
 11358 ;;		On entry : 0/0
 11359 ;;		On exit  : 0/0
 11360 ;;		Unchanged: 0/0
 11361 ;; Data sizes:     COMMON   BANK0   BANK1   BANK3   BANK2
 11362 ;;      Params:         0       0       0       0       0
 11363 ;;      Locals:         1       0       0       0       0
 11364 ;;      Temps:          1       0       0       0       0
 11365 ;;      Totals:         2       0       0       0       0
 11366 ;;Total ram usage:        2 bytes
 11367 ;; Hardware stack levels used: 1
 11368 ;; Hardware stack levels required when called: 1
 11369 ;; This function calls:
 11370 ;;		_LCD_Enable
 11371 ;; This function is called by:
 11372 ;;		_LCD_Print
 11373 ;; This function uses a non-reentrant model
 11374 ;;
 11375                           
 11376  1004                     _Lcd_DataWrite:	
 11377                           ;psect for function _Lcd_DataWrite
 11378                           
 11379                           
 11380                           ;incstack = 0
 11381                           ; Regs used in _Lcd_DataWrite: [wreg+status,2+status,0+pclath+cstack]
 11382                           ;Lcd_DataWrite@dat stored from wreg
 11383  1004  00F3               	movwf	Lcd_DataWrite@dat
 11384  1005                     l2940:
 11385                           
 11386                           ;LCD.c: 51: void Lcd_DataWrite(char dat);LCD.c: 52: {;LCD.c: 53:     PORTD = (dat & 0xF0
      +                          );
 11387  1005  0873               	movf	Lcd_DataWrite@dat,w
 11388  1006  39F0               	andlw	240
 11389  1007  1283               	bcf	3,5	;RP0=0, select bank0
 11390  1008  1303               	bcf	3,6	;RP1=0, select bank0
 11391  1009  0088               	movwf	8	;volatile
 11392  100A                     l2942:
 11393                           
 11394                           ;LCD.c: 54:     PORTD |= (1<<0);
 11395  100A  1408               	bsf	8,0	;volatile
 11396  100B                     l2944:
 11397                           
 11398                           ;LCD.c: 55:     PORTD &= ~(1<<1);
 11399  100B  30FD               	movlw	253
 11400  100C  00F2               	movwf	??_Lcd_DataWrite
 11401  100D  0872               	movf	??_Lcd_DataWrite,w
 11402  100E  0588               	andwf	8,f	;volatile
 11403  100F                     l2946:
 11404                           
 11405                           ;LCD.c: 56:     LCD_Enable();
 11406  100F  160A  158A  2046  160A  118A  	fcall	_LCD_Enable
 11407  1014                     l2948:
 11408                           
 11409                           ;LCD.c: 58:     PORTD = ((dat<<4) & 0xF0);
 11410  1014  0873               	movf	Lcd_DataWrite@dat,w
 11411  1015  00F2               	movwf	??_Lcd_DataWrite
 11412  1016  3003               	movlw	3
 11413  1017                     u4275:
 11414  1017  1003               	clrc
 11415  1018  0DF2               	rlf	??_Lcd_DataWrite,f
 11416  1019  3EFF               	addlw	-1
 11417  101A  1D03               	skipz
 11418  101B  2817               	goto	u4275
 11419  101C  1003               	clrc
 11420  101D  0D72               	rlf	??_Lcd_DataWrite,w
 11421  101E  39F0               	andlw	240
 11422  101F  1283               	bcf	3,5	;RP0=0, select bank0
 11423  1020  1303               	bcf	3,6	;RP1=0, select bank0
 11424  1021  0088               	movwf	8	;volatile
 11425  1022                     l2950:
 11426                           
 11427                           ;LCD.c: 59:     PORTD |= (1<<0);
 11428  1022  1408               	bsf	8,0	;volatile
 11429  1023                     l2952:
 11430                           
 11431                           ;LCD.c: 60:     PORTD &= ~(1<<1);
 11432  1023  30FD               	movlw	253
 11433  1024  00F2               	movwf	??_Lcd_DataWrite
 11434  1025  0872               	movf	??_Lcd_DataWrite,w
 11435  1026  0588               	andwf	8,f	;volatile
 11436  1027                     l2954:
 11437                           
 11438                           ;LCD.c: 61:     LCD_Enable();
 11439  1027  160A  158A  2046  160A  118A  	fcall	_LCD_Enable
 11440  102C                     l104:
 11441  102C  0008               	return
 11442  102D                     __end_of_Lcd_DataWrite:
 11443                           
 11444                           	psect	text33
 11445  1A7F                     __ptext33:	
 11446 ;; *************** function _LCD_Init *****************
 11447 ;; Defined at:
 11448 ;;		line 13 in file "LCD.c"
 11449 ;; Parameters:    Size  Location     Type
 11450 ;;		None
 11451 ;; Auto vars:     Size  Location     Type
 11452 ;;  Commands        7    0[BANK0 ] unsigned char [7]
 11453 ;;  i               2    7[BANK0 ] int 
 11454 ;; Return value:  Size  Location     Type
 11455 ;;                  1    wreg      void 
 11456 ;; Registers used:
 11457 ;;		wreg, fsr0l, fsr0h, status,2, status,0, btemp+1, pclath, cstack
 11458 ;; Tracked objects:
 11459 ;;		On entry : 0/0
 11460 ;;		On exit  : 0/0
 11461 ;;		Unchanged: 0/0
 11462 ;; Data sizes:     COMMON   BANK0   BANK1   BANK3   BANK2
 11463 ;;      Params:         0       0       0       0       0
 11464 ;;      Locals:         0       9       0       0       0
 11465 ;;      Temps:          4       0       0       0       0
 11466 ;;      Totals:         4       9       0       0       0
 11467 ;;Total ram usage:       13 bytes
 11468 ;; Hardware stack levels used: 1
 11469 ;; Hardware stack levels required when called: 2
 11470 ;; This function calls:
 11471 ;;		_Lcd_CmdWrite
 11472 ;; This function is called by:
 11473 ;;		_main
 11474 ;; This function uses a non-reentrant model
 11475 ;;
 11476                           
 11477  1A7F                     _LCD_Init:	
 11478                           ;psect for function _LCD_Init
 11479                           
 11480  1A7F                     l3332:	
 11481                           ;incstack = 0
 11482                           ; Regs used in _LCD_Init: [wreg-fsr0h+status,2+status,0+btemp+1+pclath+cstack]
 11483                           
 11484                           
 11485                           ;LCD.c: 15:     char Commands[7] = {0x28,0x33,0x32,0x06,0x0F,0x80};
 11486  1A7F  3020               	movlw	LCD_Init@Commands& (0+255)
 11487  1A80  0084               	movwf	4
 11488  1A81  30CF               	movlw	low LCD_Init@F1004
 11489  1A82  00F4               	movwf	??_LCD_Init
 11490  1A83  0804               	movf	4,w
 11491  1A84  00F5               	movwf	??_LCD_Init+1
 11492  1A85  3007               	movlw	7
 11493  1A86  00F6               	movwf	??_LCD_Init+2
 11494  1A87                     u5350:
 11495  1A87  0874               	movf	??_LCD_Init,w
 11496  1A88  0084               	movwf	4
 11497  1A89  1383               	bcf	3,7	;select IRP bank1
 11498  1A8A  0800               	movf	0,w
 11499  1A8B  00F7               	movwf	??_LCD_Init+3
 11500  1A8C  0AF4               	incf	??_LCD_Init,f
 11501  1A8D  0875               	movf	??_LCD_Init+1,w
 11502  1A8E  0084               	movwf	4
 11503  1A8F  0877               	movf	??_LCD_Init+3,w
 11504  1A90  0080               	movwf	0
 11505  1A91  0AF5               	incf	??_LCD_Init+1,f
 11506  1A92  0BF6               	decfsz	??_LCD_Init+2,f
 11507  1A93  2A87               	goto	u5350
 11508  1A94                     l3334:
 11509  1A94                     l3336:
 11510                           
 11511                           ;LCD.c: 18:     TRISD = 0x00;
 11512  1A94  1683               	bsf	3,5	;RP0=1, select bank1
 11513  1A95  1303               	bcf	3,6	;RP1=0, select bank1
 11514  1A96  0188               	clrf	8	;volatile
 11515  1A97                     l3338:
 11516                           
 11517                           ;LCD.c: 20:     for(i=0;i<7;i++)
 11518  1A97  1283               	bcf	3,5	;RP0=0, select bank0
 11519  1A98  1303               	bcf	3,6	;RP1=0, select bank0
 11520  1A99  01A7               	clrf	LCD_Init@i
 11521  1A9A  01A8               	clrf	LCD_Init@i+1
 11522  1A9B                     l3344:
 11523                           
 11524                           ;LCD.c: 21:     {;LCD.c: 22:         Lcd_CmdWrite(Commands[i]);
 11525  1A9B  1283               	bcf	3,5	;RP0=0, select bank0
 11526  1A9C  1303               	bcf	3,6	;RP1=0, select bank0
 11527  1A9D  0827               	movf	LCD_Init@i,w
 11528  1A9E  3E20               	addlw	(low (LCD_Init@Commands| 0))& (0+255)
 11529  1A9F  0084               	movwf	4
 11530  1AA0  1383               	bcf	3,7	;select IRP bank0
 11531  1AA1  0800               	movf	0,w
 11532  1AA2  160A  158A  21A6  160A  158A  	fcall	_Lcd_CmdWrite
 11533  1AA7                     l3346:
 11534                           
 11535                           ;LCD.c: 29:     }
 11536  1AA7  3001               	movlw	1
 11537  1AA8  1283               	bcf	3,5	;RP0=0, select bank0
 11538  1AA9  1303               	bcf	3,6	;RP1=0, select bank0
 11539  1AAA  07A7               	addwf	LCD_Init@i,f
 11540  1AAB  1803               	skipnc
 11541  1AAC  0AA8               	incf	LCD_Init@i+1,f
 11542  1AAD  3000               	movlw	0
 11543  1AAE  07A8               	addwf	LCD_Init@i+1,f
 11544  1AAF                     l3348:
 11545  1AAF  0828               	movf	LCD_Init@i+1,w
 11546  1AB0  3A80               	xorlw	128
 11547  1AB1  00FF               	movwf	btemp+1
 11548  1AB2  3080               	movlw	128
 11549  1AB3  027F               	subwf	btemp+1,w
 11550  1AB4  1D03               	skipz
 11551  1AB5  2AB8               	goto	u5365
 11552  1AB6  3007               	movlw	7
 11553  1AB7  0227               	subwf	LCD_Init@i,w
 11554  1AB8                     u5365:
 11555  1AB8  1C03               	skipc
 11556  1AB9  2ABB               	goto	u5361
 11557  1ABA  2ABC               	goto	u5360
 11558  1ABB                     u5361:
 11559  1ABB  2A9B               	goto	l3344
 11560  1ABC                     u5360:
 11561  1ABC                     l98:
 11562  1ABC  0008               	return
 11563  1ABD                     __end_of_LCD_Init:
 11564                           
 11565                           	psect	text34
 11566  186C                     __ptext34:	
 11567 ;; *************** function _LCD_GoToXY *****************
 11568 ;; Defined at:
 11569 ;;		line 64 in file "LCD.c"
 11570 ;; Parameters:    Size  Location     Type
 11571 ;;  X               1    wreg     unsigned char 
 11572 ;;  Y               1    4[COMMON] unsigned char 
 11573 ;; Auto vars:     Size  Location     Type
 11574 ;;  X               1    5[COMMON] unsigned char 
 11575 ;; Return value:  Size  Location     Type
 11576 ;;                  1    wreg      void 
 11577 ;; Registers used:
 11578 ;;		wreg, status,2, status,0, pclath, cstack
 11579 ;; Tracked objects:
 11580 ;;		On entry : 0/0
 11581 ;;		On exit  : 0/0
 11582 ;;		Unchanged: 0/0
 11583 ;; Data sizes:     COMMON   BANK0   BANK1   BANK3   BANK2
 11584 ;;      Params:         1       0       0       0       0
 11585 ;;      Locals:         1       0       0       0       0
 11586 ;;      Temps:          0       0       0       0       0
 11587 ;;      Totals:         2       0       0       0       0
 11588 ;;Total ram usage:        2 bytes
 11589 ;; Hardware stack levels used: 1
 11590 ;; Hardware stack levels required when called: 2
 11591 ;; This function calls:
 11592 ;;		_Lcd_CmdWrite
 11593 ;; This function is called by:
 11594 ;;		_main
 11595 ;; This function uses a non-reentrant model
 11596 ;;
 11597                           
 11598  186C                     _LCD_GoToXY:	
 11599                           ;psect for function _LCD_GoToXY
 11600                           
 11601                           
 11602                           ;incstack = 0
 11603                           ; Regs used in _LCD_GoToXY: [wreg+status,2+status,0+pclath+cstack]
 11604                           ;LCD_GoToXY@X stored from wreg
 11605  186C  00F5               	movwf	LCD_GoToXY@X
 11606  186D                     l3386:
 11607                           
 11608                           ;LCD.c: 64: void LCD_GoToXY(char X,char Y);LCD.c: 65: {;LCD.c: 66:     if(Y == 0)
 11609  186D  0874               	movf	LCD_GoToXY@Y,w
 11610  186E  1D03               	btfss	3,2
 11611  186F  2871               	goto	u5381
 11612  1870  2872               	goto	u5380
 11613  1871                     u5381:
 11614  1871  287A               	goto	l3390
 11615  1872                     u5380:
 11616  1872                     l3388:
 11617                           
 11618                           ;LCD.c: 67:     {;LCD.c: 68:         Lcd_CmdWrite(0x80 + X);
 11619  1872  0875               	movf	LCD_GoToXY@X,w
 11620  1873  3E80               	addlw	128
 11621  1874  160A  158A  21A6  160A  158A  	fcall	_Lcd_CmdWrite
 11622                           
 11623                           ;LCD.c: 69:     }
 11624  1879  2881               	goto	l109
 11625  187A                     l3390:
 11626                           
 11627                           ;LCD.c: 71:     {;LCD.c: 72:         Lcd_CmdWrite(0xC0 + X);
 11628  187A  0875               	movf	LCD_GoToXY@X,w
 11629  187B  3EC0               	addlw	192
 11630  187C  160A  158A  21A6  160A  158A  	fcall	_Lcd_CmdWrite
 11631  1881                     l109:
 11632  1881  0008               	return
 11633  1882                     __end_of_LCD_GoToXY:
 11634                           
 11635                           	psect	text35
 11636  08E0                     __ptext35:	
 11637 ;; *************** function _LCD_Clear *****************
 11638 ;; Defined at:
 11639 ;;		line 76 in file "LCD.c"
 11640 ;; Parameters:    Size  Location     Type
 11641 ;;		None
 11642 ;; Auto vars:     Size  Location     Type
 11643 ;;		None
 11644 ;; Return value:  Size  Location     Type
 11645 ;;                  1    wreg      void 
 11646 ;; Registers used:
 11647 ;;		wreg, status,2, status,0, pclath, cstack
 11648 ;; Tracked objects:
 11649 ;;		On entry : 0/0
 11650 ;;		On exit  : 0/0
 11651 ;;		Unchanged: 0/0
 11652 ;; Data sizes:     COMMON   BANK0   BANK1   BANK3   BANK2
 11653 ;;      Params:         0       0       0       0       0
 11654 ;;      Locals:         0       0       0       0       0
 11655 ;;      Temps:          0       0       0       0       0
 11656 ;;      Totals:         0       0       0       0       0
 11657 ;;Total ram usage:        0 bytes
 11658 ;; Hardware stack levels used: 1
 11659 ;; Hardware stack levels required when called: 2
 11660 ;; This function calls:
 11661 ;;		_Lcd_CmdWrite
 11662 ;; This function is called by:
 11663 ;;		_main
 11664 ;; This function uses a non-reentrant model
 11665 ;;
 11666                           
 11667  08E0                     _LCD_Clear:	
 11668                           ;psect for function _LCD_Clear
 11669                           
 11670  08E0                     l3626:	
 11671                           ;incstack = 0
 11672                           ; Regs used in _LCD_Clear: [wreg+status,2+status,0+pclath+cstack]
 11673                           
 11674                           
 11675                           ;LCD.c: 78:     Lcd_CmdWrite(0x01);
 11676  08E0  3001               	movlw	1
 11677  08E1  160A  158A  21A6  120A  158A  	fcall	_Lcd_CmdWrite
 11678  08E6                     l112:
 11679  08E6  0008               	return
 11680  08E7                     __end_of_LCD_Clear:
 11681                           
 11682                           	psect	text36
 11683  19A6                     __ptext36:	
 11684 ;; *************** function _Lcd_CmdWrite *****************
 11685 ;; Defined at:
 11686 ;;		line 34 in file "LCD.c"
 11687 ;; Parameters:    Size  Location     Type
 11688 ;;  cmd             1    wreg     unsigned char 
 11689 ;; Auto vars:     Size  Location     Type
 11690 ;;  cmd             1    3[COMMON] unsigned char 
 11691 ;; Return value:  Size  Location     Type
 11692 ;;                  1    wreg      void 
 11693 ;; Registers used:
 11694 ;;		wreg, status,2, status,0, pclath, cstack
 11695 ;; Tracked objects:
 11696 ;;		On entry : 0/0
 11697 ;;		On exit  : 0/0
 11698 ;;		Unchanged: 0/0
 11699 ;; Data sizes:     COMMON   BANK0   BANK1   BANK3   BANK2
 11700 ;;      Params:         0       0       0       0       0
 11701 ;;      Locals:         1       0       0       0       0
 11702 ;;      Temps:          1       0       0       0       0
 11703 ;;      Totals:         2       0       0       0       0
 11704 ;;Total ram usage:        2 bytes
 11705 ;; Hardware stack levels used: 1
 11706 ;; Hardware stack levels required when called: 1
 11707 ;; This function calls:
 11708 ;;		_LCD_Enable
 11709 ;; This function is called by:
 11710 ;;		_LCD_Init
 11711 ;;		_LCD_GoToXY
 11712 ;;		_LCD_Clear
 11713 ;; This function uses a non-reentrant model
 11714 ;;
 11715                           
 11716  19A6                     _Lcd_CmdWrite:	
 11717                           ;psect for function _Lcd_CmdWrite
 11718                           
 11719                           
 11720                           ;incstack = 0
 11721                           ; Regs used in _Lcd_CmdWrite: [wreg+status,2+status,0+pclath+cstack]
 11722                           ;Lcd_CmdWrite@cmd stored from wreg
 11723  19A6  00F3               	movwf	Lcd_CmdWrite@cmd
 11724  19A7                     l2924:
 11725                           
 11726                           ;LCD.c: 34: void Lcd_CmdWrite(char cmd);LCD.c: 35: {;LCD.c: 36:     PORTD = (cmd & 0xF0)
      +                          ;
 11727  19A7  0873               	movf	Lcd_CmdWrite@cmd,w
 11728  19A8  39F0               	andlw	240
 11729  19A9  1283               	bcf	3,5	;RP0=0, select bank0
 11730  19AA  1303               	bcf	3,6	;RP1=0, select bank0
 11731  19AB  0088               	movwf	8	;volatile
 11732  19AC                     l2926:
 11733                           
 11734                           ;LCD.c: 37:     PORTD &= ~(1<<0);
 11735  19AC  30FE               	movlw	254
 11736  19AD  00F2               	movwf	??_Lcd_CmdWrite
 11737  19AE  0872               	movf	??_Lcd_CmdWrite,w
 11738  19AF  0588               	andwf	8,f	;volatile
 11739  19B0                     l2928:
 11740                           
 11741                           ;LCD.c: 38:     PORTD &= ~(1<<1);
 11742  19B0  30FD               	movlw	253
 11743  19B1  00F2               	movwf	??_Lcd_CmdWrite
 11744  19B2  0872               	movf	??_Lcd_CmdWrite,w
 11745  19B3  0588               	andwf	8,f	;volatile
 11746  19B4                     l2930:
 11747                           
 11748                           ;LCD.c: 39:     LCD_Enable();
 11749  19B4  160A  158A  2046  160A  158A  	fcall	_LCD_Enable
 11750  19B9                     l2932:
 11751                           
 11752                           ;LCD.c: 41:     PORTD = ((cmd<<4) & 0xF0);
 11753  19B9  0873               	movf	Lcd_CmdWrite@cmd,w
 11754  19BA  00F2               	movwf	??_Lcd_CmdWrite
 11755  19BB  3003               	movlw	3
 11756  19BC                     u4265:
 11757  19BC  1003               	clrc
 11758  19BD  0DF2               	rlf	??_Lcd_CmdWrite,f
 11759  19BE  3EFF               	addlw	-1
 11760  19BF  1D03               	skipz
 11761  19C0  29BC               	goto	u4265
 11762  19C1  1003               	clrc
 11763  19C2  0D72               	rlf	??_Lcd_CmdWrite,w
 11764  19C3  39F0               	andlw	240
 11765  19C4  1283               	bcf	3,5	;RP0=0, select bank0
 11766  19C5  1303               	bcf	3,6	;RP1=0, select bank0
 11767  19C6  0088               	movwf	8	;volatile
 11768  19C7                     l2934:
 11769                           
 11770                           ;LCD.c: 42:     PORTD &= ~(1<<0);
 11771  19C7  30FE               	movlw	254
 11772  19C8  00F2               	movwf	??_Lcd_CmdWrite
 11773  19C9  0872               	movf	??_Lcd_CmdWrite,w
 11774  19CA  0588               	andwf	8,f	;volatile
 11775  19CB                     l2936:
 11776                           
 11777                           ;LCD.c: 43:     PORTD &= ~(1<<1);
 11778  19CB  30FD               	movlw	253
 11779  19CC  00F2               	movwf	??_Lcd_CmdWrite
 11780  19CD  0872               	movf	??_Lcd_CmdWrite,w
 11781  19CE  0588               	andwf	8,f	;volatile
 11782  19CF                     l2938:
 11783                           
 11784                           ;LCD.c: 44:     LCD_Enable();
 11785  19CF  160A  158A  2046  160A  158A  	fcall	_LCD_Enable
 11786  19D4                     l101:
 11787  19D4  0008               	return
 11788  19D5                     __end_of_Lcd_CmdWrite:
 11789                           
 11790                           	psect	text37
 11791  1846                     __ptext37:	
 11792 ;; *************** function _LCD_Enable *****************
 11793 ;; Defined at:
 11794 ;;		line 6 in file "LCD.c"
 11795 ;; Parameters:    Size  Location     Type
 11796 ;;		None
 11797 ;; Auto vars:     Size  Location     Type
 11798 ;;		None
 11799 ;; Return value:  Size  Location     Type
 11800 ;;                  1    wreg      void 
 11801 ;; Registers used:
 11802 ;;		wreg, status,2, status,0
 11803 ;; Tracked objects:
 11804 ;;		On entry : 0/0
 11805 ;;		On exit  : 0/0
 11806 ;;		Unchanged: 0/0
 11807 ;; Data sizes:     COMMON   BANK0   BANK1   BANK3   BANK2
 11808 ;;      Params:         0       0       0       0       0
 11809 ;;      Locals:         0       0       0       0       0
 11810 ;;      Temps:          2       0       0       0       0
 11811 ;;      Totals:         2       0       0       0       0
 11812 ;;Total ram usage:        2 bytes
 11813 ;; Hardware stack levels used: 1
 11814 ;; This function calls:
 11815 ;;		Nothing
 11816 ;; This function is called by:
 11817 ;;		_Lcd_CmdWrite
 11818 ;;		_Lcd_DataWrite
 11819 ;; This function uses a non-reentrant model
 11820 ;;
 11821                           
 11822  1846                     _LCD_Enable:	
 11823                           ;psect for function _LCD_Enable
 11824                           
 11825  1846                     l2450:	
 11826                           ;incstack = 0
 11827                           ; Regs used in _LCD_Enable: [wreg+status,2+status,0]
 11828                           
 11829                           
 11830                           ;LCD.c: 8:     PORTD |= (1<<2);
 11831  1846  1283               	bcf	3,5	;RP0=0, select bank0
 11832  1847  1303               	bcf	3,6	;RP1=0, select bank0
 11833  1848  1508               	bsf	8,2	;volatile
 11834  1849                     l2452:
 11835                           
 11836                           ;LCD.c: 9:     _delay((unsigned long)((2)*(16000000UL/4000.0)));
 11837  1849  300B               	movlw	11
 11838  184A  00F1               	movwf	??_LCD_Enable+1
 11839  184B  3062               	movlw	98
 11840  184C  00F0               	movwf	??_LCD_Enable
 11841  184D                     u6137:
 11842  184D  0BF0               	decfsz	??_LCD_Enable,f
 11843  184E  284D               	goto	u6137
 11844  184F  0BF1               	decfsz	??_LCD_Enable+1,f
 11845  1850  284D               	goto	u6137
 11846  1851  0000               	nop
 11847  1852                     l2454:
 11848                           
 11849                           ;LCD.c: 10:     PORTD &= ~(1<<2);
 11850  1852  30FB               	movlw	251
 11851  1853  00F0               	movwf	??_LCD_Enable
 11852  1854  0870               	movf	??_LCD_Enable,w
 11853  1855  1283               	bcf	3,5	;RP0=0, select bank0
 11854  1856  1303               	bcf	3,6	;RP1=0, select bank0
 11855  1857  0588               	andwf	8,f	;volatile
 11856  1858                     l91:
 11857  1858  0008               	return
 11858  1859                     __end_of_LCD_Enable:
 11859                           
 11860                           	psect	text38
 11861  1828                     __ptext38:	
 11862 ;; *************** function _ADC_Init *****************
 11863 ;; Defined at:
 11864 ;;		line 3 in file "ADC.c"
 11865 ;; Parameters:    Size  Location     Type
 11866 ;;		None
 11867 ;; Auto vars:     Size  Location     Type
 11868 ;;		None
 11869 ;; Return value:  Size  Location     Type
 11870 ;;                  1    wreg      void 
 11871 ;; Registers used:
 11872 ;;		wreg, status,2, status,0
 11873 ;; Tracked objects:
 11874 ;;		On entry : 0/0
 11875 ;;		On exit  : 0/0
 11876 ;;		Unchanged: 0/0
 11877 ;; Data sizes:     COMMON   BANK0   BANK1   BANK3   BANK2
 11878 ;;      Params:         0       0       0       0       0
 11879 ;;      Locals:         0       0       0       0       0
 11880 ;;      Temps:          1       0       0       0       0
 11881 ;;      Totals:         1       0       0       0       0
 11882 ;;Total ram usage:        1 bytes
 11883 ;; Hardware stack levels used: 1
 11884 ;; This function calls:
 11885 ;;		Nothing
 11886 ;; This function is called by:
 11887 ;;		_main
 11888 ;; This function uses a non-reentrant model
 11889 ;;
 11890                           
 11891  1828                     _ADC_Init:	
 11892                           ;psect for function _ADC_Init
 11893                           
 11894  1828                     l3326:	
 11895                           ;incstack = 0
 11896                           ; Regs used in _ADC_Init: [wreg+status,2+status,0]
 11897                           
 11898                           
 11899                           ;ADC.c: 5:     ADCON0=0x00;
 11900  1828  1283               	bcf	3,5	;RP0=0, select bank0
 11901  1829  1303               	bcf	3,6	;RP1=0, select bank0
 11902  182A  019F               	clrf	31	;volatile
 11903  182B                     l3328:
 11904                           
 11905                           ;ADC.c: 6:     ADCON1=0x80;
 11906  182B  3080               	movlw	128
 11907  182C  1683               	bsf	3,5	;RP0=1, select bank1
 11908  182D  1303               	bcf	3,6	;RP1=0, select bank1
 11909  182E  009F               	movwf	31	;volatile
 11910  182F                     l3330:
 11911                           
 11912                           ;ADC.c: 8:     TRISA |= (1<<0)|(1<<1);
 11913  182F  3003               	movlw	3
 11914  1830  00F0               	movwf	??_ADC_Init
 11915  1831  0870               	movf	??_ADC_Init,w
 11916  1832  0485               	iorwf	5,f	;volatile
 11917  1833                     l139:
 11918  1833  0008               	return
 11919  1834                     __end_of_ADC_Init:
 11920                           
 11921                           	psect	text39
 11922  18A2                     __ptext39:	
 11923 ;; *************** function _ADC_GetAdcValue *****************
 11924 ;; Defined at:
 11925 ;;		line 12 in file "ADC.c"
 11926 ;; Parameters:    Size  Location     Type
 11927 ;;  var_adcChann    1    wreg     unsigned char 
 11928 ;; Auto vars:     Size  Location     Type
 11929 ;;  var_adcChann    1    3[COMMON] unsigned char 
 11930 ;; Return value:  Size  Location     Type
 11931 ;;                  2    0[COMMON] unsigned int 
 11932 ;; Registers used:
 11933 ;;		wreg, status,2, status,0
 11934 ;; Tracked objects:
 11935 ;;		On entry : 0/0
 11936 ;;		On exit  : 0/0
 11937 ;;		Unchanged: 0/0
 11938 ;; Data sizes:     COMMON   BANK0   BANK1   BANK3   BANK2
 11939 ;;      Params:         2       0       0       0       0
 11940 ;;      Locals:         1       0       0       0       0
 11941 ;;      Temps:          1       0       0       0       0
 11942 ;;      Totals:         4       0       0       0       0
 11943 ;;Total ram usage:        4 bytes
 11944 ;; Hardware stack levels used: 1
 11945 ;; This function calls:
 11946 ;;		Nothing
 11947 ;; This function is called by:
 11948 ;;		_main
 11949 ;; This function uses a non-reentrant model
 11950 ;;
 11951                           
 11952  18A2                     _ADC_GetAdcValue:	
 11953                           ;psect for function _ADC_GetAdcValue
 11954                           
 11955                           
 11956                           ;incstack = 0
 11957                           ; Regs used in _ADC_GetAdcValue: [wreg+status,2+status,0]
 11958                           ;ADC_GetAdcValue@var_adcChannel_u8 stored from wreg
 11959  18A2  00F3               	movwf	ADC_GetAdcValue@var_adcChannel_u8
 11960  18A3                     l3400:
 11961                           
 11962                           ;ADC.c: 12: unsigned int ADC_GetAdcValue(unsigned char var_adcChannel_u8);ADC.c: 13: {;A
      +                          DC.c: 14:     ADCON0= (var_adcChannel_u8<<3);
 11963  18A3  0873               	movf	ADC_GetAdcValue@var_adcChannel_u8,w
 11964  18A4  00F2               	movwf	??_ADC_GetAdcValue
 11965  18A5  3002               	movlw	2
 11966  18A6                     u5405:
 11967  18A6  1003               	clrc
 11968  18A7  0DF2               	rlf	??_ADC_GetAdcValue,f
 11969  18A8  3EFF               	addlw	-1
 11970  18A9  1D03               	skipz
 11971  18AA  28A6               	goto	u5405
 11972  18AB  1003               	clrc
 11973  18AC  0D72               	rlf	??_ADC_GetAdcValue,w
 11974  18AD  1283               	bcf	3,5	;RP0=0, select bank0
 11975  18AE  1303               	bcf	3,6	;RP1=0, select bank0
 11976  18AF  009F               	movwf	31	;volatile
 11977  18B0                     l3402:
 11978                           
 11979                           ;ADC.c: 15:  ADON = 1;
 11980  18B0  141F               	bsf	31,0	;volatile
 11981  18B1                     l3404:
 11982                           
 11983                           ;ADC.c: 16:     _delay((unsigned long)((10)*(16000000UL/4000000.0)));
 11984  18B1  300D               	movlw	13
 11985  18B2  00F2               	movwf	??_ADC_GetAdcValue
 11986  18B3                     u6147:
 11987  18B3  0BF2               	decfsz	??_ADC_GetAdcValue,f
 11988  18B4  28B3               	goto	u6147
 11989  18B5                     l3406:
 11990                           
 11991                           ;ADC.c: 17:     GO = 1;
 11992  18B5  1283               	bcf	3,5	;RP0=0, select bank0
 11993  18B6  1303               	bcf	3,6	;RP1=0, select bank0
 11994  18B7  151F               	bsf	31,2	;volatile
 11995  18B8                     l142:	
 11996                           ;ADC.c: 18:     while(GO_DONE == 1);
 11997                           
 11998  18B8  191F               	btfsc	31,2	;volatile
 11999  18B9  28BB               	goto	u5411
 12000  18BA  28BC               	goto	u5410
 12001  18BB                     u5411:
 12002  18BB  28B8               	goto	l142
 12003  18BC                     u5410:
 12004  18BC                     l3408:
 12005                           
 12006                           ;ADC.c: 21:     return((unsigned int)(ADRESH<<8) + (unsigned int)ADRESL);
 12007  18BC  081E               	movf	30,w	;volatile
 12008  18BD  00F1               	movwf	?_ADC_GetAdcValue+1
 12009  18BE  1683               	bsf	3,5	;RP0=1, select bank1
 12010  18BF  1303               	bcf	3,6	;RP1=0, select bank1
 12011  18C0  081E               	movf	30,w	;volatile
 12012  18C1  00F0               	movwf	?_ADC_GetAdcValue
 12013  18C2                     l145:
 12014  18C2  0008               	return
 12015  18C3                     __end_of_ADC_GetAdcValue:
 12016  007E                     btemp	set	126	;btemp
 12017  007E                     wtemp0	set	126

Data Sizes:
    Strings     61
    Constant    144
    Data        7
    BSS         0
    Persistent  0
    Stack       0

Auto Spaces:
    Space          Size  Autos    Used
    COMMON           14     14      14
    BANK0            80     80      80
    BANK1            80     47      54
    BANK3            96     61      61
    BANK2            96      0       0

Pointer List with Targets:

    memset@p1	PTR void  size(1) Largest target is 50
		 -> main@Str(BANK3[50]), 

    memset@p	PTR unsigned char  size(1) Largest target is 50
		 -> main@Str(BANK3[50]), 

    sprintf@f	PTR const unsigned char  size(1) Largest target is 25
		 -> STR_3(CODE[25]), 

    sprintf@sp	PTR unsigned char  size(1) Largest target is 50
		 -> main@Str(BANK3[50]), 

    sprintf@ap	PTR void [1] size(1) Largest target is 2
		 -> ?_sprintf(BANK1[2]), 

    LCD_Print@Str	PTR unsigned char  size(2) Largest target is 50
		 -> main@Str(BANK3[50]), STR_2(CODE[17]), 

    sp__memset	PTR void  size(1) Largest target is 50
		 -> main@Str(BANK3[50]), 

    UART_SendTxt@Str	PTR unsigned char  size(2) Largest target is 50
		 -> STR_4(CODE[3]), main@Str(BANK3[50]), STR_1(CODE[19]), 


Critical Paths under _main in COMMON

    _sprintf->___lldiv
    ___awdiv->___awmod
    _fround->___lwdiv
    ___lwdiv->___lwmod
    ___flmul->___lwdiv
    ___xxtofl->_ADC_GetAdcValue
    _UART_SendTxt->_UART_TxChar
    _UART_Init->___lldiv
    _LCD_Print->_Lcd_DataWrite
    _Lcd_DataWrite->_LCD_Enable
    _LCD_Init->_Lcd_CmdWrite
    _LCD_GoToXY->_Lcd_CmdWrite
    _LCD_Clear->_Lcd_CmdWrite
    _Lcd_CmdWrite->_LCD_Enable

Critical Paths under _main in BANK0

    _main->___flge
    _sprintf->___flge
    _sprintf->___flsub
    _scale->___flmul
    _fround->___flmul
    ___flmul->___xxtofl
    ___fltol->_scale
    ___flsub->___fladd
    ___fladd->_fround
    ___flge->___fladd
    ___fldiv->___flmul

Critical Paths under _main in BANK1

    _main->_sprintf
    _sprintf->___flge

Critical Paths under _main in BANK3

    None.

Critical Paths under _main in BANK2

    None.

Call Graph Tables:

 ---------------------------------------------------------------------------------
 (Depth) Function   	        Calls       Base Space   Used Autos Params    Refs
 ---------------------------------------------------------------------------------
 (0) _main                                                65    65      0   45628
                                             43 BANK1      4     4      0
                                              0 BANK3     61    61      0
                    _ADC_GetAdcValue
                           _ADC_Init
                          _LCD_Clear
                         _LCD_GoToXY
                           _LCD_Init
                          _LCD_Print
                           _PWM_Init
                   _PWM_SetDutyCycle
                          _PWM_Start
                          _UART_Init
                       _UART_SendTxt
                            ___fladd
                            ___fldiv
                             ___flge
                            ___flmul
                           ___xxtofl
                             _memset
                            _sprintf
 ---------------------------------------------------------------------------------
 (1) _sprintf                                             46    37      9   32550
                                              4 BANK1     39    30      9
                            ___awdiv
                            ___fladd
                             ___fleq
                             ___flge
                            ___flmul
                            ___flneg
                            ___flsub
                            ___fltol
                            ___lldiv
                            ___llmod
                             ___wmul
                           ___xxtofl
                         __div_to_l_
                        __tdiv_to_l_
                             _fround
                            _isdigit
                              _scale
 ---------------------------------------------------------------------------------
 (2) _scale                                               19    15      4    7712
                                             32 BANK0     19    15      4
                            ___awdiv
                            ___awmod
                            ___flmul
 ---------------------------------------------------------------------------------
 (3) ___awmod                                              7     3      4    1208
                                              0 COMMON     7     3      4
 ---------------------------------------------------------------------------------
 (3) ___awdiv                                              9     5      4    1364
                                              7 COMMON     5     1      4
                                              0 BANK0      4     4      0
                            ___awmod (ARG)
 ---------------------------------------------------------------------------------
 (2) _isdigit                                              2     2      0      68
                                              0 COMMON     2     2      0
 ---------------------------------------------------------------------------------
 (2) _fround                                              20    16      4    6175
                                             32 BANK0     20    16      4
                            ___flmul
                            ___lwdiv
                            ___lwmod
 ---------------------------------------------------------------------------------
 (3) ___lwmod                                              6     2      4     615
                                              0 COMMON     6     2      4
 ---------------------------------------------------------------------------------
 (3) ___lwdiv                                              8     4      4     618
                                              6 COMMON     8     4      4
                            ___lwmod (ARG)
 ---------------------------------------------------------------------------------
 (3) ___flmul                                             26    18      8    4697
                                              6 BANK0     26    18      8
                    _ADC_GetAdcValue (ARG)
                          __Umul8_16
                            ___awdiv (ARG)
                            ___awmod (ARG)
                            ___lwdiv (ARG)
                            ___lwmod (ARG)
                           ___xxtofl (ARG)
 ---------------------------------------------------------------------------------
 (4) __Umul8_16                                            9     7      2     799
                                              0 COMMON     9     7      2
 ---------------------------------------------------------------------------------
 (2) __tdiv_to_l_                                         18    10      8     455
                                              0 COMMON    12     4      8
                                              0 BANK0      6     6      0
 ---------------------------------------------------------------------------------
 (2) __div_to_l_                                          15     7      8     455
                                              0 COMMON     9     1      8
                                              0 BANK0      6     6      0
 ---------------------------------------------------------------------------------
 (2) ___xxtofl                                            14    10      4     550
                                              4 COMMON     8     4      4
                                              0 BANK0      6     6      0
                    _ADC_GetAdcValue (ARG)
 ---------------------------------------------------------------------------------
 (2) ___wmul                                               6     2      4     396
                                              0 COMMON     6     2      4
 ---------------------------------------------------------------------------------
 (2) ___llmod                                             10     2      8     615
                                              0 COMMON    10     2      8
 ---------------------------------------------------------------------------------
 (2) ___fltol                                             11     7      4     457
                                             51 BANK0     11     7      4
                            ___flmul (ARG)
                              _scale (ARG)
 ---------------------------------------------------------------------------------
 (2) ___flsub                                              8     0      8    2789
                                             72 BANK0      8     0      8
                            ___fladd
                           ___xxtofl (ARG)
 ---------------------------------------------------------------------------------
 (3) ___fladd                                             20    12      8    2592
                                             52 BANK0     20    12      8
                             _fround (ARG)
 ---------------------------------------------------------------------------------
 (2) ___flneg                                              4     0      4     121
                                              0 COMMON     4     0      4
 ---------------------------------------------------------------------------------
 (2) ___flge                                              12     4      8    1094
                                             72 BANK0      8     0      8
                                              0 BANK1      4     4      0
                            ___fladd (ARG)
 ---------------------------------------------------------------------------------
 (2) ___fleq                                              12     4      8     394
                                              0 COMMON    12     4      8
 ---------------------------------------------------------------------------------
 (1) _memset                                               7     3      4     281
                                              0 COMMON     7     3      4
 ---------------------------------------------------------------------------------
 (1) ___fldiv                                             26    18      8    1425
                                             32 BANK0     26    18      8
                    _ADC_GetAdcValue (ARG)
                            ___flmul (ARG)
                           ___xxtofl (ARG)
 ---------------------------------------------------------------------------------
 (1) _UART_SendTxt                                         2     0      2     295
                                              1 COMMON     2     0      2
                        _UART_TxChar
 ---------------------------------------------------------------------------------
 (2) _UART_TxChar                                          1     1      0      22
                                              0 COMMON     1     1      0
 ---------------------------------------------------------------------------------
 (1) _UART_Init                                            6     4      2     716
                                              0 BANK0      6     4      2
                            ___lldiv
 ---------------------------------------------------------------------------------
 (2) ___lldiv                                             14     6      8     618
                                              0 COMMON    14     6      8
 ---------------------------------------------------------------------------------
 (1) _PWM_Start                                            1     1      0       0
 ---------------------------------------------------------------------------------
 (1) _PWM_SetDutyCycle                                     4     3      1     317
                                              0 COMMON     4     3      1
 ---------------------------------------------------------------------------------
 (1) _PWM_Init                                             3     3      0      22
                                              0 COMMON     3     3      0
 ---------------------------------------------------------------------------------
 (1) _LCD_Print                                            2     0      2     241
                                              4 COMMON     2     0      2
                      _Lcd_DataWrite
 ---------------------------------------------------------------------------------
 (2) _Lcd_DataWrite                                        2     2      0      44
                                              2 COMMON     2     2      0
                         _LCD_Enable
 ---------------------------------------------------------------------------------
 (1) _LCD_Init                                            13    13      0     137
                                              4 COMMON     4     4      0
                                              0 BANK0      9     9      0
                       _Lcd_CmdWrite
 ---------------------------------------------------------------------------------
 (1) _LCD_GoToXY                                           2     1      1     262
                                              4 COMMON     2     1      1
                       _Lcd_CmdWrite
 ---------------------------------------------------------------------------------
 (1) _LCD_Clear                                            0     0      0      44
                       _Lcd_CmdWrite
 ---------------------------------------------------------------------------------
 (2) _Lcd_CmdWrite                                         2     2      0      44
                                              2 COMMON     2     2      0
                         _LCD_Enable
 ---------------------------------------------------------------------------------
 (3) _LCD_Enable                                           2     2      0       0
                                              0 COMMON     2     2      0
 ---------------------------------------------------------------------------------
 (1) _ADC_Init                                             1     1      0       0
                                              0 COMMON     1     1      0
 ---------------------------------------------------------------------------------
 (1) _ADC_GetAdcValue                                      4     2      2      22
                                              0 COMMON     4     2      2
 ---------------------------------------------------------------------------------
 Estimated maximum stack depth 4
 ---------------------------------------------------------------------------------

 Call Graph Graphs:

 _main (ROOT)
   _ADC_GetAdcValue
   _ADC_Init
   _LCD_Clear
     _Lcd_CmdWrite
       _LCD_Enable
   _LCD_GoToXY
     _Lcd_CmdWrite
   _LCD_Init
     _Lcd_CmdWrite
   _LCD_Print
     _Lcd_DataWrite
       _LCD_Enable
   _PWM_Init
   _PWM_SetDutyCycle
   _PWM_Start
   _UART_Init
     ___lldiv
   _UART_SendTxt
     _UART_TxChar
   ___fladd
     _fround (ARG)
       ___flmul
         _ADC_GetAdcValue (ARG)
         __Umul8_16 (ARG)
         ___awdiv (ARG)
           ___awmod (ARG)
         ___awmod (ARG)
         ___lwdiv (ARG)
           ___lwmod (ARG)
         ___lwmod (ARG)
         ___xxtofl (ARG)
           _ADC_GetAdcValue (ARG)
       ___lwdiv
       ___lwmod
   ___fldiv
     _ADC_GetAdcValue (ARG)
     ___flmul (ARG)
     ___xxtofl (ARG)
   ___flge
     ___fladd (ARG)
   ___flmul
   ___xxtofl
   _memset
   _sprintf
     ___awdiv
     ___fladd
     ___fleq
     ___flge
     ___flmul
     ___flneg
     ___flsub
       ___fladd
       ___xxtofl (ARG)
     ___fltol
       ___flmul (ARG)
       _scale (ARG)
         ___awdiv
         ___awmod
         ___flmul
     ___lldiv
     ___llmod
     ___wmul
     ___xxtofl
     __div_to_l_
     __tdiv_to_l_
     _fround
     _isdigit
     _scale

 Address spaces:
Name               Size   Autos  Total    Cost      Usage
BANK3               60     3D      3D       9       63.5%
BITBANK3            60      0       0       8        0.0%
SFR3                 0      0       0       4        0.0%
BITSFR3              0      0       0       4        0.0%
BANK2               60      0       0      11        0.0%
BITBANK2            60      0       0      10        0.0%
SFR2                 0      0       0       5        0.0%
BITSFR2              0      0       0       5        0.0%
BANK1               50     2F      36       7       67.5%
BITBANK1            50      0       0       6        0.0%
SFR1                 0      0       0       2        0.0%
BITSFR1              0      0       0       2        0.0%
BANK0               50     50      50       5      100.0%
BITBANK0            50      0       0       4        0.0%
SFR0                 0      0       0       1        0.0%
BITSFR0              0      0       0       1        0.0%
COMMON               E      E       E       1      100.0%
BITCOMMON            E      0       0       0        0.0%
CODE                 0      0       0       0        0.0%
DATA                 0      0      D1      12        0.0%
ABS                  0      0      D1       3        0.0%
NULL                 0      0       0       0        0.0%
STACK                0      0       0       2        0.0%
EEDATA             100      0       0       0        0.0%


Microchip Technology PIC Macro Assembler V2.35 build 20211206165544 
Symbol Table                                                                                   Wed Jan 04 20:51:55 2023

                     ?_LCD_GoToXY 0074                       ?_LCD_Enable 0070                      ___fldiv@aexp 0059  
                    ___fldiv@bexp 0058                                 pc 0002                      ___fldiv@sign 0051  
                              l22 1813                                l24 1819                                l25 181C  
                              l19 1A0B                                l37 1957                                l91 1858  
                              _GO 00FA                                l98 1ABC                      ___awdiv@sign 0021  
                              fsr 0004               ___wmul@multiplicand 0072               __Umul8_16@word_mpld 0076  
                             l101 19D4                               l112 08E6                               l104 102C  
                             l109 1881                               l142 18B8                               l118 1931  
                             l312 01CF                               l145 18C2                               l139 1833  
                             l166 1A44                               l174 197E                               l177 1003  
                             l353 07A6                               l345 063F                               l338 05FB  
                             l363 18F3                               l516 1C2D                               l365 190B  
                             l533 10EA                               l293 0C9E                               l550 1AF5  
                             l534 104F                               l286 12F5                               l551 1B0A  
                             l711 174D                               l703 17FF                               l359 07ED  
                             l544 10DD                               l721 1793                               l537 10AD  
                             l529 093F                               l554 007E                               l562 1827  
                             l715 1771                               l619 1B5E                               l732 17F3  
                             l724 17D1                               l580 1E22                               l549 1AD9  
                             l557 0144                               l733 17FF                               l573 1C94  
                             l581 1D94                               l805 1993                               l558 015D  
                             l566 1CA9                               l830 1CCE                               l399 1BC4  
                             l591 1E15                               l807 19A5                               l736 18E6  
                             l576 1CA9                               l832 1D65                               l584 1DE5  
                             l770 1FF3                               l762 1F71                               l746 1E7F  
                             l690 15DB                               l850 1845                               l843 1D2F  
                             l748 1FFF                               l844 1D3B                               l836 1D13  
                             l669 004F                               l694 1682                               l679 1A7E  
                             l768 1FE3                               l856 18A1                               l696 1659  
                             l792 0F6B                               l786 0FFF                               l798 0FF3  
                             _PR2 0092                               fsr0 0004                               indf 0000  
                    ___awmod@sign 0076                      ___flmul@aexp 0038                      ___flmul@bexp 0039  
                     _sprintf$874 00B2                      ___flmul@sign 0033                      ___flmul@temp 003E  
                    ___flmul@prod 003A           __end_of_ADC_GetAdcValue 18C3                      main@SetPoint 01C4  
                    ___fltol@exp1 005D                              l3010 0C72                              l3100 107D  
                            l3020 1842                              l3004 0BE3                              l3110 10B1  
                            l3102 108F                              l3022 1844                              l3014 1835  
                            l3006 0BEA                              l3200 181D                              l3104 109D  
                            l3040 1D9B                              l3032 1D82                              l3016 1836  
                            l3202 1825                              l3210 1C3B                              l3130 18E7  
                            l3106 109E                              l3050 1DCC                              l3042 1DAA  
                            l3026 1D66                              l3018 183C                              l3204 1827  
                            l3220 1C62                              l3140 1907                              l3132 18E9  
                            l3300 1D33                              l3124 10D2                              l3116 10B9  
                            l3108 10A7                              l3052 1DD6                              l3044 1DAC  
                            l3028 1D79                              l2500 08E7                              l3150 1B7F  
                            l3230 1C70                              l3222 1C64                              l3214 1C44  
                            l3134 18ED                              l3310 1D5D                              l3302 1D3D  
                            l3126 10E2                              l3118 10CB                              l3054 1DD7  
                            l3046 1DB5                              l3038 1D95                              l2510 08F7  
                            l2502 08E8                              l3400 18A3                              l3160 1BAD  
                            l3152 1B83                              l3144 1B5F                              l3320 1933  
                            l2600 159C                              l3240 1C99                              l3224 1C68  
                            l3232 1C82                              l3216 1C59                              l3208 1C2E  
                            l3136 18FA                              l3304 1D53                              l3080 103A  
                            l3072 1E0A                              l3064 1DF1                              l3056 1DDF  
                            l3048 1DBE                              l2440 1989                              l2520 0910  
                            l2512 08FC                              l2504 08EC                              l3402 18B0  
                            l3330 182F                              l2450 1846                              l3162 1BB6  
                            l3154 1B8C                              l3146 1B6F                              l3314 19D5  
                            l3322 1941                              l3170 1AD1                              l2610 15B2  
                            l2602 159D                              l3242 1C9E                              l3218 1C5A  
                            l3250 1B23                              l3138 1901                              l3306 1D58  
                            l3090 1050                              l3074 1E1A                              l3058 1DE9  
                            l3066 1E03                              l2442 198D                              l2522 0914  
                            l2514 0902                              l2530 0931                              l2506 08F1  
                            l3404 18B1                              l2452 1849                              l3332 1A7F  
                            l3156 1B9E                              l3148 1B72                              l3164 1BBC  
                            l3316 19DF                              l3324 1947                              l3412 1883  
                            l3172 1AED                              l3180 0050                              l2700 16BE  
                            l2620 15C3                              l2612 15B3                              l2604 159F  
                            l3252 1B27                              l3260 1B56                              l3244 1B0B  
                            l3308 1D5C                              l3092 1058                              l3084 1043  
                            l2444 199C                              l2436 1980                              l2540 000E  
                            l2460 1BCC                              l2532 0936                              l2524 091E  
                            l2516 0905                              l2508 08F3                              l3500 038F  
                            l3420 0161                              l3406 18B5                              l3326 1828  
                            l2454 1852                              l3334 1A94                              l3350 1A0D  
                            l3158 1BAC                              l3318 1932                              l3414 1888  
                            l3174 1B07                              l3190 00F8                              l3182 0074  
                            l2710 16E7                              l2702 16C2                              l2630 15E1  
                            l2622 15C8                              l2614 15B9                              l2606 15A7  
                            l3238 1C89                              l3254 1B39                              l3246 1B13  
                            l3270 1CAD                              l3094 1069                              l3078 102D  
                            l2446 19A1                              l2438 1982                              l2550 0026  
                            l2542 0014                              l2470 1BE0                              l2462 1BD1  
                            l2534 093B                              l2526 0924                              l2518 090C  
                            l3510 0436                              l3502 03D6                              l3430 017A  
                            l3422 0166                              l3408 18BC                              l3328 182B  
                            l3344 1A9B                              l3336 1A94                              l3352 1A0E  
                            l3416 188F                              l3176 1B09                              l3168 1ABD  
                            l3192 00FC                              l3184 00A1                              l2720 1755  
                            l2712 1725                              l2704 16C3                              l2640 15F5  
                            l2632 15E5                              l2624 15D0                              l2616 15BD  
                            l2608 15AC                              l3264 18C3                              l3256 1B47  
                            l3248 1B16                              l3272 1CB2                              l3096 106B  
                            l2800 0CD2                              l2552 0037                              l2544 0017  
                            l2560 004B                              l2480 1BF6                              l2472 1BE2  
                            l2464 1BD3                              l2456 1BC5                              l2528 092B  
                            l3600 07A0                              l3512 045F                              l3504 03E5  
                            l3440 01A3                              l3432 0186                              l3424 016C  
                            l3346 1AA7                              l3338 1A97                              l3354 1A1A  
                            l3362 1A34                              l3370 195F                              l3418 1893  
                            l3194 015A                              l3186 00AB                              l2730 1770  
                            l2722 175A                              l2714 172B                              l2706 16CC  
                            l2650 1609                              l2642 15F9                              l2634 15E9  
                            l2626 15D1                              l2618 15BE                              l3266 18C7  
                            l3258 1B50                              l3290 1CFC                              l3282 1CDF  
                            l3274 1CB6                              l3098 1074                              l2810 0CE7  
                            l2802 0CD8                              l2554 003D                              l2546 001E  
                            l2538 000C                              l2570 1A55                              l2490 1C19  
                            l2482 1BFA                              l2474 1BE8                              l2466 1BD7  
                            l2458 1BC8                              l3610 07CF                              l3602 07B1  
                            l3530 053A                              l3522 04AD                              l3514 0468  
                            l3506 0400                              l3442 01B6                              l3434 0187  
                            l3426 0173                              l3348 1AAF                              l3356 1A21  
                            l3372 1964                              l3700 1EF6                              l3196 015C  
                            l3188 00B0                              l2732 1775                              l2740 1781  
                            l2716 1730                              l2708 16D1                              l2660 161D  
                            l2652 160D                              l2644 15FD                              l2636 15ED  
                            l2628 15D3                              l3292 1D0A                              l3284 1CE4  
                            l3276 1CC6                              l2900 0FB3                              l2820 0D03  
                            l2812 0CEF                              l2804 0CDC                              l2556 003E  
                            l2548 0022                              l2580 1A74                              l2572 1A59  
                            l2564 1A45                              l2484 1C0B                              l2476 1BEB  
                            l2492 1C1F                              l2468 1BDC                              l3604 07B2  
                            l3540 0573                              l3516 0470                              l3508 0427  
                            l3524 04B6                              l3460 0201                              l3452 01D1  
                            l3444 01BA                              l3436 018B                              l3428 0178  
                            l3390 187A                              l3358 1A2D                              l3374 1969  
                            l3702 1EFF                              l3710 1F24                              l3630 1E2A  
                            l2734 1778                              l2726 1763                              l2718 173F  
                            l2742 1785                              l2670 165D                              l2662 1621  
                            l2654 1611                              l2646 1601                              l2638 15F1  
                            l2590 1585                              l3294 1D1A                              l3286 1CF1  
                            l3278 1CD6                              l2910 0FE7                              l2902 0FBE  
                            l2830 0D46                              l2814 0CF1                              l2806 0CDD  
                            l2558 0045                              l2574 1A5D                              l2566 1A4B  
                            l2582 1A7A                              l2494 1C24                              l2486 1C11  
                            l2478 1BF2                              l3606 07C1                              l3550 05D0  
                            l3542 057D                              l3526 04EB                              l3518 048E  
                            l3470 0257                              l3462 020F                              l3454 01ED  
                            l3438 018E                              l3446 01CB                              l3614 07D7  
                            l3392 190C                              l3368 1959                              l3384 1000  
                            l2920 1813                              l3720 1F41                              l3712 1F2A  
                            l3704 1F11                              l3640 1E3F                              l3632 1E30  
                            l2760 17CD                              l2752 1798                              l2744 1786  
                            l2736 177A                              l2728 176C                              l2680 1676  
                            l2672 1666                              l2656 1615                              l2648 1605  
                            l2664 1625                              l2592 1589                              l3296 1D25  
                            l3288 1CF8                              l2912 0FEB                              l2904 0FCD  
                            l2840 0DCF                              l2832 0D62                              l2824 0D0C  
                            l2816 0CF9                              l2808 0CE2                              l2576 1A67  
                            l2568 1A4E                              l2496 1C29                              l2488 1C12  
                            l3608 07C1                              l3560 0616                              l3552 05EF  
                            l3544 0589                              l3536 053C                              l3528 0538  
                            l3480 0298                              l3472 025B                              l3464 0213  
                            l3456 01F9                              l3616 07E9                              l3448 01CD  
                            l3800 1425                              l2930 19B4                              l3626 08E0  
                            l3386 186D                              l3394 190D                              l3378 196E  
                            l2922 181A                              l3730 1F56                              l3722 1F42  
                            l3714 1F32                              l3706 1F12                              l3650 1E57  
                            l3642 1E47                              l3634 1E34                              l2770 17E9  
                            l2762 17D6                              l2754 179D                              l2746 178A  
                            l2738 177F                              l2690 1694                              l2674 1668  
                            l2682 167A                              l2666 1626                              l2658 1619  
                            l2594 158A                              l2586 1578                              l3298 1D29  
                            l2914 0FEC                              l2906 0FD7                              l2850 0E42  
                            l2842 0DDF                              l2834 0D8E                              l2826 0D1C  
                            l2818 0CFE                              l2578 1A6D                              l3570 064D  
                            l3562 0623                              l3554 0603                              l3546 0590  
                            l3490 031F                              l3482 02AB                              l3474 0274  
                            l3466 023A                              l3458 01FD                              l3810 1483  
                            l3802 1432                              l2932 19B9                              l2924 19A7  
                            l3388 1872                              l2940 1005                              l3396 191B  
                            l3740 1F7B                              l3732 1F5A                              l3724 1F4B  
                            l3716 1F34                              l3708 1F20                              l3660 1E6C  
                            l3652 1E5D                              l3644 1E48                              l3636 1E35  
                            l3628 1E23                              l2772 17ED                              l2764 17DB  
                            l2756 17AB                              l2748 1790                              l2692 16AB  
                            l2684 1686                              l2676 166C                              l2668 163D  
                            l2596 158F                              l2588 157F                              l2916 0FF7  
                            l2908 0FD9                              l2860 0EEF                              l2852 0E5F  
                            l2844 0DFC                              l2836 0DAA                              l2828 0D29  
                            l2780 0C9F                              l3580 070C                              l3572 0654  
                            l3564 0632                              l3556 060C                              l3548 0595  
                            l3492 0346                              l3484 02AF                              l3476 027F  
                            l3468 0253                              l3820 14F0                              l3812 148C  
                            l3804 146E                              l2934 19C7                              l2926 19AC  
                            l2950 1022                              l2942 100A                              l3398 1921  
                            l3750 1FB9                              l3742 1F89                              l3734 1F6E  
                            l3718 1F3D                              l3726 1F51                              l3670 1E93  
                            l3662 1E74                              l3654 1E61                              l3638 1E3A  
                            l3646 1E4A                              l2774 17EF                              l2766 17E3  
                            l2758 17AF                              l2694 16AF                              l2686 168B  
                            l2678 166D                              l2598 1594                              l2870 0F3B  
                            l2862 0F17                              l2854 0E8C                              l2846 0E0C  
                            l2838 0DC6                              l2790 0CB6                              l2782 0CA6  
                            l3590 0781                              l3582 072B                              l3574 0658  
                            l3566 0639                              l3558 0610                              l3494 034F  
                            l3486 02B5                              l3478 0285                              l3902 01E5  
                            l3830 1569                              l3822 14FD                              l3806 1475  
                            l3814 1495                              l2936 19CB                              l2928 19B0  
                            l2952 1023                              l2944 100B                              l3904 1976  
                            l3760 1FE9                              l3752 1FC7                              l3744 1F8D  
                            l3728 1F55                              l3672 1E97                              l3664 1E75  
                            l3656 1E62                              l3648 1E52                              l2776 17FA  
                            l2768 17E8                              l2696 16B3                              l2880 0F50  
                            l2872 0F3C                              l2864 0F20                              l2856 0E9C  
                            l2848 0E29                              l2792 0CBB                              l2784 0CAC  
                            l3592 0785                              l3584 0737                              l3576 0676  
                            l3568 0648                              l3496 0378                              l3488 02D4  
                            l3824 154D                              l3816 14E7                              l3808 147A  
                            l2938 19CF                              l2954 1027                              l2946 100F  
                            l3906 1A3C                              l3762 1FED                              l3754 1FD6  
                            l3746 1FA6                              l3738 1F76                              l3690 1ED8  
                            l3682 1EAE                              l3658 1E67                              l3666 1E77  
                            l2778 17FE                              l2698 16BC                              l2890 0F75  
                            l2882 0F54                              l2874 0F45                              l2866 0F2E  
                            l2858 0EC9                              l2794 0CC3                              l2786 0CB0  
                            l2970 12B2                              l3594 078B                              l3578 06D1  
                            l3586 0772                              l3498 0380                              l3826 1555  
                            l3818 14EE                              l3770 12F6                              l2948 1014  
                            l3764 1FEF                              l3756 1FDA                              l3748 1FAC  
                            l3692 1EDA                              l3684 1EC0                              l3668 1E87  
                            l3676 1EA0                              l2892 0F83                              l2884 0F68  
                            l2868 0F37                              l2876 0F4B                              l2796 0CC5  
                            l2788 0CB1                              l2964 1201                              l2956 10EE  
                            l2980 0950                              l3588 077A                              l3596 0792  
                            l3828 155D                              l3780 1319                              l3772 12FE  
                            l3758 1FE2                              l3694 1EDF                              l3686 1EC8  
                            l3678 1EA5                              l2894 0F87                              l2878 0F4F  
                            l2798 0CCD                              l2966 1207                              l2958 10F4  
                            l2974 0943                              l3598 0798                              l3790 1344  
                            l3782 1325                              l3774 1303                              l3696 1EF1  
                            l3688 1ED0                              l2896 0FA0                              l2888 0F70  
                            l2992 0AC7                              l2976 0947                              l3792 134C  
                            l3784 132B                              l3776 1308                              l3698 1EF5  
                            l2898 0FA6                              l2986 0A38                              l2978 0949  
                            l3794 13B0                              l3786 1334                              l3778 1313  
                            l2988 0A3F                              l2996 0AF4                              l3796 1414  
                            l3788 133B                              l2998 0AFB                              l3798 1421  
                            _ADON 00F8                              STR_1 08B9                              STR_2 08CC  
                            STR_3 08A0                              STR_4 08C9                              u3100 1BCC  
                            u3101 1BCB                              u3110 1BD7                              u3111 1BD6  
                            u3120 1BE8                              u3200 08EC                              u3121 1BE7  
                            u3201 08EB                              u3210 08F7                              u4011 0DEE  
                            u3211 08F6                              u4012 0DF5                              u3140 1BFA  
                            u3220 0902                              u4101 0F09                              u4021 0E1B  
                            u4013 0DFC                              u4005 0DC8                              u3141 1BF9  
                            u3221 0901                              u3070 198D                              u4102 0F10  
                            u4022 0E22                              u3310 0026                              u3071 198C  
                            u4103 0F17                              u4023 0E29                              u3311 0025  
                            u3135 1BEC                              u4200 0F87                              u3160 1C0B  
                            u3240 0914                              u5001 0113                              u4201 0F86  
                            u4041 0E51                              u3305 0018                              u3161 1C0A  
                            u3241 0913                              u5010 015A                              u5002 0116  
                            u3090 19A1                              u4210 0F96                              u4130 0F3B  
                            u4042 0E58                              u3330 0037                              u3410 1A7A  
                            u3250 091E                              u5011 0159                              u5003 011D  
                            u3091 19A0                              u4131 0F3A                              u4115 0F19  
                            u4051 0E7E                              u4043 0E5F                              u4035 0E2B  
                            u3331 0036                              u3411 1A79                              u3155 1BFB  
                            u3251 091D                              u3235 0906                              u5004 0120  
                            u5020 1825                              u3500 15E5                              u3420 1589  
                            u4220 0FB3                              u4052 0E85                              u3180 1C1F  
                            u5005 0127                              u5021 1824                              u3501 15E4  
                            u3421 1588                              u3085 1994                              u4221 0FB2  
                            u4125 0F30                              u4061 0EAB                              u4053 0E8C  
                            u3325 0027                              u3405 1A6E                              u3181 1C1E  
                            u3165 1C07                              u5006 012A                              u3510 163D  
                            u3430 158F                              u5110 1C99                              u5030 1C3B  
                            u4230 0FCD                              u4150 0F4F                              u4070 0ED5  
                            u4062 0EB2                              u3350 004B                              u3190 1C24  
                            u3270 0931                              u5015 0156                              u3511 163C  
                            u3431 158E                              u5111 1C98                              u5031 1C3A  
                            u4231 0FCC                              u4215 0F91                              u4151 0F4E  
                            u4063 0EB9                              u3351 004A                              u3335 0033  
                            u3191 1C23                              u3175 1C13                              u3271 0930  
                            u3255 091A                              u6000 1F75                              u3520 1648  
                            u3440 1594                              u5120 1C9E                              u5040 1C52  
                            u5200 1CB6                              u4240 0FEB                              u4160 0F54  
                            u3360 1A4B                              u4320 1207                              u3280 0936  
                            u6001 1F74                              u3601 169D                              u3521 1646  
                            u3441 1593                              u5121 1C9D                              u5105 1C8B  
                            u5201 1CB5                              u4241 0FEA                              u4225 0FAF  
                            u4161 0F53                              u4145 0F3E                              u4081 0EE1  
                            u3345 003F                              u3361 1A4A                              u4321 1206  
                            u4305 116B                              u3281 0935                              u3265 0925  
                            u4250 1819                              u6010 1F7B                              u3610 16AF  
                            u3602 16A4                              u3530 1649                              u3450 15B2  
                            u5050 1C68                              u5130 1B13                              u5210 1CD6  
                            u4170 0F68                              u4090 0EFD                              u4082 0EE8  
                            u3290 0014                              u4410 0A3F                              u4251 1818  
                            u6011 1F7A                              u3611 16AE                              u3603 16AB  
                            u3515 1639                              u3451 15B1                              u5051 1C67  
                            u5131 1B12                              u5211 1CD5                              u4235 0FC9  
                            u4171 0F67                              u4083 0EEF                              u4075 0ED0  
                            u3291 0013                              u4315 11C0                              u4411 0A3E  
                            u6020 1F8D                              u3700 175A                              u3620 16B3  
                            u3540 165D                              u3460 15BD                              u5060 1C6F  
                            u5300 1D48                              u4180 0F6F                              u3380 1A5D  
                            u6100 154D                              u6021 1F8C                              u3701 1759  
                            u3621 16B2                              u3541 165C                              u3461 15BC  
                            u5061 1C6E                              u5045 1C4D                              u4181 0F6E  
                            u3381 1A5C                              u4405 09F7                              u6101 154C  
                            u6030 1F9C                              u3630 16C2                              u3550 166C  
                            u3470 15C3                              u5150 1B27                              u5310 1D58  
                            u5230 1CF7                              u4190 0F75                              u3390 1A67  
                            u6110 1555                              u3631 16C1                              u3551 166B  
                            u3471 15C2                              u5151 1B26                              u5311 1D57  
                            u5231 1CF6                              u4191 0F74                              u4095 0EF8  
                            u3391 1A66                              u3375 1A4F                              u4335 1224  
                            u6111 1554                              u6040 1FB9                              u3800 17AF  
                            u3720 1770                              u3480 15C8                              u5080 1C81  
                            u5160 1B39                              u5320 1D5C                              u4600 1DE5  
                            u4280 10F4                              u4360 0947                              u4265 19BC  
                            u6041 1FB8                              u3801 17AE                              u3721 176F  
                            u3481 15C7                              u5081 1C80                              u5161 1B38  
                            u5145 1B18                              u5321 1D5B                              u5305 1D43  
                            u5225 1CE9                              u4601 1DE4                              u4345 1271  
                            u4281 10F3                              u4505 0BFD                              u4425 0A52  
                            u4361 0946                              u5410 18BC                              u5330 19EE  
                            u6050 1FD6                              u3810 17BE                              u3730 1775  
                            u3650 16E7                              u3570 1682                              u3490 15E1  
                            u5090 1C88                              u5250 1D19                              u4610 1DE9  
                            u4530 183C                              u4450 0AFB                              u4370 0950  
                            u5411 18BB                              u4275 1017                              u6051 1FD5  
                            u6035 1F97                              u3731 1774                              u3715 1765  
                            u3651 16E6                              u3571 1681                              u3491 15E0  
                            u5091 1C87                              u5075 1C71                              u5251 1D18  
                            u4611 1DE8                              u3395 1A63                              u4355 12BD  
                            u4531 183B                              u4515 0C39                              u4451 0AFA  
                            u4435 0A8E                              u4371 094F                              u5340 1957  
                            u6060 1FED                              u5420 18A1                              u3820 17CD  
                            u3740 177F                              u3580 1686                              u5180 1B56  
                            u4620 1DF0                              u3900 0CBB                              u4540 1842  
                            u5500 02AF                              u5405 18A6                              u5341 1956  
                            u6061 1FEC                              u6045 1FB5                              u5421 18A0  
                            u3821 17CC                              u3741 177E                              u3661 16FE  
                            u3653 16E3                              u3645 16C5                              u3581 1685  
                            u3565 166F                              u5181 1B55                              u5165 1B35  
                            u5245 1D0B                              u4621 1DEF                              u3901 0CBA  
                            u4541 1841                              u4525 0C75                              u4445 0ACA  
                            u5501 02AE                              u5350 1A87                              u3830 17D6  
                            u3750 1785                              u3670 1712                              u3662 16FF  
                            u3590 168B                              u5270 1D29                              u5190 1CB2  
                            u4710 108F                              u4550 1D79                              u3910 0CDC  
                            u5510 0346                              u5430 016C                              u6070 1421  
                            u5335 19E9                              u6055 1FD2                              u3831 17D5  
                            u3815 17B9                              u3751 1784                              u3671 1713  
                            u3663 1704                              u3591 168A                              u5175 1B48  
                            u5271 1D28                              u5191 1CB1                              u4711 108E  
                            u4551 1D78                              u3911 0CDB                              u4295 1111  
                            u5511 0345                              u5431 016B                              u6127 156F  
                            u6071 1420                              u5360 1ABC                              u3840 17DB  
                            u3760 178A                              u3680 1730                              u3672 1718  
                            u3664 1705                              u5280 1D2F                              u4800 10E2  
                            u4640 1E02                              u4560 1D93                              u3920 0CE2  
                            u5600 0572                              u5520 0378                              u5440 0186  
                            u6080 14E7                              u6137 184D                              u5361 1ABB  
                            u3841 17DA                              u3761 1789                              u3681 172F  
                            u3673 1719                              u3665 170A                              u5281 1D2E  
                            u5265 1D1E                              u4801 10E1                              u4705 1076  
                            u4641 1E01                              u4561 1D92                              u3921 0CE1  
                            u4465 0B1B                              u4385 0970                              u5601 0571  
                            u5521 0377                              u5441 0185                              u6081 14E6  
                            u5370 195F                              u3850 17E8                              u3770 1790  
                            u3690 1755                              u3666 170B                              u4810 18ED  
                            u5290 1D33                              u4730 10AD                              u4650 1E09  
                            u3930 0CE7                              u4490 0BEA                              u5610 057D  
                            u5530 038F                              u5450 01CA                              u6090 14EE  
                            u6147 18B3                              u5371 195E                              u3851 17E7  
                            u3771 178F                              u3691 1754                              u4811 18EC  
                            u5291 1D32                              u4731 10AC                              u4715 108B  
                            u4651 1E08                              u4635 1DF2                              u3931 0CE6  
                            u4491 0BE9                              u4475 0B57                              u4395 09AC  
                            u5611 057C                              u5531 038E                              u5451 01C9  
                            u6091 14ED                              u6075 141D                              u5380 1872  
                            u3860 17ED                              u3780 1797                              u4740 10B1  
                            u4580 1DCC                              u3940 0CFE                              u5700 0779  
                            u5620 0589                              u5540 03E5                              u5460 01F9  
                            _RCIF 0065                              u5381 1871                              u5365 1AB8  
                            u3861 17EC                              u3781 1796                              u4741 10B0  
                            u4725 10A0                              u4581 1DCB                              u3941 0CFD  
                            u4485 0BA2                              u5701 0778                              u5621 0588  
                            u5605 056E                              u5541 03E4                              u5461 01F8  
                            u5390 1931                              u4910 1BBC                              u3870 17FE  
                            u3790 179D                              u4750 10B8                              u4670 1E1A  
                            u3950 0D03                              u5710 0791                              u5550 0400  
                            u5470 01FD                              u5391 1930                              u4911 1BBB  
                            u3871 17FD                              u3791 179C                              u4751 10B7  
                            u4671 1E19                              u4575 1DB7                              u3951 0D02  
                            u5711 0790                              u5551 03FF                              u5535 038B  
                            u5471 01FC                              u5800 1E3F                              u4920 1AD1  
                            u4840 1907                              u4680 103A                              u3880 0CB0  
                            u5720 0798                              u5640 0602                              u5560 0427  
                            u5480 023A                              u4905 1BAE                              u5801 1E3E  
                            u4921 1AD0                              u4841 1906                              u4825 18F4  
                            u4681 1039                              u4665 1E0C                              u4585 1DC8  
                            u3961 0D54                              u3881 0CAF                              u5721 0797  
                            u5641 0601                              u5561 0426                              u5545 03E1  
                            u5481 0239                              u4850 1B6F                              u5810 1E61  
                            u4930 1AED                              u4770 10CA                              u4690 104E  
                            u3962 0D5B                              u3890 0CB6                              u5730 07A0  
                            u5650 0623                              u5570 0436                              u5490 0274  
                            u4851 1B6E                              u5811 1E60                              u4931 1AEC  
                            u4835 18FB                              u4771 10C9                              u4691 104D  
                            u4595 1DD8                              u3971 0D70                              u3963 0D62  
                            u3891 0CB5                              u5731 079F                              u5651 0622  
                            u5635 0598                              u5571 0435                              u5491 0273  
                            u5820 1E67                              u4940 1B07                              u4780 10D1  
                            u3972 0D77                              u5740 07B1                              u5660 0632  
                            u5580 045F                              u5821 1E66                              u4941 1B06  
                            u4781 10D0                              u4765 10BA                              u3981 0D9C  
                            u3973 0D7E                              u5741 07B0                              u5661 0631  
                            u5581 045E                              u4870 1B83                              u5910 1F11  
                            u5830 1E6C                              u4950 0074                              u3982 0DA3  
                            u5750 07C1                              u5670 064D                              u4871 1B82  
                            u5911 1F10                              u5831 1E6B                              u4951 0073  
                            u3991 0DB8                              u3983 0DAA                              u5751 07C0  
                            u5671 064C                              u5655 061F                              u5575 0432  
                            u5920 1F2A                              u5840 1E87                              u4960 00A1  
                            u3992 0DBF                              u5760 07CF                              u4865 1B74  
                            u5921 1F29                              u5905 1EF8                              u5841 1E86  
                            u4945 1B03                              u4961 00A0                              u3993 0DC6  
                            u5761 07CE                              u5745 07AD                              u5665 062E  
                            u4890 1B9E                              u5930 1F32                              u5850 1EA5  
                            u4970 00B0                              u5770 07E9                              u4891 1B9D  
                            u5931 1F31                              u5915 1F0D                              u5851 1EA4  
                            u4971 00AF                              u4795 10D4                              u5771 07E8  
                            u5755 07BD                              u5595 053F                              u5860 1EDF  
                            u5780 1E34                              u4885 1B85                              u5861 1EDE  
                            u5781 1E33                              u4981 00C7                              u5685 06D4  
                            u5950 1F41                              u5790 1E3A                              u4990 00FC  
                            u4982 00CA                              u4895 1B9A                              u5951 1F40  
                            u5791 1E39                              u4991 00FB                              u4983 00D1  
                            u5695 073A                              u4984 00D4                              u5945 1F36  
                            u4985 00DB                              u5970 1F55                              u5890 1EF5  
                            u4986 00DE                              u5971 1F54                              u5891 1EF4  
                            u5875 1EE1                              u5980 1F5A                              u5981 1F59  
                            u5965 1F44                              u5885 1EEA                              u5990 1F6E  
                            u5991 1F6D                              _TXIF 0064                       LCD_GoToXY@X 0075  
                     LCD_GoToXY@Y 0074                              _main 12F6                              btemp 007E  
                __end_of_ADC_Init 1834                     main@DutyCycle 01CC              __end_of_Lcd_CmdWrite 19D5  
                            start 0000                   ___fldiv@new_exp 0052                  __end_of_LCD_Init 1ABD  
                   ___fltol@sign1 005C                   __end_of___fladd 1800                             ?_main 0070  
                 __end_of___fldiv 2000                   __end_of___awdiv 1C2E                   __end_of___flneg 1828  
                 __end_of___awmod 0940                   __end_of___flmul 1000                   __end_of___flsub 18E7  
                 __end_of___fltol 1CAA                   __end_of___lldiv 1BC5                   ___awdiv@divisor 0077  
                 __end_of___llmod 1B5F                   __end_of___lwdiv 0050                   __end_of___lwmod 1A7F  
                 ___awdiv@counter 0020                             _RCREG 001A                             _RCSTA 0018  
                           _SPBRG 0099                             _PORTD 0008                             _TRISA 0085  
                           _TRISC 0087                             _TRISD 0088                             _TXREG 0019  
                           _TXSTA 0098                   __end_of_dpowers 08A0                             _scale 0940  
                 __end_of_isdigit 1846             __end_of_Lcd_DataWrite 102D                             pclath 000A  
                __end_of_PWM_Init 1A45                             status 0003                             wtemp0 007E  
                 __end_of_sprintf 07EE                   __initialization 07EE                      __end_of_main 1578  
                          ??_main 00CB                 __end_of_LCD_Clear 08E7                 __end_of_LCD_Print 1932  
                    LCD_Print@Str 0074                  ?_ADC_GetAdcValue 0070                            _ADCON0 001F  
                          _ADCON1 009F                  ___llmod@dividend 0074                            ?_scale 0040  
                          _ADRESH 001E                            _ADRESL 009E                            _CCPR1L 0015  
                          _CCPR2L 001B                  ___awdiv@dividend 0079          __end_of_PWM_SetDutyCycle 197F  
         PWM_SetDutyCycle@channel 0073                            _TMR2ON 0092                  __end_of___xxtofl 1D66  
                    ?_UART_TxChar 0070                  __end_of__powers_ 0844                 __end_of_UART_Init 1A0C  
                          ___flge 0050                            ___fleq 1ABD                         ??___fladd 005C  
                          ___wmul 18E7                         ??___fldiv 0048                         ??___awdiv 007B  
                       ??___flneg 0074                         ??___awmod 0074                         ??___flmul 002E  
                       ??___flsub 007E                         ??___fltol 0057                         ??___lldiv 0078  
                       ??___llmod 0078                         ??___lwdiv 007A                         ??___lwmod 0074  
                          _memset 1882                            _fround 10EB                  ___awdiv@quotient 0022  
                 ___awmod@divisor 0070                   ___awmod@counter 0075                         ??_isdigit 0070  
                       ?_ADC_Init 0070                 __end_of_PWM_Start 1004                     LCD_Init@F1004 00CF  
                       ??_sprintf 00AD                        ___flge@ff1 0068                        ___flge@ff2 006C  
                    ___xxtofl@arg 0022                      ___xxtofl@exp 0021                      ___xxtofl@val 0074  
                      ___fleq@ff1 0070                        ___fleq@ff2 0074           __end_of__initialization 07FC  
                       ?_LCD_Init 0070                        ___flneg@f1 0070                        ___fltol@f1 0053  
                       LCD_Init@i 0027                    __pcstackCOMMON 0070                      ??_LCD_GoToXY 0075  
                    ??_LCD_Enable 0070                      __pidataBANK1 0005                     __end_of_scale 0C9F  
                       ?_PWM_Init 0070                        __div_to_l_ 102D                      _Lcd_CmdWrite 19A6  
                      ??_ADC_Init 0070                   __div_to_l_@exp1 0025                   __div_to_l_@cntr 0024  
                         ??_scale 0044                   __div_to_l_@quot 0020                __end_of_LCD_GoToXY 1882  
              __end_of_LCD_Enable 1859                        ??_LCD_Init 0074                     __div_to_l_@f1 0070  
                   __div_to_l_@f2 0074                 __end_of__Umul8_16 19A6                        __pmaintext 12F6  
                         ?___flge 0068                           ?___fleq 0070                           ?___wmul 0070  
                         _CCP1CON 0017                           _CCP2CON 001D                           ?_memset 0070  
                         ?_fround 0040                        ??_PWM_Init 0070                         ?___xxtofl 0074  
                         _GO_DONE 00FA         PWM_SetDutyCycle@dutyCycle 0070                        __stringtab 0800  
                   ?_UART_SendTxt 0071                 __end_of__npowers_ 0878                           ___fladd 1578  
                         ___fldiv 1E23                           ___awdiv 1BC5                           ___flneg 181D  
                         ___awmod 08E7                           ___flmul 0C9F                           ___flsub 18C3  
                         ___fltol 1C2E                           ___lldiv 1B5F                           ___llmod 1B0B  
                         ___lwdiv 000C                        _fround$871 004F                        _fround$872 004B  
                         ___lwmod 1A45                  Lcd_DataWrite@dat 0073                           __ptext1 015E  
                         __ptext2 0940                           __ptext3 08E7                           __ptext4 1BC5  
                         __ptext5 1834                           __ptext6 10EB                           __ptext7 1A45  
                         __ptext8 000C                           __ptext9 0C9F                       ?__div_to_l_ 0070  
                         _dpowers 0878                           _isdigit 1834                        ??___xxtofl 0078  
                ___awmod@dividend 0072                         _LCD_Clear 08E0                           main@Str 0190  
                       _LCD_Print 190C                           _sprintf 015E              end_of_initialization 07FC  
                         memset@c 0070                 ?_PWM_SetDutyCycle 0070                    ??_UART_SendTxt 0073  
                         memset@n 0072                           memset@p 0076                ??_PWM_SetDutyCycle 0071  
                 ___lldiv@divisor 0070                   ___lldiv@counter 007D                    __tdiv_to_l_@f1 0070  
                  __tdiv_to_l_@f2 0074                         _UART_Init 19D5                     ??__tdiv_to_l_ 0078  
ADC_GetAdcValue@var_adcChannel_u8 0073                       ___fladd@grs 0067                     ___xxtofl@sign 0020  
                      ?_LCD_Clear 0070                       ___fldiv@grs 0054                       ___fldiv@rem 004D  
                      ?_LCD_Print 0074                         _PWM_Start 1000                  PWM_Start@channel 0070  
                     ___flmul@grs 0034                    __end_of___flge 015E                    __end_of___fleq 1B0B  
                  __end_of___wmul 190C                        ?_UART_Init 0020                    __end_of_memset 18A2  
                  __end_of_fround 12F6               start_initialization 07EE               __end_of__tdiv_to_l_ 1E23  
                      ?_PWM_Start 0070                     _Lcd_DataWrite 1004                   ___llmod@divisor 0070  
                 ___llmod@counter 0079                          ??___flge 00A0                          ??___fleq 0078  
                        ??___wmul 0074                        init_fetch0 1859                         __Umul8_16 197F  
                     __pdataBANK1 00CF                          ??_memset 0074                          ??_fround 0044  
                   sprintf@tmpval 00BF              __end_of_UART_SendTxt 1958                         ___fladd@a 0058  
                       ___fladd@b 0054                        fround@prec 0053                         ___fldiv@a 0040  
                       ___fldiv@b 0044                         ___flmul@a 002A                         ___flmul@b 0026  
                       ___flsub@a 0068                         ___flsub@b 006C                         ___latbits 0002  
                   __pcstackBANK0 0020                     __pcstackBANK1 00A0                     __pcstackBANK3 0190  
                     ??_LCD_Clear 0074                       ??_LCD_Print 0076                    ?_Lcd_DataWrite 0070  
                     sprintf@flag 00B7                       sprintf@eexp 00BD                       sprintf@fval 00C6  
                     sprintf@prec 00C4                  ___lwdiv@dividend 0078                          ?___fladd 0054  
                        ?___fldiv 0040                          ?___awdiv 0077                          ?___flneg 0070  
                        ?___awmod 0070                          ?___flmul 0026                          ?___flsub 0068  
                        ?___fltol 0053                          ?___lldiv 0070                 ??_ADC_GetAdcValue 0072  
                        ?___llmod 0070                         __npowers_ 0844                        ?__Umul8_16 0070  
                        ?___lwdiv 0076                          ?___lwmod 0070                       ??_UART_Init 0022  
                       __pstrings 0800                       __tdiv_to_l_ 1D66                      ??__div_to_l_ 0078  
                        ?_isdigit 0070                          _ADC_Init 1828                         _scale$873 004E  
                   UART_TxChar@ch 0070                  ___lwdiv@quotient 007B                          ?_sprintf 00A4  
                     ??_PWM_Start 0070                          _LCD_Init 1A7F                    ___wmul@product 0074  
                   ??_UART_TxChar 0070                __end_of__div_to_l_ 10EB                 UART_Init@baudRate 0020  
                 Lcd_CmdWrite@cmd 0073                         main@Count 01C2                       __stringbase 080F  
                        _PWM_Init 1A0C                 ___wmul@multiplier 0070                   ??_Lcd_DataWrite 0072  
                 UART_SendTxt@Str 0071                       ??__Umul8_16 0072               __end_of_UART_TxChar 181D  
              __end_of__stringtab 0810                   PWM_Init@channel 0072                       _isdigit$684 0070  
                   ?_Lcd_CmdWrite 0070                        sprintf@val 00B9                          ___xxtofl 1CAA  
                 ___lwdiv@divisor 0076                   ___lwdiv@counter 007D                          __ptext10 197F  
                        __ptext11 1D66                          __ptext20 0050                          __ptext12 102D  
                        __ptext21 1ABD                          __ptext13 1CAA                          __ptext30 1A0C  
                        __ptext22 1882                          __ptext14 18E7                          __ptext31 190C  
                        __ptext23 1E23                          __ptext15 1B0B                          __ptext32 1004  
                        __ptext24 1932                          __ptext16 1C2E                          __ptext33 1A7F  
                        __ptext25 1812                          __ptext17 18C3                          __ptext34 186C  
                        __ptext26 19D5                          __ptext18 1578                          __ptext35 08E0  
                        __ptext27 1B5F                          __ptext19 181D                          __ptext36 19A6  
                        __ptext28 1000                          __ptext37 1846                          __ptext29 1958  
                        __ptext38 1828                          __ptext39 18A2                          __powers_ 0810  
                    _UART_SendTxt 1932                        _LCD_GoToXY 186C                        _LCD_Enable 1846  
                  ??_Lcd_CmdWrite 0072                          init_ram0 185D                          isdigit@c 0071  
                        memset@p1 0075                          scale@scl 0052                         sprintf@ap 00B6  
                __tdiv_to_l_@exp1 0025                  __tdiv_to_l_@cntr 0024                         sprintf@sp 00C3  
                __tdiv_to_l_@quot 0020                  ___lwmod@dividend 0072                   _ADC_GetAdcValue 18A2  
                ___lldiv@dividend 0074                         stringcode 080A                       _UART_TxChar 1812  
                _PWM_SetDutyCycle 1958                      ?__tdiv_to_l_ 0070            __Umul8_16@multiplicand 0070  
                        sprintf@c 00CA                          sprintf@f 00A4                  ___lldiv@quotient 0079  
                 ___lwmod@divisor 0070                   ___lwmod@counter 0075                          stringdir 080A  
                        stringtab 0800                     ___fladd@signs 0064                  LCD_Init@Commands 0020  
                    ___fladd@aexp 0065                      ___fladd@bexp 0066              __Umul8_16@multiplier 0078  
               __Umul8_16@product 0074                      main@FeedBack 01C8  
