

Microchip MPLAB XC8 Assembler V2.35 build 20211206165544 
                                                                                               Fri Jan 06 21:46:48 2023

Microchip MPLAB XC8 C Compiler v2.35 (Free license) build 20211206165544 Og1 
     1                           	processor	16F877A
     2                           	pagewidth 120
     3                           	opt	flic
     4                           	psect	idataBANK0,global,class=CODE,delta=2,noexec
     5                           	psect	strings,global,class=STRING,delta=2,noexec
     6                           	psect	cinit,global,class=CODE,merge=1,delta=2
     7                           	psect	dataBANK0,global,class=BANK0,space=1,delta=1,noexec
     8                           	psect	inittext,global,class=CODE,delta=2
     9                           	psect	cstackBANK1,global,class=BANK1,space=1,delta=1,noexec
    10                           	psect	cstackCOMMON,global,class=COMMON,space=1,delta=1,noexec
    11                           	psect	cstackBANK0,global,class=BANK0,space=1,delta=1,noexec
    12                           	psect	maintext,global,class=CODE,split=1,delta=2
    13                           	psect	text1,local,class=CODE,merge=1,delta=2,group=1
    14                           	psect	text2,local,class=CODE,merge=1,delta=2,group=1
    15                           	psect	text3,local,class=CODE,merge=1,delta=2,group=1
    16                           	psect	text4,local,class=CODE,merge=1,delta=2,group=1
    17                           	psect	text5,local,class=CODE,merge=1,delta=2,group=1
    18                           	psect	text6,local,class=CODE,merge=1,delta=2,group=1
    19                           	psect	text7,local,class=CODE,merge=1,delta=2,group=1
    20                           	psect	text8,local,class=CODE,merge=1,delta=2
    21                           	psect	text9,local,class=CODE,merge=1,delta=2
    22                           	psect	text10,local,class=CODE,merge=1,delta=2
    23                           	psect	text11,local,class=CODE,merge=1,delta=2,group=1
    24                           	psect	text12,local,class=CODE,merge=1,delta=2
    25                           	psect	text13,local,class=CODE,merge=1,delta=2,group=1
    26                           	psect	text14,local,class=CODE,merge=1,delta=2,group=1
    27                           	psect	text15,local,class=CODE,merge=1,delta=2
    28                           	psect	text16,local,class=CODE,merge=1,delta=2
    29                           	psect	text17,local,class=CODE,merge=1,delta=2
    30                           	psect	text18,local,class=CODE,merge=1,delta=2
    31                           	psect	text19,local,class=CODE,merge=1,delta=2
    32                           	psect	text20,local,class=CODE,merge=1,delta=2
    33                           	psect	text21,local,class=CODE,merge=1,delta=2
    34                           	psect	text22,local,class=CODE,merge=1,delta=2
    35                           	psect	text23,local,class=CODE,merge=1,delta=2
    36                           	psect	text24,local,class=CODE,merge=1,delta=2
    37                           	psect	text25,local,class=CODE,merge=1,delta=2
    38                           	psect	text26,local,class=CODE,merge=1,delta=2
    39                           	psect	config,global,abs,ovrld,class=CONFIG,space=4,delta=2,noexec
    40                           	dabs	1,0x7E,2
    41  0000                     
    42                           ; Version 2.20
    43                           ; Generated 12/02/2020 GMT
    44                           ; 
    45                           ; Copyright © 2020, Microchip Technology Inc. and its subsidiaries ("Microchip")
    46                           ; All rights reserved.
    47                           ; 
    48                           ; This software is developed by Microchip Technology Inc. and its subsidiaries ("Microch
      +                          ip").
    49                           ; 
    50                           ; Redistribution and use in source and binary forms, with or without modification, are
    51                           ; permitted provided that the following conditions are met:
    52                           ; 
    53                           ;     1. Redistributions of source code must retain the above copyright notice, this lis
      +                          t of
    54                           ;        conditions and the following disclaimer.
    55                           ; 
    56                           ;     2. Redistributions in binary form must reproduce the above copyright notice, this 
      +                          list
    57                           ;        of conditions and the following disclaimer in the documentation and/or other
    58                           ;        materials provided with the distribution.
    59                           ; 
    60                           ;     3. Microchip's name may not be used to endorse or promote products derived from th
      +                          is
    61                           ;        software without specific prior written permission.
    62                           ; 
    63                           ; THIS SOFTWARE IS PROVIDED BY MICROCHIP "AS IS" AND ANY EXPRESS OR IMPLIED WARRANTIES,
    64                           ; INCLUDING, BUT NOT LIMITED TO, THE IMPLIED WARRANTIES OF MERCHANTABILITY AND FITNESS F
      +                          OR
    65                           ; PURPOSE ARE DISCLAIMED.  IN NO EVENT SHALL MICROCHIP BE LIABLE FOR ANY DIRECT, INDIREC
      +                          T,
    66                           ; INCIDENTAL, SPECIAL, EXEMPLARY, OR CONSEQUENTIAL DAMAGES (INCLUDING BUT NOT LIMITED TO
    67                           ; PROCUREMENT OF SUBSTITUTE GOODS OR SERVICES; LOSS OF USE, DATA OR PROFITS; OR BUSINESS
    68                           ; INTERRUPTION) HOWSOEVER CAUSED AND ON ANY THEORY OF LIABILITY, WHETHER IN CONTRACT, ST
      +                          RICT
    69                           ; LIABILITY, OR TORT (INCLUDING NEGLIGENCE OR OTHERWISE) ARISING IN ANY WAY OUT OF THE U
      +                          SE OF
    70                           ; THIS SOFTWARE, EVEN IF ADVISED OF THE POSSIBILITY OF SUCH DAMAGE.
    71                           ; 
    72                           ; 
    73                           ; Code-generator required, PIC16F877A Definitions
    74                           ; 
    75                           ; SFR Addresses
    76  0000                     	;# 
    77  0001                     	;# 
    78  0002                     	;# 
    79  0003                     	;# 
    80  0004                     	;# 
    81  0005                     	;# 
    82  0006                     	;# 
    83  0007                     	;# 
    84  0008                     	;# 
    85  0009                     	;# 
    86  000A                     	;# 
    87  000B                     	;# 
    88  000C                     	;# 
    89  000D                     	;# 
    90  000E                     	;# 
    91  000E                     	;# 
    92  000F                     	;# 
    93  0010                     	;# 
    94  0011                     	;# 
    95  0012                     	;# 
    96  0013                     	;# 
    97  0014                     	;# 
    98  0015                     	;# 
    99  0015                     	;# 
   100  0016                     	;# 
   101  0017                     	;# 
   102  0018                     	;# 
   103  0019                     	;# 
   104  001A                     	;# 
   105  001B                     	;# 
   106  001B                     	;# 
   107  001C                     	;# 
   108  001D                     	;# 
   109  001E                     	;# 
   110  001F                     	;# 
   111  0081                     	;# 
   112  0085                     	;# 
   113  0086                     	;# 
   114  0087                     	;# 
   115  0088                     	;# 
   116  0089                     	;# 
   117  008C                     	;# 
   118  008D                     	;# 
   119  008E                     	;# 
   120  0091                     	;# 
   121  0092                     	;# 
   122  0093                     	;# 
   123  0094                     	;# 
   124  0098                     	;# 
   125  0099                     	;# 
   126  009C                     	;# 
   127  009D                     	;# 
   128  009E                     	;# 
   129  009F                     	;# 
   130  010C                     	;# 
   131  010D                     	;# 
   132  010E                     	;# 
   133  010F                     	;# 
   134  018C                     	;# 
   135  018D                     	;# 
   136  0000                     	;# 
   137  0001                     	;# 
   138  0002                     	;# 
   139  0003                     	;# 
   140  0004                     	;# 
   141  0005                     	;# 
   142  0006                     	;# 
   143  0007                     	;# 
   144  0008                     	;# 
   145  0009                     	;# 
   146  000A                     	;# 
   147  000B                     	;# 
   148  000C                     	;# 
   149  000D                     	;# 
   150  000E                     	;# 
   151  000E                     	;# 
   152  000F                     	;# 
   153  0010                     	;# 
   154  0011                     	;# 
   155  0012                     	;# 
   156  0013                     	;# 
   157  0014                     	;# 
   158  0015                     	;# 
   159  0015                     	;# 
   160  0016                     	;# 
   161  0017                     	;# 
   162  0018                     	;# 
   163  0019                     	;# 
   164  001A                     	;# 
   165  001B                     	;# 
   166  001B                     	;# 
   167  001C                     	;# 
   168  001D                     	;# 
   169  001E                     	;# 
   170  001F                     	;# 
   171  0081                     	;# 
   172  0085                     	;# 
   173  0086                     	;# 
   174  0087                     	;# 
   175  0088                     	;# 
   176  0089                     	;# 
   177  008C                     	;# 
   178  008D                     	;# 
   179  008E                     	;# 
   180  0091                     	;# 
   181  0092                     	;# 
   182  0093                     	;# 
   183  0094                     	;# 
   184  0098                     	;# 
   185  0099                     	;# 
   186  009C                     	;# 
   187  009D                     	;# 
   188  009E                     	;# 
   189  009F                     	;# 
   190  010C                     	;# 
   191  010D                     	;# 
   192  010E                     	;# 
   193  010F                     	;# 
   194  018C                     	;# 
   195  018D                     	;# 
   196  0000                     	;# 
   197  0001                     	;# 
   198  0002                     	;# 
   199  0003                     	;# 
   200  0004                     	;# 
   201  0005                     	;# 
   202  0006                     	;# 
   203  0007                     	;# 
   204  0008                     	;# 
   205  0009                     	;# 
   206  000A                     	;# 
   207  000B                     	;# 
   208  000C                     	;# 
   209  000D                     	;# 
   210  000E                     	;# 
   211  000E                     	;# 
   212  000F                     	;# 
   213  0010                     	;# 
   214  0011                     	;# 
   215  0012                     	;# 
   216  0013                     	;# 
   217  0014                     	;# 
   218  0015                     	;# 
   219  0015                     	;# 
   220  0016                     	;# 
   221  0017                     	;# 
   222  0018                     	;# 
   223  0019                     	;# 
   224  001A                     	;# 
   225  001B                     	;# 
   226  001B                     	;# 
   227  001C                     	;# 
   228  001D                     	;# 
   229  001E                     	;# 
   230  001F                     	;# 
   231  0081                     	;# 
   232  0085                     	;# 
   233  0086                     	;# 
   234  0087                     	;# 
   235  0088                     	;# 
   236  0089                     	;# 
   237  008C                     	;# 
   238  008D                     	;# 
   239  008E                     	;# 
   240  0091                     	;# 
   241  0092                     	;# 
   242  0093                     	;# 
   243  0094                     	;# 
   244  0098                     	;# 
   245  0099                     	;# 
   246  009C                     	;# 
   247  009D                     	;# 
   248  009E                     	;# 
   249  009F                     	;# 
   250  010C                     	;# 
   251  010D                     	;# 
   252  010E                     	;# 
   253  010F                     	;# 
   254  018C                     	;# 
   255  018D                     	;# 
   256  0000                     	;# 
   257  0001                     	;# 
   258  0002                     	;# 
   259  0003                     	;# 
   260  0004                     	;# 
   261  0005                     	;# 
   262  0006                     	;# 
   263  0007                     	;# 
   264  0008                     	;# 
   265  0009                     	;# 
   266  000A                     	;# 
   267  000B                     	;# 
   268  000C                     	;# 
   269  000D                     	;# 
   270  000E                     	;# 
   271  000E                     	;# 
   272  000F                     	;# 
   273  0010                     	;# 
   274  0011                     	;# 
   275  0012                     	;# 
   276  0013                     	;# 
   277  0014                     	;# 
   278  0015                     	;# 
   279  0015                     	;# 
   280  0016                     	;# 
   281  0017                     	;# 
   282  0018                     	;# 
   283  0019                     	;# 
   284  001A                     	;# 
   285  001B                     	;# 
   286  001B                     	;# 
   287  001C                     	;# 
   288  001D                     	;# 
   289  001E                     	;# 
   290  001F                     	;# 
   291  0081                     	;# 
   292  0085                     	;# 
   293  0086                     	;# 
   294  0087                     	;# 
   295  0088                     	;# 
   296  0089                     	;# 
   297  008C                     	;# 
   298  008D                     	;# 
   299  008E                     	;# 
   300  0091                     	;# 
   301  0092                     	;# 
   302  0093                     	;# 
   303  0094                     	;# 
   304  0098                     	;# 
   305  0099                     	;# 
   306  009C                     	;# 
   307  009D                     	;# 
   308  009E                     	;# 
   309  009F                     	;# 
   310  010C                     	;# 
   311  010D                     	;# 
   312  010E                     	;# 
   313  010F                     	;# 
   314  018C                     	;# 
   315  018D                     	;# 
   316  0000                     	;# 
   317  0001                     	;# 
   318  0002                     	;# 
   319  0003                     	;# 
   320  0004                     	;# 
   321  0005                     	;# 
   322  0006                     	;# 
   323  0007                     	;# 
   324  0008                     	;# 
   325  0009                     	;# 
   326  000A                     	;# 
   327  000B                     	;# 
   328  000C                     	;# 
   329  000D                     	;# 
   330  000E                     	;# 
   331  000E                     	;# 
   332  000F                     	;# 
   333  0010                     	;# 
   334  0011                     	;# 
   335  0012                     	;# 
   336  0013                     	;# 
   337  0014                     	;# 
   338  0015                     	;# 
   339  0015                     	;# 
   340  0016                     	;# 
   341  0017                     	;# 
   342  0018                     	;# 
   343  0019                     	;# 
   344  001A                     	;# 
   345  001B                     	;# 
   346  001B                     	;# 
   347  001C                     	;# 
   348  001D                     	;# 
   349  001E                     	;# 
   350  001F                     	;# 
   351  0081                     	;# 
   352  0085                     	;# 
   353  0086                     	;# 
   354  0087                     	;# 
   355  0088                     	;# 
   356  0089                     	;# 
   357  008C                     	;# 
   358  008D                     	;# 
   359  008E                     	;# 
   360  0091                     	;# 
   361  0092                     	;# 
   362  0093                     	;# 
   363  0094                     	;# 
   364  0098                     	;# 
   365  0099                     	;# 
   366  009C                     	;# 
   367  009D                     	;# 
   368  009E                     	;# 
   369  009F                     	;# 
   370  010C                     	;# 
   371  010D                     	;# 
   372  010E                     	;# 
   373  010F                     	;# 
   374  018C                     	;# 
   375  018D                     	;# 
   376  0000                     	;# 
   377  0001                     	;# 
   378  0002                     	;# 
   379  0003                     	;# 
   380  0004                     	;# 
   381  0005                     	;# 
   382  0006                     	;# 
   383  0007                     	;# 
   384  0008                     	;# 
   385  0009                     	;# 
   386  000A                     	;# 
   387  000B                     	;# 
   388  000C                     	;# 
   389  000D                     	;# 
   390  000E                     	;# 
   391  000E                     	;# 
   392  000F                     	;# 
   393  0010                     	;# 
   394  0011                     	;# 
   395  0012                     	;# 
   396  0013                     	;# 
   397  0014                     	;# 
   398  0015                     	;# 
   399  0015                     	;# 
   400  0016                     	;# 
   401  0017                     	;# 
   402  0018                     	;# 
   403  0019                     	;# 
   404  001A                     	;# 
   405  001B                     	;# 
   406  001B                     	;# 
   407  001C                     	;# 
   408  001D                     	;# 
   409  001E                     	;# 
   410  001F                     	;# 
   411  0081                     	;# 
   412  0085                     	;# 
   413  0086                     	;# 
   414  0087                     	;# 
   415  0088                     	;# 
   416  0089                     	;# 
   417  008C                     	;# 
   418  008D                     	;# 
   419  008E                     	;# 
   420  0091                     	;# 
   421  0092                     	;# 
   422  0093                     	;# 
   423  0094                     	;# 
   424  0098                     	;# 
   425  0099                     	;# 
   426  009C                     	;# 
   427  009D                     	;# 
   428  009E                     	;# 
   429  009F                     	;# 
   430  010C                     	;# 
   431  010D                     	;# 
   432  010E                     	;# 
   433  010F                     	;# 
   434  018C                     	;# 
   435  018D                     	;# 
   436                           
   437                           	psect	idataBANK0
   438  17A9                     __pidataBANK0:
   439                           
   440                           ;initializer for LCD_Init@F1012
   441  17A9  3402               	retlw	2
   442  17AA  3428               	retlw	40
   443  17AB  340E               	retlw	14
   444  17AC  3401               	retlw	1
   445  17AD  3480               	retlw	128
   446  17AE  3480               	retlw	128
   447  17AF  3400               	retlw	0
   448  001E                     _ADRESH	set	30
   449  001F                     _ADCON0	set	31
   450  001A                     _RCREG	set	26
   451  0019                     _TXREG	set	25
   452  0018                     _RCSTA	set	24
   453  001B                     _CCPR2L	set	27
   454  001D                     _CCP2CON	set	29
   455  0015                     _CCPR1L	set	21
   456  0017                     _CCP1CON	set	23
   457  0008                     _PORTD	set	8
   458  0007                     _PORTC	set	7
   459  00FA                     _GO_DONE	set	250
   460  00FA                     _GO	set	250
   461  00F8                     _ADON	set	248
   462  0065                     _RCIF	set	101
   463  0064                     _TXIF	set	100
   464  0092                     _TMR2ON	set	146
   465  009E                     _ADRESL	set	158
   466  0085                     _TRISA	set	133
   467  009F                     _ADCON1	set	159
   468  0099                     _SPBRG	set	153
   469  0098                     _TXSTA	set	152
   470  0092                     _PR2	set	146
   471  0088                     _TRISD	set	136
   472  0087                     _TRISC	set	135
   473                           
   474                           	psect	strings
   475  0800                     __pstrings:
   476  0800                     stringtab:
   477  0800                     __stringtab:
   478                           
   479                           ;	String table - string pointers are 1 byte each
   480  0800  1BFF               	btfsc	btemp+1,7
   481  0801  280A               	ljmp	stringcode
   482  0802  1383               	bcf	3,7
   483  0803  187F               	btfsc	btemp+1,0
   484  0804  1783               	bsf	3,7
   485  0805  0800               	movf	0,w
   486  0806  0A84               	incf	4,f
   487  0807  1903               	skipnz
   488  0808  0AFF               	incf	btemp+1,f
   489  0809  0008               	return
   490  080A                     stringcode:
   491  080A                     stringdir:
   492  080A  3008               	movlw	high stringdir
   493  080B  008A               	movwf	10
   494  080C  0804               	movf	4,w
   495  080D  0A84               	incf	4,f
   496  080E  0782               	addwf	2,f
   497  080F                     __stringbase:
   498  080F  3400               	retlw	0
   499  0810                     __end_of__stringtab:
   500  0810                     STR_1:
   501  0810  3420               	retlw	32	;' '
   502  0811  3420               	retlw	32	;' '
   503  0812  3420               	retlw	32	;' '
   504  0813  3420               	retlw	32	;' '
   505  0814  3420               	retlw	32	;' '
   506  0815  3420               	retlw	32	;' '
   507  0816  3441               	retlw	65	;'A'
   508  0817  3453               	retlw	83	;'S'
   509  0818  3454               	retlw	84	;'T'
   510  0819  3420               	retlw	32	;' '
   511  081A  3420               	retlw	32	;' '
   512  081B  3420               	retlw	32	;' '
   513  081C  3420               	retlw	32	;' '
   514  081D  3420               	retlw	32	;' '
   515  081E  3420               	retlw	32	;' '
   516  081F  3420               	retlw	32	;' '
   517  0820  340D               	retlw	13
   518  0821  340A               	retlw	10
   519  0822  3400               	retlw	0
   520  0823                     STR_2:
   521  0823  3420               	retlw	32	;' '
   522  0824  3420               	retlw	32	;' '
   523  0825  3420               	retlw	32	;' '
   524  0826  3420               	retlw	32	;' '
   525  0827  3420               	retlw	32	;' '
   526  0828  3420               	retlw	32	;' '
   527  0829  3441               	retlw	65	;'A'
   528  082A  3453               	retlw	83	;'S'
   529  082B  3454               	retlw	84	;'T'
   530  082C  3420               	retlw	32	;' '
   531  082D  3420               	retlw	32	;' '
   532  082E  3420               	retlw	32	;' '
   533  082F  3420               	retlw	32	;' '
   534  0830  3420               	retlw	32	;' '
   535  0831  3420               	retlw	32	;' '
   536  0832  3420               	retlw	32	;' '
   537  0833  3400               	retlw	0
   538  0834                     STR_3:
   539  0834  3453               	retlw	83	;'S'
   540  0835  3445               	retlw	69	;'E'
   541  0836  3454               	retlw	84	;'T'
   542  0837  3420               	retlw	32	;' '
   543  0838  3456               	retlw	86	;'V'
   544  0839  346F               	retlw	111	;'o'
   545  083A  346C               	retlw	108	;'l'
   546  083B  3474               	retlw	116	;'t'
   547  083C  343A               	retlw	58	;':'
   548  083D  3420               	retlw	32	;' '
   549  083E  3420               	retlw	32	;' '
   550  083F  3420               	retlw	32	;' '
   551  0840  3420               	retlw	32	;' '
   552  0841  3400               	retlw	0
   553  0842                     STR_7:
   554  0842  344F               	retlw	79	;'O'
   555  0843  3455               	retlw	85	;'U'
   556  0844  3454               	retlw	84	;'T'
   557  0845  3450               	retlw	80	;'P'
   558  0846  3455               	retlw	85	;'U'
   559  0847  3454               	retlw	84	;'T'
   560  0848  3420               	retlw	32	;' '
   561  0849  343A               	retlw	58	;':'
   562  084A  3420               	retlw	32	;' '
   563  084B  3420               	retlw	32	;' '
   564  084C  3400               	retlw	0
   565  084D                     STR_9:
   566  084D  344F               	retlw	79	;'O'
   567  084E  3455               	retlw	85	;'U'
   568  084F  3454               	retlw	84	;'T'
   569  0850  3450               	retlw	80	;'P'
   570  0851  3455               	retlw	85	;'U'
   571  0852  3454               	retlw	84	;'T'
   572  0853  3420               	retlw	32	;' '
   573  0854  343A               	retlw	58	;':'
   574  0855  3420               	retlw	32	;' '
   575  0856  3400               	retlw	0
   576  0857                     STR_6:
   577  0857  3456               	retlw	86	;'V'
   578  0858  340D               	retlw	13
   579  0859  340A               	retlw	10
   580  085A  3400               	retlw	0
   581  085B                     STR_4:
   582  085B  3456               	retlw	86	;'V'
   583  085C  3400               	retlw	0
   584  0857                     
   585                           	psect	cinit
   586  07EE                     start_initialization:	
   587                           ; #config settings
   588                           
   589  07EE                     __initialization:
   590                           
   591                           ; Initialize objects allocated to BANK0
   592  07EE  1383               	bcf	3,7	;select IRP bank0
   593  07EF  3065               	movlw	low (__pdataBANK0+7)
   594  07F0  00FD               	movwf	btemp+-1
   595  07F1  3017               	movlw	high __pidataBANK0
   596  07F2  00FE               	movwf	btemp
   597  07F3  30A9               	movlw	low __pidataBANK0
   598  07F4  00FF               	movwf	btemp+1
   599  07F5  305E               	movlw	low __pdataBANK0
   600  07F6  0084               	movwf	4
   601  07F7  160A  118A  27BF  120A  118A  	fcall	init_ram0
   602  07FC                     end_of_initialization:	
   603                           ;End of C runtime variable initialization code
   604                           
   605  07FC                     __end_of__initialization:
   606  07FC  0183               	clrf	3
   607  07FD  120A  118A  29B9   	ljmp	_main	;jump to C main() function
   608                           
   609                           	psect	dataBANK0
   610  005E                     __pdataBANK0:
   611  005E                     LCD_Init@F1012:
   612  005E                     	ds	7
   613                           
   614                           	psect	inittext
   615  17BB                     init_fetch0:	
   616                           ;	Called with low address in FSR and high address in W
   617                           
   618  17BB  087E               	movf	btemp,w
   619  17BC  008A               	movwf	10
   620  17BD  087F               	movf	btemp+1,w
   621  17BE  0082               	movwf	2
   622  17BF                     init_ram0:	
   623                           ;Called with:
   624                           ;	high address of idata address in btemp 
   625                           ;	low address of idata address in btemp+1 
   626                           ;	low address of data in FSR
   627                           ;	high address + 1 of data in btemp-1
   628                           
   629  17BF  160A  118A  27BB  160A  118A  	fcall	init_fetch0
   630  17C4  0080               	movwf	0
   631  17C5  0A84               	incf	4,f
   632  17C6  0804               	movf	4,w
   633  17C7  067D               	xorwf	btemp+-1,w
   634  17C8  1903               	btfsc	3,2
   635  17C9  3400               	retlw	0
   636  17CA  0AFF               	incf	btemp+1,f
   637  17CB  1903               	btfsc	3,2
   638  17CC  0AFE               	incf	btemp,f
   639  17CD  2FBF               	goto	init_ram0
   640                           
   641                           	psect	cstackBANK1
   642  00A0                     __pcstackBANK1:
   643  00A0                     main@Str:
   644                           
   645                           ; 10 bytes @ 0x0
   646  00A0                     	ds	10
   647  00AA                     main@Count:
   648                           
   649                           ; 2 bytes @ 0xA
   650  00AA                     	ds	2
   651  00AC                     main@SetPoint:
   652                           
   653                           ; 4 bytes @ 0xC
   654  00AC                     	ds	4
   655  00B0                     main@FeedBack:
   656                           
   657                           ; 4 bytes @ 0x10
   658  00B0                     	ds	4
   659  00B4                     main@DutyCycle:
   660                           
   661                           ; 1 bytes @ 0x14
   662  00B4                     	ds	1
   663                           
   664                           	psect	cstackCOMMON
   665  0070                     __pcstackCOMMON:
   666  0070                     ?_ADC_Init:
   667  0070                     ??_ADC_Init:	
   668                           ; 1 bytes @ 0x0
   669                           
   670  0070                     ?_LCD_Init:	
   671                           ; 1 bytes @ 0x0
   672                           
   673  0070                     ?_PWM_Init:	
   674                           ; 1 bytes @ 0x0
   675                           
   676  0070                     ??_PWM_Init:	
   677                           ; 1 bytes @ 0x0
   678                           
   679  0070                     ?_PWM_SetDutyCycle:	
   680                           ; 1 bytes @ 0x0
   681                           
   682  0070                     ?_PWM_Start:	
   683                           ; 1 bytes @ 0x0
   684                           
   685  0070                     ??_PWM_Start:	
   686                           ; 1 bytes @ 0x0
   687                           
   688  0070                     ?_LCD_Clear:	
   689                           ; 1 bytes @ 0x0
   690                           
   691  0070                     ?_Lcd_CmdWrite:	
   692                           ; 1 bytes @ 0x0
   693                           
   694  0070                     ?_LCD_Enable:	
   695                           ; 1 bytes @ 0x0
   696                           
   697  0070                     ??_LCD_Enable:	
   698                           ; 1 bytes @ 0x0
   699                           
   700  0070                     ?_Lcd_DataWrite:	
   701                           ; 1 bytes @ 0x0
   702                           
   703  0070                     ?_UART_TxChar:	
   704                           ; 1 bytes @ 0x0
   705                           
   706  0070                     ??_UART_TxChar:	
   707                           ; 1 bytes @ 0x0
   708                           
   709  0070                     ?_ADC_GetAdcValue:	
   710                           ; 1 bytes @ 0x0
   711                           
   712  0070                     ?__Umul8_16:	
   713                           ; 2 bytes @ 0x0
   714                           
   715  0070                     ?_main:	
   716                           ; 2 bytes @ 0x0
   717                           
   718  0070                     ?___lwdiv:	
   719                           ; 2 bytes @ 0x0
   720                           
   721  0070                     ?___lwmod:	
   722                           ; 2 bytes @ 0x0
   723                           
   724  0070                     ?___lldiv:	
   725                           ; 2 bytes @ 0x0
   726                           
   727  0070                     ?___fltol:	
   728                           ; 4 bytes @ 0x0
   729                           
   730  0070                     ?___fladd:	
   731                           ; 4 bytes @ 0x0
   732                           
   733  0070                     PWM_SetDutyCycle@dutyCycle:	
   734                           ; 4 bytes @ 0x0
   735                           
   736  0070                     PWM_Start@channel:	
   737                           ; 1 bytes @ 0x0
   738                           
   739  0070                     UART_TxChar@ch:	
   740                           ; 1 bytes @ 0x0
   741                           
   742  0070                     __Umul8_16@multiplicand:	
   743                           ; 1 bytes @ 0x0
   744                           
   745  0070                     ___lwdiv@divisor:	
   746                           ; 1 bytes @ 0x0
   747                           
   748  0070                     ___lwmod@divisor:	
   749                           ; 2 bytes @ 0x0
   750                           
   751  0070                     ___lldiv@divisor:	
   752                           ; 2 bytes @ 0x0
   753                           
   754  0070                     ___fltol@f1:	
   755                           ; 4 bytes @ 0x0
   756                           
   757  0070                     ___fladd@b:	
   758                           ; 4 bytes @ 0x0
   759                           
   760                           
   761                           ; 4 bytes @ 0x0
   762  0070                     	ds	1
   763  0071                     ??_PWM_SetDutyCycle:
   764  0071                     ?_UART_SendTxt:	
   765                           ; 1 bytes @ 0x1
   766                           
   767  0071                     UART_SendTxt@Str:	
   768                           ; 1 bytes @ 0x1
   769                           
   770                           
   771                           ; 2 bytes @ 0x1
   772  0071                     	ds	1
   773  0072                     ??_ADC_GetAdcValue:
   774  0072                     ??_Lcd_CmdWrite:	
   775                           ; 1 bytes @ 0x2
   776                           
   777  0072                     ??__Umul8_16:	
   778                           ; 1 bytes @ 0x2
   779                           
   780  0072                     ??_Lcd_DataWrite:	
   781                           ; 1 bytes @ 0x2
   782                           
   783  0072                     PWM_Init@channel:	
   784                           ; 1 bytes @ 0x2
   785                           
   786  0072                     ___lwdiv@dividend:	
   787                           ; 1 bytes @ 0x2
   788                           
   789  0072                     ___lwmod@dividend:	
   790                           ; 2 bytes @ 0x2
   791                           
   792                           
   793                           ; 2 bytes @ 0x2
   794  0072                     	ds	1
   795  0073                     ??_UART_SendTxt:
   796  0073                     Lcd_CmdWrite@cmd:	
   797                           ; 1 bytes @ 0x3
   798                           
   799  0073                     Lcd_DataWrite@dat:	
   800                           ; 1 bytes @ 0x3
   801                           
   802  0073                     PWM_SetDutyCycle@channel:	
   803                           ; 1 bytes @ 0x3
   804                           
   805  0073                     ADC_GetAdcValue@var_adcChannel_u8:	
   806                           ; 1 bytes @ 0x3
   807                           
   808                           
   809                           ; 1 bytes @ 0x3
   810  0073                     	ds	1
   811  0074                     ??_LCD_Init:
   812  0074                     ?_LCD_GoToXY:	
   813                           ; 1 bytes @ 0x4
   814                           
   815  0074                     ?_LCD_Print:	
   816                           ; 1 bytes @ 0x4
   817                           
   818  0074                     ??_LCD_Clear:	
   819                           ; 1 bytes @ 0x4
   820                           
   821  0074                     ??___fltol:	
   822                           ; 1 bytes @ 0x4
   823                           
   824  0074                     ??___lwdiv:	
   825                           ; 1 bytes @ 0x4
   826                           
   827  0074                     ??___lwmod:	
   828                           ; 1 bytes @ 0x4
   829                           
   830  0074                     ?___xxtofl:	
   831                           ; 1 bytes @ 0x4
   832                           
   833  0074                     LCD_GoToXY@Y:	
   834                           ; 4 bytes @ 0x4
   835                           
   836  0074                     LCD_Print@Str:	
   837                           ; 1 bytes @ 0x4
   838                           
   839  0074                     __Umul8_16@product:	
   840                           ; 2 bytes @ 0x4
   841                           
   842  0074                     ___lldiv@dividend:	
   843                           ; 2 bytes @ 0x4
   844                           
   845  0074                     ___fladd@a:	
   846                           ; 4 bytes @ 0x4
   847                           
   848  0074                     ___xxtofl@val:	
   849                           ; 4 bytes @ 0x4
   850                           
   851                           
   852                           ; 4 bytes @ 0x4
   853  0074                     	ds	1
   854  0075                     ??_LCD_GoToXY:
   855  0075                     LCD_GoToXY@X:	
   856                           ; 1 bytes @ 0x5
   857                           
   858  0075                     ___lwmod@counter:	
   859                           ; 1 bytes @ 0x5
   860                           
   861  0075                     ___lwdiv@quotient:	
   862                           ; 1 bytes @ 0x5
   863                           
   864                           
   865                           ; 2 bytes @ 0x5
   866  0075                     	ds	1
   867  0076                     ??_LCD_Print:
   868  0076                     __Umul8_16@word_mpld:	
   869                           ; 1 bytes @ 0x6
   870                           
   871                           
   872                           ; 2 bytes @ 0x6
   873  0076                     	ds	1
   874  0077                     ___lwdiv@counter:
   875                           
   876                           ; 1 bytes @ 0x7
   877  0077                     	ds	1
   878  0078                     ??___lldiv:
   879  0078                     ??___xxtofl:	
   880                           ; 1 bytes @ 0x8
   881                           
   882  0078                     ___fladd@signs:	
   883                           ; 1 bytes @ 0x8
   884                           
   885  0078                     __Umul8_16@multiplier:	
   886                           ; 1 bytes @ 0x8
   887                           
   888                           
   889                           ; 1 bytes @ 0x8
   890  0078                     	ds	1
   891  0079                     ___fltol@sign1:
   892  0079                     ___fladd@aexp:	
   893                           ; 1 bytes @ 0x9
   894                           
   895  0079                     ___lldiv@quotient:	
   896                           ; 1 bytes @ 0x9
   897                           
   898                           
   899                           ; 4 bytes @ 0x9
   900  0079                     	ds	1
   901  007A                     ___fltol@exp1:
   902  007A                     ___fladd@bexp:	
   903                           ; 1 bytes @ 0xA
   904                           
   905                           
   906                           ; 1 bytes @ 0xA
   907  007A                     	ds	1
   908  007B                     ?_PrintFloat:
   909  007B                     ___fladd@grs:	
   910                           ; 1 bytes @ 0xB
   911                           
   912  007B                     PrintFloat@N:	
   913                           ; 1 bytes @ 0xB
   914                           
   915                           
   916                           ; 2 bytes @ 0xB
   917  007B                     	ds	2
   918  007D                     ___lldiv@counter:
   919                           
   920                           ; 1 bytes @ 0xD
   921  007D                     	ds	1
   922                           
   923                           	psect	cstackBANK0
   924  0020                     __pcstackBANK0:
   925  0020                     ?_UART_Init:
   926  0020                     ??_PrintFloat:	
   927                           ; 1 bytes @ 0x0
   928                           
   929  0020                     ??___fladd:	
   930                           ; 1 bytes @ 0x0
   931                           
   932  0020                     ___xxtofl@sign:	
   933                           ; 1 bytes @ 0x0
   934                           
   935  0020                     UART_Init@baudRate:	
   936                           ; 1 bytes @ 0x0
   937                           
   938  0020                     LCD_Init@Commands:	
   939                           ; 2 bytes @ 0x0
   940                           
   941                           
   942                           ; 7 bytes @ 0x0
   943  0020                     	ds	1
   944  0021                     ___xxtofl@exp:
   945                           
   946                           ; 1 bytes @ 0x1
   947  0021                     	ds	1
   948  0022                     ??_UART_Init:
   949  0022                     PrintFloat@Str:	
   950                           ; 1 bytes @ 0x2
   951                           
   952  0022                     ___xxtofl@arg:	
   953                           ; 1 bytes @ 0x2
   954                           
   955                           
   956                           ; 4 bytes @ 0x2
   957  0022                     	ds	1
   958  0023                     PrintFloat@i:
   959                           
   960                           ; 2 bytes @ 0x3
   961  0023                     	ds	3
   962  0026                     ?___flmul:
   963  0026                     ___flmul@b:	
   964                           ; 4 bytes @ 0x6
   965                           
   966                           
   967                           ; 4 bytes @ 0x6
   968  0026                     	ds	1
   969  0027                     LCD_Init@i:
   970                           
   971                           ; 2 bytes @ 0x7
   972  0027                     	ds	1
   973  0028                     ?___flge:
   974  0028                     ___flge@ff1:	
   975                           ; 1 bit 
   976                           
   977                           
   978                           ; 4 bytes @ 0x8
   979  0028                     	ds	2
   980  002A                     ___flmul@a:
   981                           
   982                           ; 4 bytes @ 0xA
   983  002A                     	ds	2
   984  002C                     ___flge@ff2:
   985                           
   986                           ; 4 bytes @ 0xC
   987  002C                     	ds	2
   988  002E                     ??___flmul:
   989                           
   990                           ; 1 bytes @ 0xE
   991  002E                     	ds	2
   992  0030                     ??___flge:
   993                           
   994                           ; 1 bytes @ 0x10
   995  0030                     	ds	3
   996  0033                     ___flmul@sign:
   997                           
   998                           ; 1 bytes @ 0x13
   999  0033                     	ds	1
  1000  0034                     ___flmul@grs:
  1001                           
  1002                           ; 4 bytes @ 0x14
  1003  0034                     	ds	4
  1004  0038                     ___flmul@aexp:
  1005                           
  1006                           ; 1 bytes @ 0x18
  1007  0038                     	ds	1
  1008  0039                     ___flmul@bexp:
  1009                           
  1010                           ; 1 bytes @ 0x19
  1011  0039                     	ds	1
  1012  003A                     ___flmul@prod:
  1013                           
  1014                           ; 4 bytes @ 0x1A
  1015  003A                     	ds	4
  1016  003E                     ___flmul@temp:
  1017                           
  1018                           ; 2 bytes @ 0x1E
  1019  003E                     	ds	2
  1020  0040                     ?___fldiv:
  1021  0040                     ___fldiv@a:	
  1022                           ; 4 bytes @ 0x20
  1023                           
  1024                           
  1025                           ; 4 bytes @ 0x20
  1026  0040                     	ds	4
  1027  0044                     ___fldiv@b:
  1028                           
  1029                           ; 4 bytes @ 0x24
  1030  0044                     	ds	4
  1031  0048                     ??___fldiv:
  1032                           
  1033                           ; 1 bytes @ 0x28
  1034  0048                     	ds	5
  1035  004D                     ___fldiv@rem:
  1036                           
  1037                           ; 4 bytes @ 0x2D
  1038  004D                     	ds	4
  1039  0051                     ___fldiv@sign:
  1040                           
  1041                           ; 1 bytes @ 0x31
  1042  0051                     	ds	1
  1043  0052                     ___fldiv@new_exp:
  1044                           
  1045                           ; 2 bytes @ 0x32
  1046  0052                     	ds	2
  1047  0054                     ___fldiv@grs:
  1048                           
  1049                           ; 4 bytes @ 0x34
  1050  0054                     	ds	4
  1051  0058                     ___fldiv@bexp:
  1052                           
  1053                           ; 1 bytes @ 0x38
  1054  0058                     	ds	1
  1055  0059                     ___fldiv@aexp:
  1056                           
  1057                           ; 1 bytes @ 0x39
  1058  0059                     	ds	1
  1059  005A                     ??_main:
  1060                           
  1061                           ; 1 bytes @ 0x3A
  1062  005A                     	ds	4
  1063                           
  1064                           	psect	maintext
  1065  01B9                     __pmaintext:	
  1066 ;;
  1067 ;;Main: autosize = 0, tempsize = 4, incstack = 0, save=0
  1068 ;;
  1069 ;; *************** function _main *****************
  1070 ;; Defined at:
  1071 ;;		line 56 in file "main.c"
  1072 ;; Parameters:    Size  Location     Type
  1073 ;;		None
  1074 ;; Auto vars:     Size  Location     Type
  1075 ;;  Str            10    0[BANK1 ] unsigned char [10]
  1076 ;;  FeedBack        4   16[BANK1 ] float 
  1077 ;;  SetPoint        4   12[BANK1 ] float 
  1078 ;;  Count           2   10[BANK1 ] int 
  1079 ;;  DutyCycle       1   20[BANK1 ] unsigned char 
  1080 ;; Return value:  Size  Location     Type
  1081 ;;                  2   38[None  ] int 
  1082 ;; Registers used:
  1083 ;;		wreg, fsr0l, fsr0h, status,2, status,0, btemp+1, pclath, cstack
  1084 ;; Tracked objects:
  1085 ;;		On entry : B00/0
  1086 ;;		On exit  : 0/0
  1087 ;;		Unchanged: 0/0
  1088 ;; Data sizes:     COMMON   BANK0   BANK1   BANK3   BANK2
  1089 ;;      Params:         0       0       0       0       0
  1090 ;;      Locals:         0       0      21       0       0
  1091 ;;      Temps:          0       4       0       0       0
  1092 ;;      Totals:         0       4      21       0       0
  1093 ;;Total ram usage:       25 bytes
  1094 ;; Hardware stack levels required when called: 3
  1095 ;; This function calls:
  1096 ;;		_ADC_GetAdcValue
  1097 ;;		_ADC_Init
  1098 ;;		_LCD_Clear
  1099 ;;		_LCD_GoToXY
  1100 ;;		_LCD_Init
  1101 ;;		_LCD_Print
  1102 ;;		_PWM_Init
  1103 ;;		_PWM_SetDutyCycle
  1104 ;;		_PWM_Start
  1105 ;;		_PrintFloat
  1106 ;;		_UART_Init
  1107 ;;		_UART_SendTxt
  1108 ;;		___fladd
  1109 ;;		___fldiv
  1110 ;;		___flge
  1111 ;;		___flmul
  1112 ;;		___fltol
  1113 ;;		___xxtofl
  1114 ;; This function is called by:
  1115 ;;		Startup code after reset
  1116 ;; This function uses a non-reentrant model
  1117 ;;
  1118                           
  1119  01B9                     _main:	
  1120                           ;psect for function _main
  1121                           
  1122  01B9                     l2628:	
  1123                           ;incstack = 0
  1124                           ; Regs used in _main: [wreg-fsr0h+status,2+status,0+btemp+1+pclath+cstack]
  1125                           
  1126                           
  1127                           ;main.c: 58:     char Str[10];;main.c: 59:     float SetPoint ,FeedBack;;main.c: 60:    
      +                           unsigned char DutyCycle = 1;
  1128  01B9  1683               	bsf	3,5	;RP0=1, select bank1
  1129  01BA  1303               	bcf	3,6	;RP1=0, select bank1
  1130  01BB  01B4               	clrf	main@DutyCycle^(0+128)
  1131  01BC  0AB4               	incf	main@DutyCycle^(0+128),f
  1132  01BD                     l2630:
  1133                           
  1134                           ;main.c: 61:     int Count;;main.c: 62:     TRISC &=~(1<<3);
  1135  01BD  30F7               	movlw	247
  1136  01BE  1283               	bcf	3,5	;RP0=0, select bank0
  1137  01BF  1303               	bcf	3,6	;RP1=0, select bank0
  1138  01C0  00DA               	movwf	??_main
  1139  01C1  085A               	movf	??_main,w
  1140  01C2  1683               	bsf	3,5	;RP0=1, select bank1
  1141  01C3  1303               	bcf	3,6	;RP1=0, select bank1
  1142  01C4  0587               	andwf	7,f	;volatile
  1143  01C5                     l2632:
  1144                           
  1145                           ;main.c: 63:     ADC_Init();
  1146  01C5  120A  158A  205F  120A  118A  	fcall	_ADC_Init
  1147  01CA                     l2634:
  1148                           
  1149                           ;main.c: 64:     LCD_Init();
  1150  01CA  120A  158A  2229  120A  118A  	fcall	_LCD_Init
  1151  01CF                     l2636:
  1152                           
  1153                           ;main.c: 65:     UART_Init(9600);
  1154  01CF  3080               	movlw	128
  1155  01D0  1283               	bcf	3,5	;RP0=0, select bank0
  1156  01D1  1303               	bcf	3,6	;RP1=0, select bank0
  1157  01D2  00A0               	movwf	UART_Init@baudRate
  1158  01D3  3025               	movlw	37
  1159  01D4  00A1               	movwf	UART_Init@baudRate+1
  1160  01D5  120A  158A  217F  120A  118A  	fcall	_UART_Init
  1161  01DA                     l2638:
  1162                           
  1163                           ;main.c: 66:     PWM_Init(0);
  1164  01DA  3000               	movlw	0
  1165  01DB  120A  158A  21B6  120A  118A  	fcall	_PWM_Init
  1166  01E0                     l2640:
  1167                           
  1168                           ;main.c: 67:     PWM_SetDutyCycle(0,DutyCycle);
  1169  01E0  01F0               	clrf	PWM_SetDutyCycle@dutyCycle
  1170  01E1  0AF0               	incf	PWM_SetDutyCycle@dutyCycle,f
  1171  01E2  3000               	movlw	0
  1172  01E3  120A  158A  20D9  120A  118A  	fcall	_PWM_SetDutyCycle
  1173  01E8                     l2642:
  1174                           
  1175                           ;main.c: 68:     PWM_Start(0);
  1176  01E8  3000               	movlw	0
  1177  01E9  160A  118A  279E  120A  118A  	fcall	_PWM_Start
  1178  01EE                     l2644:
  1179                           
  1180                           ;main.c: 69:     PORTC |= (1<<3);
  1181  01EE  1283               	bcf	3,5	;RP0=0, select bank0
  1182  01EF  1303               	bcf	3,6	;RP1=0, select bank0
  1183  01F0  1587               	bsf	7,3	;volatile
  1184  01F1                     l2646:
  1185                           
  1186                           ;main.c: 70:     UART_SendTxt("      AST       \r\n");
  1187  01F1  3001               	movlw	(low ((STR_1-__stringbase)| (0+32768)))& (0+255)
  1188  01F2  00F1               	movwf	UART_SendTxt@Str
  1189  01F3  3080               	movlw	128
  1190  01F4  00F2               	movwf	UART_SendTxt@Str+1
  1191  01F5  120A  158A  20B3  120A  118A  	fcall	_UART_SendTxt
  1192  01FA                     l2648:
  1193                           
  1194                           ;main.c: 71:     LCD_GoToXY(0,0);
  1195  01FA  01F4               	clrf	LCD_GoToXY@Y
  1196  01FB  3000               	movlw	0
  1197  01FC  160A  118A  27CE  120A  118A  	fcall	_LCD_GoToXY
  1198  0201                     l2650:
  1199                           
  1200                           ;main.c: 72:     LCD_Print("      AST       ");
  1201  0201  3014               	movlw	(low ((STR_2-__stringbase)| (0+32768)))& (0+255)
  1202  0202  00F4               	movwf	LCD_Print@Str
  1203  0203  3080               	movlw	128
  1204  0204  00F5               	movwf	LCD_Print@Str+1
  1205  0205  120A  158A  208D  120A  118A  	fcall	_LCD_Print
  1206  020A                     l2652:
  1207                           
  1208                           ;main.c: 73:     _delay((unsigned long)((2000)*(8000000UL/4000.0)));
  1209  020A  3015               	movlw	21
  1210  020B  1283               	bcf	3,5	;RP0=0, select bank0
  1211  020C  1303               	bcf	3,6	;RP1=0, select bank0
  1212  020D  00DC               	movwf	??_main+2
  1213  020E  304B               	movlw	75
  1214  020F  00DB               	movwf	??_main+1
  1215  0210  30BD               	movlw	189
  1216  0211  00DA               	movwf	??_main
  1217  0212                     u3747:
  1218  0212  0BDA               	decfsz	??_main,f
  1219  0213  2A12               	goto	u3747
  1220  0214  0BDB               	decfsz	??_main+1,f
  1221  0215  2A12               	goto	u3747
  1222  0216  0BDC               	decfsz	??_main+2,f
  1223  0217  2A12               	goto	u3747
  1224  0218  2A19               	nop2
  1225  0219                     l2654:
  1226                           
  1227                           ;main.c: 75:     {;main.c: 76:         _delay((unsigned long)((5)*(8000000UL/4000.0)));
  1228  0219  300D               	movlw	13
  1229  021A  1283               	bcf	3,5	;RP0=0, select bank0
  1230  021B  1303               	bcf	3,6	;RP1=0, select bank0
  1231  021C  00DB               	movwf	??_main+1
  1232  021D  30FB               	movlw	251
  1233  021E  00DA               	movwf	??_main
  1234  021F                     u3757:
  1235  021F  0BDA               	decfsz	??_main,f
  1236  0220  2A1F               	goto	u3757
  1237  0221  0BDB               	decfsz	??_main+1,f
  1238  0222  2A1F               	goto	u3757
  1239  0223                     l2656:
  1240                           
  1241                           ;main.c: 77:         Count+=5;
  1242  0223  3005               	movlw	5
  1243  0224  1683               	bsf	3,5	;RP0=1, select bank1
  1244  0225  1303               	bcf	3,6	;RP1=0, select bank1
  1245  0226  07AA               	addwf	main@Count^(0+128),f
  1246  0227  1803               	skipnc
  1247  0228  0AAB               	incf	(main@Count+1)^(0+128),f
  1248  0229  3000               	movlw	0
  1249  022A  07AB               	addwf	(main@Count+1)^(0+128),f
  1250  022B                     l2658:
  1251                           
  1252                           ;main.c: 78:         SetPoint = ((float)ADC_GetAdcValue(0) * (float)1200 ) / (float)1024
      +                          ;
  1253  022B  3044               	movlw	68
  1254  022C  1283               	bcf	3,5	;RP0=0, select bank0
  1255  022D  1303               	bcf	3,6	;RP1=0, select bank0
  1256  022E  00C3               	movwf	___fldiv@a+3
  1257  022F  3080               	movlw	128
  1258  0230  00C2               	movwf	___fldiv@a+2
  1259  0231  3000               	movlw	0
  1260  0232  00C1               	movwf	___fldiv@a+1
  1261  0233  3000               	movlw	0
  1262  0234  00C0               	movwf	___fldiv@a
  1263  0235  3044               	movlw	68
  1264  0236  00A9               	movwf	___flmul@b+3
  1265  0237  3096               	movlw	150
  1266  0238  00A8               	movwf	___flmul@b+2
  1267  0239  3000               	movlw	0
  1268  023A  00A7               	movwf	___flmul@b+1
  1269  023B  3000               	movlw	0
  1270  023C  00A6               	movwf	___flmul@b
  1271  023D  3000               	movlw	0
  1272  023E  120A  158A  206B  120A  118A  	fcall	_ADC_GetAdcValue
  1273  0243  0870               	movf	?_ADC_GetAdcValue,w
  1274  0244  1283               	bcf	3,5	;RP0=0, select bank0
  1275  0245  1303               	bcf	3,6	;RP1=0, select bank0
  1276  0246  00DA               	movwf	??_main
  1277  0247  0871               	movf	?_ADC_GetAdcValue+1,w
  1278  0248  00DB               	movwf	??_main+1
  1279  0249  01DC               	clrf	??_main+2
  1280  024A  01DD               	clrf	??_main+3
  1281  024B  085D               	movf	??_main+3,w
  1282  024C  00F7               	movwf	___xxtofl@val+3
  1283  024D  085C               	movf	??_main+2,w
  1284  024E  00F6               	movwf	___xxtofl@val+2
  1285  024F  085B               	movf	??_main+1,w
  1286  0250  00F5               	movwf	___xxtofl@val+1
  1287  0251  085A               	movf	??_main,w
  1288  0252  00F4               	movwf	___xxtofl@val
  1289  0253  3000               	movlw	0
  1290  0254  120A  118A  20FD  120A  118A  	fcall	___xxtofl
  1291  0259  0877               	movf	?___xxtofl+3,w
  1292  025A  1283               	bcf	3,5	;RP0=0, select bank0
  1293  025B  1303               	bcf	3,6	;RP1=0, select bank0
  1294  025C  00AD               	movwf	___flmul@a+3
  1295  025D  0876               	movf	?___xxtofl+2,w
  1296  025E  00AC               	movwf	___flmul@a+2
  1297  025F  0875               	movf	?___xxtofl+1,w
  1298  0260  00AB               	movwf	___flmul@a+1
  1299  0261  0874               	movf	?___xxtofl,w
  1300  0262  00AA               	movwf	___flmul@a
  1301  0263  120A  118A  248D  120A  118A  	fcall	___flmul
  1302  0268  1283               	bcf	3,5	;RP0=0, select bank0
  1303  0269  1303               	bcf	3,6	;RP1=0, select bank0
  1304  026A  0829               	movf	?___flmul+3,w
  1305  026B  00C7               	movwf	___fldiv@b+3
  1306  026C  0828               	movf	?___flmul+2,w
  1307  026D  00C6               	movwf	___fldiv@b+2
  1308  026E  0827               	movf	?___flmul+1,w
  1309  026F  00C5               	movwf	___fldiv@b+1
  1310  0270  0826               	movf	?___flmul,w
  1311  0271  00C4               	movwf	___fldiv@b
  1312  0272  120A  158A  238B  120A  118A  	fcall	___fldiv
  1313  0277  1283               	bcf	3,5	;RP0=0, select bank0
  1314  0278  1303               	bcf	3,6	;RP1=0, select bank0
  1315  0279  0843               	movf	?___fldiv+3,w
  1316  027A  1683               	bsf	3,5	;RP0=1, select bank1
  1317  027B  1303               	bcf	3,6	;RP1=0, select bank1
  1318  027C  00AF               	movwf	(main@SetPoint+3)^(0+128)
  1319  027D  1283               	bcf	3,5	;RP0=0, select bank0
  1320  027E  1303               	bcf	3,6	;RP1=0, select bank0
  1321  027F  0842               	movf	?___fldiv+2,w
  1322  0280  1683               	bsf	3,5	;RP0=1, select bank1
  1323  0281  1303               	bcf	3,6	;RP1=0, select bank1
  1324  0282  00AE               	movwf	(main@SetPoint+2)^(0+128)
  1325  0283  1283               	bcf	3,5	;RP0=0, select bank0
  1326  0284  1303               	bcf	3,6	;RP1=0, select bank0
  1327  0285  0841               	movf	?___fldiv+1,w
  1328  0286  1683               	bsf	3,5	;RP0=1, select bank1
  1329  0287  1303               	bcf	3,6	;RP1=0, select bank1
  1330  0288  00AD               	movwf	(main@SetPoint+1)^(0+128)
  1331  0289  1283               	bcf	3,5	;RP0=0, select bank0
  1332  028A  1303               	bcf	3,6	;RP1=0, select bank0
  1333  028B  0840               	movf	?___fldiv,w
  1334  028C  1683               	bsf	3,5	;RP0=1, select bank1
  1335  028D  1303               	bcf	3,6	;RP1=0, select bank1
  1336  028E  00AC               	movwf	main@SetPoint^(0+128)
  1337  028F                     l2660:
  1338                           
  1339                           ;main.c: 79:         FeedBack = ((float)ADC_GetAdcValue(1) * (float)1200 ) / (float)1024
      +                          ;
  1340  028F  3044               	movlw	68
  1341  0290  1283               	bcf	3,5	;RP0=0, select bank0
  1342  0291  1303               	bcf	3,6	;RP1=0, select bank0
  1343  0292  00C3               	movwf	___fldiv@a+3
  1344  0293  3080               	movlw	128
  1345  0294  00C2               	movwf	___fldiv@a+2
  1346  0295  3000               	movlw	0
  1347  0296  00C1               	movwf	___fldiv@a+1
  1348  0297  3000               	movlw	0
  1349  0298  00C0               	movwf	___fldiv@a
  1350  0299  3044               	movlw	68
  1351  029A  00A9               	movwf	___flmul@b+3
  1352  029B  3096               	movlw	150
  1353  029C  00A8               	movwf	___flmul@b+2
  1354  029D  3000               	movlw	0
  1355  029E  00A7               	movwf	___flmul@b+1
  1356  029F  3000               	movlw	0
  1357  02A0  00A6               	movwf	___flmul@b
  1358  02A1  3001               	movlw	1
  1359  02A2  120A  158A  206B  120A  118A  	fcall	_ADC_GetAdcValue
  1360  02A7  0870               	movf	?_ADC_GetAdcValue,w
  1361  02A8  1283               	bcf	3,5	;RP0=0, select bank0
  1362  02A9  1303               	bcf	3,6	;RP1=0, select bank0
  1363  02AA  00DA               	movwf	??_main
  1364  02AB  0871               	movf	?_ADC_GetAdcValue+1,w
  1365  02AC  00DB               	movwf	??_main+1
  1366  02AD  01DC               	clrf	??_main+2
  1367  02AE  01DD               	clrf	??_main+3
  1368  02AF  085D               	movf	??_main+3,w
  1369  02B0  00F7               	movwf	___xxtofl@val+3
  1370  02B1  085C               	movf	??_main+2,w
  1371  02B2  00F6               	movwf	___xxtofl@val+2
  1372  02B3  085B               	movf	??_main+1,w
  1373  02B4  00F5               	movwf	___xxtofl@val+1
  1374  02B5  085A               	movf	??_main,w
  1375  02B6  00F4               	movwf	___xxtofl@val
  1376  02B7  3000               	movlw	0
  1377  02B8  120A  118A  20FD  120A  118A  	fcall	___xxtofl
  1378  02BD  0877               	movf	?___xxtofl+3,w
  1379  02BE  1283               	bcf	3,5	;RP0=0, select bank0
  1380  02BF  1303               	bcf	3,6	;RP1=0, select bank0
  1381  02C0  00AD               	movwf	___flmul@a+3
  1382  02C1  0876               	movf	?___xxtofl+2,w
  1383  02C2  00AC               	movwf	___flmul@a+2
  1384  02C3  0875               	movf	?___xxtofl+1,w
  1385  02C4  00AB               	movwf	___flmul@a+1
  1386  02C5  0874               	movf	?___xxtofl,w
  1387  02C6  00AA               	movwf	___flmul@a
  1388  02C7  120A  118A  248D  120A  118A  	fcall	___flmul
  1389  02CC  1283               	bcf	3,5	;RP0=0, select bank0
  1390  02CD  1303               	bcf	3,6	;RP1=0, select bank0
  1391  02CE  0829               	movf	?___flmul+3,w
  1392  02CF  00C7               	movwf	___fldiv@b+3
  1393  02D0  0828               	movf	?___flmul+2,w
  1394  02D1  00C6               	movwf	___fldiv@b+2
  1395  02D2  0827               	movf	?___flmul+1,w
  1396  02D3  00C5               	movwf	___fldiv@b+1
  1397  02D4  0826               	movf	?___flmul,w
  1398  02D5  00C4               	movwf	___fldiv@b
  1399  02D6  120A  158A  238B  120A  118A  	fcall	___fldiv
  1400  02DB  1283               	bcf	3,5	;RP0=0, select bank0
  1401  02DC  1303               	bcf	3,6	;RP1=0, select bank0
  1402  02DD  0843               	movf	?___fldiv+3,w
  1403  02DE  1683               	bsf	3,5	;RP0=1, select bank1
  1404  02DF  1303               	bcf	3,6	;RP1=0, select bank1
  1405  02E0  00B3               	movwf	(main@FeedBack+3)^(0+128)
  1406  02E1  1283               	bcf	3,5	;RP0=0, select bank0
  1407  02E2  1303               	bcf	3,6	;RP1=0, select bank0
  1408  02E3  0842               	movf	?___fldiv+2,w
  1409  02E4  1683               	bsf	3,5	;RP0=1, select bank1
  1410  02E5  1303               	bcf	3,6	;RP1=0, select bank1
  1411  02E6  00B2               	movwf	(main@FeedBack+2)^(0+128)
  1412  02E7  1283               	bcf	3,5	;RP0=0, select bank0
  1413  02E8  1303               	bcf	3,6	;RP1=0, select bank0
  1414  02E9  0841               	movf	?___fldiv+1,w
  1415  02EA  1683               	bsf	3,5	;RP0=1, select bank1
  1416  02EB  1303               	bcf	3,6	;RP1=0, select bank1
  1417  02EC  00B1               	movwf	(main@FeedBack+1)^(0+128)
  1418  02ED  1283               	bcf	3,5	;RP0=0, select bank0
  1419  02EE  1303               	bcf	3,6	;RP1=0, select bank0
  1420  02EF  0840               	movf	?___fldiv,w
  1421  02F0  1683               	bsf	3,5	;RP0=1, select bank1
  1422  02F1  1303               	bcf	3,6	;RP1=0, select bank1
  1423  02F2  00B0               	movwf	main@FeedBack^(0+128)
  1424  02F3                     l2662:
  1425                           
  1426                           ;main.c: 82:         if(Count >= 1000)
  1427  02F3  082B               	movf	(main@Count+1)^(0+128),w
  1428  02F4  3A80               	xorlw	128
  1429  02F5  00FF               	movwf	btemp+1
  1430  02F6  3083               	movlw	131
  1431  02F7  027F               	subwf	btemp+1,w
  1432  02F8  1D03               	skipz
  1433  02F9  2AFC               	goto	u3695
  1434  02FA  30E8               	movlw	232
  1435  02FB  022A               	subwf	main@Count^(0+128),w
  1436  02FC                     u3695:
  1437  02FC  1C03               	skipc
  1438  02FD  2AFF               	goto	u3691
  1439  02FE  2B00               	goto	u3690
  1440  02FF                     u3691:
  1441  02FF  2BD2               	goto	l2708
  1442  0300                     u3690:
  1443  0300                     l2664:
  1444                           
  1445                           ;main.c: 83:         {;main.c: 84:             Count = 0;
  1446  0300  1683               	bsf	3,5	;RP0=1, select bank1
  1447  0301  1303               	bcf	3,6	;RP1=0, select bank1
  1448  0302  01AA               	clrf	main@Count^(0+128)
  1449  0303  01AB               	clrf	(main@Count+1)^(0+128)
  1450  0304                     l2666:
  1451                           
  1452                           ;main.c: 85:             PrintFloat(Str,(unsigned int)SetPoint);
  1453  0304  082F               	movf	(main@SetPoint+3)^(0+128),w
  1454  0305  00F3               	movwf	___fltol@f1+3
  1455  0306  082E               	movf	(main@SetPoint+2)^(0+128),w
  1456  0307  00F2               	movwf	___fltol@f1+2
  1457  0308  082D               	movf	(main@SetPoint+1)^(0+128),w
  1458  0309  00F1               	movwf	___fltol@f1+1
  1459  030A  082C               	movf	main@SetPoint^(0+128),w
  1460  030B  00F0               	movwf	___fltol@f1
  1461  030C  120A  158A  2311  120A  118A  	fcall	___fltol
  1462  0311  0871               	movf	?___fltol+1,w
  1463  0312  00FC               	movwf	PrintFloat@N+1
  1464  0313  0870               	movf	?___fltol,w
  1465  0314  00FB               	movwf	PrintFloat@N
  1466  0315  30A0               	movlw	(low (main@Str| 0))& (0+255)
  1467  0316  120A  118A  2003  120A  118A  	fcall	_PrintFloat
  1468  031B                     l2668:
  1469                           
  1470                           ;main.c: 86:             LCD_Clear();
  1471  031B  160A  118A  27A2  120A  118A  	fcall	_LCD_Clear
  1472  0320                     l2670:
  1473                           
  1474                           ;main.c: 88:             LCD_GoToXY(0,0);
  1475  0320  01F4               	clrf	LCD_GoToXY@Y
  1476  0321  3000               	movlw	0
  1477  0322  160A  118A  27CE  120A  118A  	fcall	_LCD_GoToXY
  1478  0327                     l2672:
  1479                           
  1480                           ;main.c: 90:             LCD_Print("SET Volt:    ");
  1481  0327  3025               	movlw	(low ((STR_3-__stringbase)| (0+32768)))& (0+255)
  1482  0328  00F4               	movwf	LCD_Print@Str
  1483  0329  3080               	movlw	128
  1484  032A  00F5               	movwf	LCD_Print@Str+1
  1485  032B  120A  158A  208D  120A  118A  	fcall	_LCD_Print
  1486  0330                     l2674:
  1487                           
  1488                           ;main.c: 91:             LCD_GoToXY(10,0);
  1489  0330  01F4               	clrf	LCD_GoToXY@Y
  1490  0331  300A               	movlw	10
  1491  0332  160A  118A  27CE  120A  118A  	fcall	_LCD_GoToXY
  1492  0337                     l2676:
  1493                           
  1494                           ;main.c: 92:             LCD_Print(Str);
  1495  0337  30A0               	movlw	(low (main@Str| 0))& (0+255)
  1496  0338  00F4               	movwf	LCD_Print@Str
  1497  0339  3000               	movlw	0
  1498  033A  00F5               	movwf	LCD_Print@Str+1
  1499  033B  120A  158A  208D  120A  118A  	fcall	_LCD_Print
  1500  0340                     l2678:
  1501                           
  1502                           ;main.c: 93:             LCD_GoToXY(15,0);
  1503  0340  01F4               	clrf	LCD_GoToXY@Y
  1504  0341  300F               	movlw	15
  1505  0342  160A  118A  27CE  120A  118A  	fcall	_LCD_GoToXY
  1506  0347                     l2680:
  1507                           
  1508                           ;main.c: 94:             LCD_Print("V");
  1509  0347  304C               	movlw	(low ((STR_4-__stringbase)| (0+32768)))& (0+255)
  1510  0348  00F4               	movwf	LCD_Print@Str
  1511  0349  3080               	movlw	128
  1512  034A  00F5               	movwf	LCD_Print@Str+1
  1513  034B  120A  158A  208D  120A  118A  	fcall	_LCD_Print
  1514  0350                     l2682:
  1515                           
  1516                           ;main.c: 95:             UART_SendTxt("SET Volt:    ");
  1517  0350  3025               	movlw	(low ((STR_3-__stringbase)| (0+32768)))& (0+255)
  1518  0351  00F1               	movwf	UART_SendTxt@Str
  1519  0352  3080               	movlw	128
  1520  0353  00F2               	movwf	UART_SendTxt@Str+1
  1521  0354  120A  158A  20B3  120A  118A  	fcall	_UART_SendTxt
  1522  0359                     l2684:
  1523                           
  1524                           ;main.c: 96:             UART_SendTxt(Str);
  1525  0359  30A0               	movlw	(low (main@Str| 0))& (0+255)
  1526  035A  00F1               	movwf	UART_SendTxt@Str
  1527  035B  3000               	movlw	0
  1528  035C  00F2               	movwf	UART_SendTxt@Str+1
  1529  035D  120A  158A  20B3  120A  118A  	fcall	_UART_SendTxt
  1530  0362                     l2686:
  1531                           
  1532                           ;main.c: 97:             UART_SendTxt("V\r\n");
  1533  0362  3048               	movlw	(low ((STR_6-__stringbase)| (0+32768)))& (0+255)
  1534  0363  00F1               	movwf	UART_SendTxt@Str
  1535  0364  3080               	movlw	128
  1536  0365  00F2               	movwf	UART_SendTxt@Str+1
  1537  0366  120A  158A  20B3  120A  118A  	fcall	_UART_SendTxt
  1538  036B                     l2688:
  1539                           
  1540                           ;main.c: 99:             PrintFloat(Str,(unsigned int)FeedBack);
  1541  036B  1683               	bsf	3,5	;RP0=1, select bank1
  1542  036C  1303               	bcf	3,6	;RP1=0, select bank1
  1543  036D  0833               	movf	(main@FeedBack+3)^(0+128),w
  1544  036E  00F3               	movwf	___fltol@f1+3
  1545  036F  0832               	movf	(main@FeedBack+2)^(0+128),w
  1546  0370  00F2               	movwf	___fltol@f1+2
  1547  0371  0831               	movf	(main@FeedBack+1)^(0+128),w
  1548  0372  00F1               	movwf	___fltol@f1+1
  1549  0373  0830               	movf	main@FeedBack^(0+128),w
  1550  0374  00F0               	movwf	___fltol@f1
  1551  0375  120A  158A  2311  120A  118A  	fcall	___fltol
  1552  037A  0871               	movf	?___fltol+1,w
  1553  037B  00FC               	movwf	PrintFloat@N+1
  1554  037C  0870               	movf	?___fltol,w
  1555  037D  00FB               	movwf	PrintFloat@N
  1556  037E  30A0               	movlw	(low (main@Str| 0))& (0+255)
  1557  037F  120A  118A  2003  120A  118A  	fcall	_PrintFloat
  1558  0384                     l2690:
  1559                           
  1560                           ;main.c: 100:             LCD_GoToXY(0,1);
  1561  0384  01F4               	clrf	LCD_GoToXY@Y
  1562  0385  0AF4               	incf	LCD_GoToXY@Y,f
  1563  0386  3000               	movlw	0
  1564  0387  160A  118A  27CE  120A  118A  	fcall	_LCD_GoToXY
  1565  038C                     l2692:
  1566                           
  1567                           ;main.c: 101:             LCD_Print("OUTPUT :  ");
  1568  038C  3033               	movlw	(low ((STR_7-__stringbase)| (0+32768)))& (0+255)
  1569  038D  00F4               	movwf	LCD_Print@Str
  1570  038E  3080               	movlw	128
  1571  038F  00F5               	movwf	LCD_Print@Str+1
  1572  0390  120A  158A  208D  120A  118A  	fcall	_LCD_Print
  1573  0395                     l2694:
  1574                           
  1575                           ;main.c: 102:             LCD_GoToXY(10,1);
  1576  0395  01F4               	clrf	LCD_GoToXY@Y
  1577  0396  0AF4               	incf	LCD_GoToXY@Y,f
  1578  0397  300A               	movlw	10
  1579  0398  160A  118A  27CE  120A  118A  	fcall	_LCD_GoToXY
  1580  039D                     l2696:
  1581                           
  1582                           ;main.c: 103:             LCD_Print(Str);
  1583  039D  30A0               	movlw	(low (main@Str| 0))& (0+255)
  1584  039E  00F4               	movwf	LCD_Print@Str
  1585  039F  3000               	movlw	0
  1586  03A0  00F5               	movwf	LCD_Print@Str+1
  1587  03A1  120A  158A  208D  120A  118A  	fcall	_LCD_Print
  1588  03A6                     l2698:
  1589                           
  1590                           ;main.c: 104:             LCD_GoToXY(15,1);
  1591  03A6  01F4               	clrf	LCD_GoToXY@Y
  1592  03A7  0AF4               	incf	LCD_GoToXY@Y,f
  1593  03A8  300F               	movlw	15
  1594  03A9  160A  118A  27CE  120A  118A  	fcall	_LCD_GoToXY
  1595  03AE                     l2700:
  1596                           
  1597                           ;main.c: 105:             LCD_Print("V");
  1598  03AE  304C               	movlw	(low ((STR_4-__stringbase)| (0+32768)))& (0+255)
  1599  03AF  00F4               	movwf	LCD_Print@Str
  1600  03B0  3080               	movlw	128
  1601  03B1  00F5               	movwf	LCD_Print@Str+1
  1602  03B2  120A  158A  208D  120A  118A  	fcall	_LCD_Print
  1603  03B7                     l2702:
  1604                           
  1605                           ;main.c: 106:             UART_SendTxt("OUTPUT : ");
  1606  03B7  303E               	movlw	(low ((STR_9-__stringbase)| (0+32768)))& (0+255)
  1607  03B8  00F1               	movwf	UART_SendTxt@Str
  1608  03B9  3080               	movlw	128
  1609  03BA  00F2               	movwf	UART_SendTxt@Str+1
  1610  03BB  120A  158A  20B3  120A  118A  	fcall	_UART_SendTxt
  1611  03C0                     l2704:
  1612                           
  1613                           ;main.c: 107:             UART_SendTxt(Str);
  1614  03C0  30A0               	movlw	(low (main@Str| 0))& (0+255)
  1615  03C1  00F1               	movwf	UART_SendTxt@Str
  1616  03C2  3000               	movlw	0
  1617  03C3  00F2               	movwf	UART_SendTxt@Str+1
  1618  03C4  120A  158A  20B3  120A  118A  	fcall	_UART_SendTxt
  1619  03C9                     l2706:
  1620                           
  1621                           ;main.c: 108:             UART_SendTxt("V\r\n");
  1622  03C9  3048               	movlw	(low ((STR_6-__stringbase)| (0+32768)))& (0+255)
  1623  03CA  00F1               	movwf	UART_SendTxt@Str
  1624  03CB  3080               	movlw	128
  1625  03CC  00F2               	movwf	UART_SendTxt@Str+1
  1626  03CD  120A  158A  20B3  120A  118A  	fcall	_UART_SendTxt
  1627  03D2                     l2708:
  1628                           
  1629                           ;main.c: 111:         if(FeedBack > (SetPoint + 20))
  1630  03D2  3041               	movlw	65
  1631  03D3  00F3               	movwf	___fladd@b+3
  1632  03D4  30A0               	movlw	160
  1633  03D5  00F2               	movwf	___fladd@b+2
  1634  03D6  3000               	movlw	0
  1635  03D7  00F1               	movwf	___fladd@b+1
  1636  03D8  3000               	movlw	0
  1637  03D9  00F0               	movwf	___fladd@b
  1638  03DA  1683               	bsf	3,5	;RP0=1, select bank1
  1639  03DB  1303               	bcf	3,6	;RP1=0, select bank1
  1640  03DC  082F               	movf	(main@SetPoint+3)^(0+128),w
  1641  03DD  00F7               	movwf	___fladd@a+3
  1642  03DE  082E               	movf	(main@SetPoint+2)^(0+128),w
  1643  03DF  00F6               	movwf	___fladd@a+2
  1644  03E0  082D               	movf	(main@SetPoint+1)^(0+128),w
  1645  03E1  00F5               	movwf	___fladd@a+1
  1646  03E2  082C               	movf	main@SetPoint^(0+128),w
  1647  03E3  00F4               	movwf	___fladd@a
  1648  03E4  120A  158A  2568  120A  118A  	fcall	___fladd
  1649  03E9  0873               	movf	?___fladd+3,w
  1650  03EA  1283               	bcf	3,5	;RP0=0, select bank0
  1651  03EB  1303               	bcf	3,6	;RP1=0, select bank0
  1652  03EC  00AB               	movwf	___flge@ff1+3
  1653  03ED  0872               	movf	?___fladd+2,w
  1654  03EE  00AA               	movwf	___flge@ff1+2
  1655  03EF  0871               	movf	?___fladd+1,w
  1656  03F0  00A9               	movwf	___flge@ff1+1
  1657  03F1  0870               	movf	?___fladd,w
  1658  03F2  00A8               	movwf	___flge@ff1
  1659  03F3  1683               	bsf	3,5	;RP0=1, select bank1
  1660  03F4  1303               	bcf	3,6	;RP1=0, select bank1
  1661  03F5  0833               	movf	(main@FeedBack+3)^(0+128),w
  1662  03F6  1283               	bcf	3,5	;RP0=0, select bank0
  1663  03F7  1303               	bcf	3,6	;RP1=0, select bank0
  1664  03F8  00AF               	movwf	___flge@ff2+3
  1665  03F9  1683               	bsf	3,5	;RP0=1, select bank1
  1666  03FA  1303               	bcf	3,6	;RP1=0, select bank1
  1667  03FB  0832               	movf	(main@FeedBack+2)^(0+128),w
  1668  03FC  1283               	bcf	3,5	;RP0=0, select bank0
  1669  03FD  1303               	bcf	3,6	;RP1=0, select bank0
  1670  03FE  00AE               	movwf	___flge@ff2+2
  1671  03FF  1683               	bsf	3,5	;RP0=1, select bank1
  1672  0400  1303               	bcf	3,6	;RP1=0, select bank1
  1673  0401  0831               	movf	(main@FeedBack+1)^(0+128),w
  1674  0402  1283               	bcf	3,5	;RP0=0, select bank0
  1675  0403  1303               	bcf	3,6	;RP1=0, select bank0
  1676  0404  00AD               	movwf	___flge@ff2+1
  1677  0405  1683               	bsf	3,5	;RP0=1, select bank1
  1678  0406  1303               	bcf	3,6	;RP1=0, select bank1
  1679  0407  0830               	movf	main@FeedBack^(0+128),w
  1680  0408  1283               	bcf	3,5	;RP0=0, select bank0
  1681  0409  1303               	bcf	3,6	;RP1=0, select bank0
  1682  040A  00AC               	movwf	___flge@ff2
  1683  040B  120A  118A  2059  120A  118A  	fcall	___flge
  1684  0410  1803               	btfsc	3,0
  1685  0411  2C13               	goto	u3701
  1686  0412  2C14               	goto	u3700
  1687  0413                     u3701:
  1688  0413  2C2A               	goto	l2716
  1689  0414                     u3700:
  1690  0414                     l2710:
  1691                           
  1692                           ;main.c: 112:         {;main.c: 114:             if(DutyCycle > 0)
  1693  0414  1683               	bsf	3,5	;RP0=1, select bank1
  1694  0415  1303               	bcf	3,6	;RP1=0, select bank1
  1695  0416  0834               	movf	main@DutyCycle^(0+128),w
  1696  0417  1903               	btfsc	3,2
  1697  0418  2C1A               	goto	u3711
  1698  0419  2C1B               	goto	u3710
  1699  041A                     u3711:
  1700  041A  2C1D               	goto	l2714
  1701  041B                     u3710:
  1702  041B                     l2712:
  1703                           
  1704                           ;main.c: 115:             {;main.c: 116:                 DutyCycle -= 1;
  1705  041B  3001               	movlw	1
  1706  041C  02B4               	subwf	main@DutyCycle^(0+128),f
  1707  041D                     l2714:
  1708                           
  1709                           ;main.c: 118:             PWM_SetDutyCycle(0,DutyCycle);
  1710  041D  0834               	movf	main@DutyCycle^(0+128),w
  1711  041E  1283               	bcf	3,5	;RP0=0, select bank0
  1712  041F  1303               	bcf	3,6	;RP1=0, select bank0
  1713  0420  00DA               	movwf	??_main
  1714  0421  085A               	movf	??_main,w
  1715  0422  00F0               	movwf	PWM_SetDutyCycle@dutyCycle
  1716  0423  3000               	movlw	0
  1717  0424  120A  158A  20D9  120A  118A  	fcall	_PWM_SetDutyCycle
  1718                           
  1719                           ;main.c: 119:         }
  1720  0429  2A19               	goto	l2654
  1721  042A                     l2716:
  1722  042A  1683               	bsf	3,5	;RP0=1, select bank1
  1723  042B  1303               	bcf	3,6	;RP1=0, select bank1
  1724  042C  0833               	movf	(main@FeedBack+3)^(0+128),w
  1725  042D  1283               	bcf	3,5	;RP0=0, select bank0
  1726  042E  1303               	bcf	3,6	;RP1=0, select bank0
  1727  042F  00AB               	movwf	___flge@ff1+3
  1728  0430  1683               	bsf	3,5	;RP0=1, select bank1
  1729  0431  1303               	bcf	3,6	;RP1=0, select bank1
  1730  0432  0832               	movf	(main@FeedBack+2)^(0+128),w
  1731  0433  1283               	bcf	3,5	;RP0=0, select bank0
  1732  0434  1303               	bcf	3,6	;RP1=0, select bank0
  1733  0435  00AA               	movwf	___flge@ff1+2
  1734  0436  1683               	bsf	3,5	;RP0=1, select bank1
  1735  0437  1303               	bcf	3,6	;RP1=0, select bank1
  1736  0438  0831               	movf	(main@FeedBack+1)^(0+128),w
  1737  0439  1283               	bcf	3,5	;RP0=0, select bank0
  1738  043A  1303               	bcf	3,6	;RP1=0, select bank0
  1739  043B  00A9               	movwf	___flge@ff1+1
  1740  043C  1683               	bsf	3,5	;RP0=1, select bank1
  1741  043D  1303               	bcf	3,6	;RP1=0, select bank1
  1742  043E  0830               	movf	main@FeedBack^(0+128),w
  1743  043F  1283               	bcf	3,5	;RP0=0, select bank0
  1744  0440  1303               	bcf	3,6	;RP1=0, select bank0
  1745  0441  00A8               	movwf	___flge@ff1
  1746  0442  30C1               	movlw	193
  1747  0443  00F3               	movwf	___fladd@b+3
  1748  0444  30A0               	movlw	160
  1749  0445  00F2               	movwf	___fladd@b+2
  1750  0446  3000               	movlw	0
  1751  0447  00F1               	movwf	___fladd@b+1
  1752  0448  3000               	movlw	0
  1753  0449  00F0               	movwf	___fladd@b
  1754  044A  1683               	bsf	3,5	;RP0=1, select bank1
  1755  044B  1303               	bcf	3,6	;RP1=0, select bank1
  1756  044C  082F               	movf	(main@SetPoint+3)^(0+128),w
  1757  044D  00F7               	movwf	___fladd@a+3
  1758  044E  082E               	movf	(main@SetPoint+2)^(0+128),w
  1759  044F  00F6               	movwf	___fladd@a+2
  1760  0450  082D               	movf	(main@SetPoint+1)^(0+128),w
  1761  0451  00F5               	movwf	___fladd@a+1
  1762  0452  082C               	movf	main@SetPoint^(0+128),w
  1763  0453  00F4               	movwf	___fladd@a
  1764  0454  120A  158A  2568  120A  118A  	fcall	___fladd
  1765  0459  0873               	movf	?___fladd+3,w
  1766  045A  1283               	bcf	3,5	;RP0=0, select bank0
  1767  045B  1303               	bcf	3,6	;RP1=0, select bank0
  1768  045C  00AF               	movwf	___flge@ff2+3
  1769  045D  0872               	movf	?___fladd+2,w
  1770  045E  00AE               	movwf	___flge@ff2+2
  1771  045F  0871               	movf	?___fladd+1,w
  1772  0460  00AD               	movwf	___flge@ff2+1
  1773  0461  0870               	movf	?___fladd,w
  1774  0462  00AC               	movwf	___flge@ff2
  1775  0463  120A  118A  2059  120A  118A  	fcall	___flge
  1776  0468  1803               	btfsc	3,0
  1777  0469  2C6B               	goto	u3721
  1778  046A  2C6C               	goto	u3720
  1779  046B                     u3721:
  1780  046B  2C89               	goto	l43
  1781  046C                     u3720:
  1782  046C                     l2718:
  1783                           
  1784                           ;main.c: 121:         {;main.c: 123:             if(DutyCycle < 100)
  1785  046C  3064               	movlw	100
  1786  046D  1683               	bsf	3,5	;RP0=1, select bank1
  1787  046E  1303               	bcf	3,6	;RP1=0, select bank1
  1788  046F  0234               	subwf	main@DutyCycle^(0+128),w
  1789  0470  1803               	skipnc
  1790  0471  2C73               	goto	u3731
  1791  0472  2C74               	goto	u3730
  1792  0473                     u3731:
  1793  0473  2C7C               	goto	l2722
  1794  0474                     u3730:
  1795  0474                     l2720:
  1796                           
  1797                           ;main.c: 124:             {;main.c: 125:                 DutyCycle += 1;
  1798  0474  3001               	movlw	1
  1799  0475  1283               	bcf	3,5	;RP0=0, select bank0
  1800  0476  1303               	bcf	3,6	;RP1=0, select bank0
  1801  0477  00DA               	movwf	??_main
  1802  0478  085A               	movf	??_main,w
  1803  0479  1683               	bsf	3,5	;RP0=1, select bank1
  1804  047A  1303               	bcf	3,6	;RP1=0, select bank1
  1805  047B  07B4               	addwf	main@DutyCycle^(0+128),f
  1806  047C                     l2722:
  1807                           
  1808                           ;main.c: 127:             PWM_SetDutyCycle(0,DutyCycle);
  1809  047C  0834               	movf	main@DutyCycle^(0+128),w
  1810  047D  1283               	bcf	3,5	;RP0=0, select bank0
  1811  047E  1303               	bcf	3,6	;RP1=0, select bank0
  1812  047F  00DA               	movwf	??_main
  1813  0480  085A               	movf	??_main,w
  1814  0481  00F0               	movwf	PWM_SetDutyCycle@dutyCycle
  1815  0482  3000               	movlw	0
  1816  0483  120A  158A  20D9  120A  118A  	fcall	_PWM_SetDutyCycle
  1817                           
  1818                           ;main.c: 128:         }
  1819  0488  2A19               	goto	l2654
  1820  0489                     l43:
  1821  0489  2A19               	goto	l2654
  1822  048A  120A  118A  2800   	ljmp	start
  1823  048D                     __end_of_main:
  1824                           
  1825                           	psect	text1
  1826  00FD                     __ptext1:	
  1827 ;; *************** function ___xxtofl *****************
  1828 ;; Defined at:
  1829 ;;		line 10 in file "C:\Program Files\Microchip\xc8\v2.35\pic\sources\c90\common\xxtofl.c"
  1830 ;; Parameters:    Size  Location     Type
  1831 ;;  sign            1    wreg     unsigned char 
  1832 ;;  val             4    4[COMMON] long 
  1833 ;; Auto vars:     Size  Location     Type
  1834 ;;  sign            1    0[BANK0 ] unsigned char 
  1835 ;;  arg             4    2[BANK0 ] unsigned long 
  1836 ;;  exp             1    1[BANK0 ] unsigned char 
  1837 ;; Return value:  Size  Location     Type
  1838 ;;                  4    4[COMMON] unsigned char 
  1839 ;; Registers used:
  1840 ;;		wreg, status,2, status,0
  1841 ;; Tracked objects:
  1842 ;;		On entry : 0/0
  1843 ;;		On exit  : 0/0
  1844 ;;		Unchanged: 0/0
  1845 ;; Data sizes:     COMMON   BANK0   BANK1   BANK3   BANK2
  1846 ;;      Params:         4       0       0       0       0
  1847 ;;      Locals:         0       6       0       0       0
  1848 ;;      Temps:          4       0       0       0       0
  1849 ;;      Totals:         8       6       0       0       0
  1850 ;;Total ram usage:       14 bytes
  1851 ;; Hardware stack levels used: 1
  1852 ;; This function calls:
  1853 ;;		Nothing
  1854 ;; This function is called by:
  1855 ;;		_main
  1856 ;; This function uses a non-reentrant model
  1857 ;;
  1858                           
  1859  00FD                     ___xxtofl:	
  1860                           ;psect for function ___xxtofl
  1861                           
  1862                           
  1863                           ;incstack = 0
  1864                           ; Regs used in ___xxtofl: [wreg+status,2+status,0]
  1865                           ;___xxtofl@sign stored from wreg
  1866  00FD  1283               	bcf	3,5	;RP0=0, select bank0
  1867  00FE  1303               	bcf	3,6	;RP1=0, select bank0
  1868  00FF  00A0               	movwf	___xxtofl@sign
  1869  0100                     l2584:
  1870  0100  0820               	movf	___xxtofl@sign,w
  1871  0101  1903               	btfsc	3,2
  1872  0102  2904               	goto	u3551
  1873  0103  2905               	goto	u3550
  1874  0104                     u3551:
  1875  0104  2919               	goto	l2590
  1876  0105                     u3550:
  1877  0105                     l2586:
  1878  0105  1FF7               	btfss	___xxtofl@val+3,7
  1879  0106  2908               	goto	u3561
  1880  0107  2909               	goto	u3560
  1881  0108                     u3561:
  1882  0108  2919               	goto	l2590
  1883  0109                     u3560:
  1884  0109                     l2588:
  1885  0109  0974               	comf	___xxtofl@val,w
  1886  010A  00A2               	movwf	___xxtofl@arg
  1887  010B  0975               	comf	___xxtofl@val+1,w
  1888  010C  00A3               	movwf	___xxtofl@arg+1
  1889  010D  0976               	comf	___xxtofl@val+2,w
  1890  010E  00A4               	movwf	___xxtofl@arg+2
  1891  010F  0977               	comf	___xxtofl@val+3,w
  1892  0110  00A5               	movwf	___xxtofl@arg+3
  1893  0111  0AA2               	incf	___xxtofl@arg,f
  1894  0112  1903               	skipnz
  1895  0113  0AA3               	incf	___xxtofl@arg+1,f
  1896  0114  1903               	skipnz
  1897  0115  0AA4               	incf	___xxtofl@arg+2,f
  1898  0116  1903               	skipnz
  1899  0117  0AA5               	incf	___xxtofl@arg+3,f
  1900  0118  2921               	goto	l721
  1901  0119                     l2590:
  1902  0119  0877               	movf	___xxtofl@val+3,w
  1903  011A  00A5               	movwf	___xxtofl@arg+3
  1904  011B  0876               	movf	___xxtofl@val+2,w
  1905  011C  00A4               	movwf	___xxtofl@arg+2
  1906  011D  0875               	movf	___xxtofl@val+1,w
  1907  011E  00A3               	movwf	___xxtofl@arg+1
  1908  011F  0874               	movf	___xxtofl@val,w
  1909  0120  00A2               	movwf	___xxtofl@arg
  1910  0121                     l721:
  1911  0121  0877               	movf	___xxtofl@val+3,w
  1912  0122  0476               	iorwf	___xxtofl@val+2,w
  1913  0123  0475               	iorwf	___xxtofl@val+1,w
  1914  0124  0474               	iorwf	___xxtofl@val,w
  1915  0125  1D03               	skipz
  1916  0126  2928               	goto	u3571
  1917  0127  2929               	goto	u3570
  1918  0128                     u3571:
  1919  0128  2932               	goto	l2596
  1920  0129                     u3570:
  1921  0129                     l2592:
  1922  0129  3000               	movlw	0
  1923  012A  00F7               	movwf	?___xxtofl+3
  1924  012B  3000               	movlw	0
  1925  012C  00F6               	movwf	?___xxtofl+2
  1926  012D  3000               	movlw	0
  1927  012E  00F5               	movwf	?___xxtofl+1
  1928  012F  3000               	movlw	0
  1929  0130  00F4               	movwf	?___xxtofl
  1930  0131  29B8               	goto	l723
  1931  0132                     l2596:
  1932  0132  3096               	movlw	150
  1933  0133  00F8               	movwf	??___xxtofl
  1934  0134  0878               	movf	??___xxtofl,w
  1935  0135  00A1               	movwf	___xxtofl@exp
  1936  0136  2944               	goto	l2600
  1937  0137                     l2598:
  1938  0137  3001               	movlw	1
  1939  0138  00F8               	movwf	??___xxtofl
  1940  0139  0878               	movf	??___xxtofl,w
  1941  013A  07A1               	addwf	___xxtofl@exp,f
  1942  013B  3001               	movlw	1
  1943  013C                     u3585:
  1944  013C  1003               	clrc
  1945  013D  0CA5               	rrf	___xxtofl@arg+3,f
  1946  013E  0CA4               	rrf	___xxtofl@arg+2,f
  1947  013F  0CA3               	rrf	___xxtofl@arg+1,f
  1948  0140  0CA2               	rrf	___xxtofl@arg,f
  1949  0141  3EFF               	addlw	-1
  1950  0142  1D03               	skipz
  1951  0143  293C               	goto	u3585
  1952  0144                     l2600:
  1953  0144  30FE               	movlw	254
  1954  0145  0525               	andwf	___xxtofl@arg+3,w
  1955  0146  1D03               	btfss	3,2
  1956  0147  2949               	goto	u3591
  1957  0148  294A               	goto	u3590
  1958  0149                     u3591:
  1959  0149  2937               	goto	l2598
  1960  014A                     u3590:
  1961  014A  2966               	goto	l727
  1962  014B                     l2602:
  1963  014B  3001               	movlw	1
  1964  014C  00F8               	movwf	??___xxtofl
  1965  014D  0878               	movf	??___xxtofl,w
  1966  014E  07A1               	addwf	___xxtofl@exp,f
  1967  014F                     l2604:
  1968  014F  3001               	movlw	1
  1969  0150  07A2               	addwf	___xxtofl@arg,f
  1970  0151  3000               	movlw	0
  1971  0152  1803               	skipnc
  1972  0153  3001               	movlw	1
  1973  0154  07A3               	addwf	___xxtofl@arg+1,f
  1974  0155  3000               	movlw	0
  1975  0156  1803               	skipnc
  1976  0157  3001               	movlw	1
  1977  0158  07A4               	addwf	___xxtofl@arg+2,f
  1978  0159  3000               	movlw	0
  1979  015A  1803               	skipnc
  1980  015B  3001               	movlw	1
  1981  015C  07A5               	addwf	___xxtofl@arg+3,f
  1982  015D                     l2606:
  1983  015D  3001               	movlw	1
  1984  015E                     u3605:
  1985  015E  1003               	clrc
  1986  015F  0CA5               	rrf	___xxtofl@arg+3,f
  1987  0160  0CA4               	rrf	___xxtofl@arg+2,f
  1988  0161  0CA3               	rrf	___xxtofl@arg+1,f
  1989  0162  0CA2               	rrf	___xxtofl@arg,f
  1990  0163  3EFF               	addlw	-1
  1991  0164  1D03               	skipz
  1992  0165  295E               	goto	u3605
  1993  0166                     l727:
  1994  0166  30FF               	movlw	255
  1995  0167  0525               	andwf	___xxtofl@arg+3,w
  1996  0168  1D03               	btfss	3,2
  1997  0169  296B               	goto	u3611
  1998  016A  296C               	goto	u3610
  1999  016B                     u3611:
  2000  016B  294B               	goto	l2602
  2001  016C                     u3610:
  2002  016C  2978               	goto	l2610
  2003  016D                     l2608:
  2004  016D  3001               	movlw	1
  2005  016E  02A1               	subwf	___xxtofl@exp,f
  2006  016F  3001               	movlw	1
  2007  0170  00F8               	movwf	??___xxtofl
  2008  0171                     u3625:
  2009  0171  1003               	clrc
  2010  0172  0DA2               	rlf	___xxtofl@arg,f
  2011  0173  0DA3               	rlf	___xxtofl@arg+1,f
  2012  0174  0DA4               	rlf	___xxtofl@arg+2,f
  2013  0175  0DA5               	rlf	___xxtofl@arg+3,f
  2014  0176  0BF8               	decfsz	??___xxtofl,f
  2015  0177  2971               	goto	u3625
  2016  0178                     l2610:
  2017  0178  1BA4               	btfsc	___xxtofl@arg+2,7
  2018  0179  297B               	goto	u3631
  2019  017A  297C               	goto	u3630
  2020  017B                     u3631:
  2021  017B  2982               	goto	l734
  2022  017C                     u3630:
  2023  017C                     l2612:
  2024  017C  3002               	movlw	2
  2025  017D  0221               	subwf	___xxtofl@exp,w
  2026  017E  1803               	skipnc
  2027  017F  2981               	goto	u3641
  2028  0180  2982               	goto	u3640
  2029  0181                     u3641:
  2030  0181  296D               	goto	l2608
  2031  0182                     u3640:
  2032  0182                     l734:
  2033  0182  1821               	btfsc	___xxtofl@exp,0
  2034  0183  2985               	goto	u3651
  2035  0184  2986               	goto	u3650
  2036  0185                     u3651:
  2037  0185  298E               	goto	l735
  2038  0186                     u3650:
  2039  0186                     l2614:
  2040  0186  30FF               	movlw	255
  2041  0187  05A2               	andwf	___xxtofl@arg,f
  2042  0188  30FF               	movlw	255
  2043  0189  05A3               	andwf	___xxtofl@arg+1,f
  2044  018A  307F               	movlw	127
  2045  018B  05A4               	andwf	___xxtofl@arg+2,f
  2046  018C  30FF               	movlw	255
  2047  018D  05A5               	andwf	___xxtofl@arg+3,f
  2048  018E                     l735:
  2049  018E  1003               	clrc
  2050  018F  0CA1               	rrf	___xxtofl@exp,f
  2051  0190                     l2616:
  2052  0190  0821               	movf	___xxtofl@exp,w
  2053  0191  00F8               	movwf	??___xxtofl
  2054  0192  01F9               	clrf	??___xxtofl+1
  2055  0193  01FA               	clrf	??___xxtofl+2
  2056  0194  01FB               	clrf	??___xxtofl+3
  2057  0195  3018               	movlw	24
  2058  0196                     u3665:
  2059  0196  1003               	clrc
  2060  0197  0DF8               	rlf	??___xxtofl,f
  2061  0198  0DF9               	rlf	??___xxtofl+1,f
  2062  0199  0DFA               	rlf	??___xxtofl+2,f
  2063  019A  0DFB               	rlf	??___xxtofl+3,f
  2064  019B                     u3660:
  2065  019B  3EFF               	addlw	-1
  2066  019C  1D03               	skipz
  2067  019D  2996               	goto	u3665
  2068  019E  0878               	movf	??___xxtofl,w
  2069  019F  04A2               	iorwf	___xxtofl@arg,f
  2070  01A0  0879               	movf	??___xxtofl+1,w
  2071  01A1  04A3               	iorwf	___xxtofl@arg+1,f
  2072  01A2  087A               	movf	??___xxtofl+2,w
  2073  01A3  04A4               	iorwf	___xxtofl@arg+2,f
  2074  01A4  087B               	movf	??___xxtofl+3,w
  2075  01A5  04A5               	iorwf	___xxtofl@arg+3,f
  2076  01A6                     l2618:
  2077  01A6  0820               	movf	___xxtofl@sign,w
  2078  01A7  1903               	btfsc	3,2
  2079  01A8  29AA               	goto	u3671
  2080  01A9  29AB               	goto	u3670
  2081  01AA                     u3671:
  2082  01AA  29B0               	goto	l2624
  2083  01AB                     u3670:
  2084  01AB                     l2620:
  2085  01AB  1FF7               	btfss	___xxtofl@val+3,7
  2086  01AC  29AE               	goto	u3681
  2087  01AD  29AF               	goto	u3680
  2088  01AE                     u3681:
  2089  01AE  29B0               	goto	l2624
  2090  01AF                     u3680:
  2091  01AF                     l2622:
  2092  01AF  17A5               	bsf	___xxtofl@arg+3,7
  2093  01B0                     l2624:
  2094  01B0  0825               	movf	___xxtofl@arg+3,w
  2095  01B1  00F7               	movwf	?___xxtofl+3
  2096  01B2  0824               	movf	___xxtofl@arg+2,w
  2097  01B3  00F6               	movwf	?___xxtofl+2
  2098  01B4  0823               	movf	___xxtofl@arg+1,w
  2099  01B5  00F5               	movwf	?___xxtofl+1
  2100  01B6  0822               	movf	___xxtofl@arg,w
  2101  01B7  00F4               	movwf	?___xxtofl
  2102  01B8                     l723:
  2103  01B8  0008               	return
  2104  01B9                     __end_of___xxtofl:
  2105                           
  2106                           	psect	text2
  2107  0B11                     __ptext2:	
  2108 ;; *************** function ___fltol *****************
  2109 ;; Defined at:
  2110 ;;		line 43 in file "C:\Program Files\Microchip\xc8\v2.35\pic\sources\c90\common\fltol.c"
  2111 ;; Parameters:    Size  Location     Type
  2112 ;;  f1              4    0[COMMON] unsigned char 
  2113 ;; Auto vars:     Size  Location     Type
  2114 ;;  exp1            1   10[COMMON] unsigned char 
  2115 ;;  sign1           1    9[COMMON] unsigned char 
  2116 ;; Return value:  Size  Location     Type
  2117 ;;                  4    0[COMMON] long 
  2118 ;; Registers used:
  2119 ;;		wreg, status,2, status,0
  2120 ;; Tracked objects:
  2121 ;;		On entry : 0/0
  2122 ;;		On exit  : 0/0
  2123 ;;		Unchanged: 0/0
  2124 ;; Data sizes:     COMMON   BANK0   BANK1   BANK3   BANK2
  2125 ;;      Params:         4       0       0       0       0
  2126 ;;      Locals:         2       0       0       0       0
  2127 ;;      Temps:          5       0       0       0       0
  2128 ;;      Totals:        11       0       0       0       0
  2129 ;;Total ram usage:       11 bytes
  2130 ;; Hardware stack levels used: 1
  2131 ;; This function calls:
  2132 ;;		Nothing
  2133 ;; This function is called by:
  2134 ;;		_main
  2135 ;; This function uses a non-reentrant model
  2136 ;;
  2137                           
  2138  0B11                     ___fltol:	
  2139                           ;psect for function ___fltol
  2140                           
  2141  0B11                     l2072:	
  2142                           ;incstack = 0
  2143                           ; Regs used in ___fltol: [wreg+status,2+status,0]
  2144                           
  2145  0B11  1003               	clrc
  2146  0B12  0D72               	rlf	___fltol@f1+2,w
  2147  0B13  0D73               	rlf	___fltol@f1+3,w
  2148  0B14  00F4               	movwf	??___fltol
  2149  0B15  0874               	movf	??___fltol,w
  2150  0B16  00FA               	movwf	___fltol@exp1
  2151  0B17  087A               	movf	___fltol@exp1,w
  2152  0B18  1D03               	btfss	3,2
  2153  0B19  2B1B               	goto	u2331
  2154  0B1A  2B1C               	goto	u2330
  2155  0B1B                     u2331:
  2156  0B1B  2B25               	goto	l2078
  2157  0B1C                     u2330:
  2158  0B1C                     l2074:
  2159  0B1C  3000               	movlw	0
  2160  0B1D  00F3               	movwf	?___fltol+3
  2161  0B1E  3000               	movlw	0
  2162  0B1F  00F2               	movwf	?___fltol+2
  2163  0B20  3000               	movlw	0
  2164  0B21  00F1               	movwf	?___fltol+1
  2165  0B22  3000               	movlw	0
  2166  0B23  00F0               	movwf	?___fltol
  2167  0B24  2B8A               	goto	l474
  2168  0B25                     l2078:
  2169  0B25  0870               	movf	___fltol@f1,w
  2170  0B26  00F4               	movwf	??___fltol
  2171  0B27  0871               	movf	___fltol@f1+1,w
  2172  0B28  00F5               	movwf	??___fltol+1
  2173  0B29  0872               	movf	___fltol@f1+2,w
  2174  0B2A  00F6               	movwf	??___fltol+2
  2175  0B2B  0873               	movf	___fltol@f1+3,w
  2176  0B2C  00F7               	movwf	??___fltol+3
  2177  0B2D  301F               	movlw	31
  2178  0B2E                     u2345:
  2179  0B2E  1003               	clrc
  2180  0B2F  0CF7               	rrf	??___fltol+3,f
  2181  0B30  0CF6               	rrf	??___fltol+2,f
  2182  0B31  0CF5               	rrf	??___fltol+1,f
  2183  0B32  0CF4               	rrf	??___fltol,f
  2184  0B33                     u2340:
  2185  0B33  3EFF               	addlw	-1
  2186  0B34  1D03               	skipz
  2187  0B35  2B2E               	goto	u2345
  2188  0B36  0874               	movf	??___fltol,w
  2189  0B37  00F8               	movwf	??___fltol+4
  2190  0B38  0878               	movf	??___fltol+4,w
  2191  0B39  00F9               	movwf	___fltol@sign1
  2192  0B3A                     l2080:
  2193  0B3A  17F2               	bsf	___fltol@f1+2,7
  2194  0B3B                     l2082:
  2195  0B3B  30FF               	movlw	255
  2196  0B3C  05F0               	andwf	___fltol@f1,f
  2197  0B3D  30FF               	movlw	255
  2198  0B3E  05F1               	andwf	___fltol@f1+1,f
  2199  0B3F  30FF               	movlw	255
  2200  0B40  05F2               	andwf	___fltol@f1+2,f
  2201  0B41  3000               	movlw	0
  2202  0B42  05F3               	andwf	___fltol@f1+3,f
  2203  0B43                     l2084:
  2204  0B43  3096               	movlw	150
  2205  0B44  02FA               	subwf	___fltol@exp1,f
  2206  0B45                     l2086:
  2207  0B45  1FFA               	btfss	___fltol@exp1,7
  2208  0B46  2B48               	goto	u2351
  2209  0B47  2B49               	goto	u2350
  2210  0B48                     u2351:
  2211  0B48  2B63               	goto	l2096
  2212  0B49                     u2350:
  2213  0B49                     l2088:
  2214  0B49  087A               	movf	___fltol@exp1,w
  2215  0B4A  3A80               	xorlw	128
  2216  0B4B  3E97               	addlw	151
  2217  0B4C  1803               	skipnc
  2218  0B4D  2B4F               	goto	u2361
  2219  0B4E  2B50               	goto	u2360
  2220  0B4F                     u2361:
  2221  0B4F  2B51               	goto	l2094
  2222  0B50                     u2360:
  2223  0B50  2B1C               	goto	l2074
  2224  0B51                     l2094:
  2225  0B51  3001               	movlw	1
  2226  0B52                     u2375:
  2227  0B52  1003               	clrc
  2228  0B53  0CF3               	rrf	___fltol@f1+3,f
  2229  0B54  0CF2               	rrf	___fltol@f1+2,f
  2230  0B55  0CF1               	rrf	___fltol@f1+1,f
  2231  0B56  0CF0               	rrf	___fltol@f1,f
  2232  0B57  3EFF               	addlw	-1
  2233  0B58  1D03               	skipz
  2234  0B59  2B52               	goto	u2375
  2235  0B5A  3001               	movlw	1
  2236  0B5B  00F4               	movwf	??___fltol
  2237  0B5C  0874               	movf	??___fltol,w
  2238  0B5D  07FA               	addwf	___fltol@exp1,f
  2239  0B5E  1D03               	btfss	3,2
  2240  0B5F  2B61               	goto	u2381
  2241  0B60  2B62               	goto	u2380
  2242  0B61                     u2381:
  2243  0B61  2B51               	goto	l2094
  2244  0B62                     u2380:
  2245  0B62  2B7A               	goto	l2104
  2246  0B63                     l2096:
  2247  0B63  3020               	movlw	32
  2248  0B64  027A               	subwf	___fltol@exp1,w
  2249  0B65  1C03               	skipc
  2250  0B66  2B68               	goto	u2391
  2251  0B67  2B69               	goto	u2390
  2252  0B68                     u2391:
  2253  0B68  2B75               	goto	l481
  2254  0B69                     u2390:
  2255  0B69  2B1C               	goto	l2074
  2256  0B6A                     l2102:
  2257  0B6A  3001               	movlw	1
  2258  0B6B  00F4               	movwf	??___fltol
  2259  0B6C                     u2405:
  2260  0B6C  1003               	clrc
  2261  0B6D  0DF0               	rlf	___fltol@f1,f
  2262  0B6E  0DF1               	rlf	___fltol@f1+1,f
  2263  0B6F  0DF2               	rlf	___fltol@f1+2,f
  2264  0B70  0DF3               	rlf	___fltol@f1+3,f
  2265  0B71  0BF4               	decfsz	??___fltol,f
  2266  0B72  2B6C               	goto	u2405
  2267  0B73  3001               	movlw	1
  2268  0B74  02FA               	subwf	___fltol@exp1,f
  2269  0B75                     l481:
  2270  0B75  087A               	movf	___fltol@exp1,w
  2271  0B76  1D03               	btfss	3,2
  2272  0B77  2B79               	goto	u2411
  2273  0B78  2B7A               	goto	u2410
  2274  0B79                     u2411:
  2275  0B79  2B6A               	goto	l2102
  2276  0B7A                     u2410:
  2277  0B7A                     l2104:
  2278  0B7A  0879               	movf	___fltol@sign1,w
  2279  0B7B  1903               	btfsc	3,2
  2280  0B7C  2B7E               	goto	u2421
  2281  0B7D  2B7F               	goto	u2420
  2282  0B7E                     u2421:
  2283  0B7E  2B8A               	goto	l484
  2284  0B7F                     u2420:
  2285  0B7F                     l2106:
  2286  0B7F  09F0               	comf	___fltol@f1,f
  2287  0B80  09F1               	comf	___fltol@f1+1,f
  2288  0B81  09F2               	comf	___fltol@f1+2,f
  2289  0B82  09F3               	comf	___fltol@f1+3,f
  2290  0B83  0AF0               	incf	___fltol@f1,f
  2291  0B84  1903               	skipnz
  2292  0B85  0AF1               	incf	___fltol@f1+1,f
  2293  0B86  1903               	skipnz
  2294  0B87  0AF2               	incf	___fltol@f1+2,f
  2295  0B88  1903               	skipnz
  2296  0B89  0AF3               	incf	___fltol@f1+3,f
  2297  0B8A                     l484:
  2298  0B8A                     l474:
  2299  0B8A  0008               	return
  2300  0B8B                     __end_of___fltol:
  2301                           
  2302                           	psect	text3
  2303  048D                     __ptext3:	
  2304 ;; *************** function ___flmul *****************
  2305 ;; Defined at:
  2306 ;;		line 8 in file "C:\Program Files\Microchip\xc8\v2.35\pic\sources\c90\common\sprcmul.c"
  2307 ;; Parameters:    Size  Location     Type
  2308 ;;  b               4    6[BANK0 ] long 
  2309 ;;  a               4   10[BANK0 ] long 
  2310 ;; Auto vars:     Size  Location     Type
  2311 ;;  prod            4   26[BANK0 ] struct .
  2312 ;;  grs             4   20[BANK0 ] unsigned long 
  2313 ;;  temp            2   30[BANK0 ] struct .
  2314 ;;  bexp            1   25[BANK0 ] unsigned char 
  2315 ;;  aexp            1   24[BANK0 ] unsigned char 
  2316 ;;  sign            1   19[BANK0 ] unsigned char 
  2317 ;; Return value:  Size  Location     Type
  2318 ;;                  4    6[BANK0 ] unsigned char 
  2319 ;; Registers used:
  2320 ;;		wreg, status,2, status,0, btemp+1, pclath, cstack
  2321 ;; Tracked objects:
  2322 ;;		On entry : 0/0
  2323 ;;		On exit  : 0/0
  2324 ;;		Unchanged: 0/0
  2325 ;; Data sizes:     COMMON   BANK0   BANK1   BANK3   BANK2
  2326 ;;      Params:         0       8       0       0       0
  2327 ;;      Locals:         0      13       0       0       0
  2328 ;;      Temps:          0       5       0       0       0
  2329 ;;      Totals:         0      26       0       0       0
  2330 ;;Total ram usage:       26 bytes
  2331 ;; Hardware stack levels used: 1
  2332 ;; Hardware stack levels required when called: 1
  2333 ;; This function calls:
  2334 ;;		__Umul8_16
  2335 ;; This function is called by:
  2336 ;;		_main
  2337 ;; This function uses a non-reentrant model
  2338 ;;
  2339                           
  2340  048D                     ___flmul:	
  2341                           ;psect for function ___flmul
  2342                           
  2343  048D                     l2444:	
  2344                           ;incstack = 0
  2345                           ; Regs used in ___flmul: [wreg+status,2+status,0+btemp+1+pclath+cstack]
  2346                           
  2347  048D  1283               	bcf	3,5	;RP0=0, select bank0
  2348  048E  1303               	bcf	3,6	;RP1=0, select bank0
  2349  048F  0829               	movf	___flmul@b+3,w
  2350  0490  3980               	andlw	128
  2351  0491  00AE               	movwf	??___flmul
  2352  0492  082E               	movf	??___flmul,w
  2353  0493  00B3               	movwf	___flmul@sign
  2354  0494                     l2446:
  2355  0494  0829               	movf	___flmul@b+3,w
  2356  0495  00AE               	movwf	??___flmul
  2357  0496  072E               	addwf	??___flmul,w
  2358  0497  00AF               	movwf	??___flmul+1
  2359  0498  082F               	movf	??___flmul+1,w
  2360  0499  00B9               	movwf	___flmul@bexp
  2361  049A                     l2448:
  2362  049A  1FA8               	btfss	___flmul@b+2,7
  2363  049B  2C9D               	goto	u3181
  2364  049C  2C9E               	goto	u3180
  2365  049D                     u3181:
  2366  049D  2C9F               	goto	l2452
  2367  049E                     u3180:
  2368  049E                     l2450:
  2369  049E  1439               	bsf	___flmul@bexp,0
  2370  049F                     l2452:
  2371  049F  0839               	movf	___flmul@bexp,w
  2372  04A0  1903               	btfsc	3,2
  2373  04A1  2CA3               	goto	u3191
  2374  04A2  2CA4               	goto	u3190
  2375  04A3                     u3191:
  2376  04A3  2CB3               	goto	l2460
  2377  04A4                     u3190:
  2378  04A4                     l2454:
  2379  04A4  0A39               	incf	___flmul@bexp,w
  2380  04A5  1D03               	btfss	3,2
  2381  04A6  2CA8               	goto	u3201
  2382  04A7  2CA9               	goto	u3200
  2383  04A8                     u3201:
  2384  04A8  2CB1               	goto	l2458
  2385  04A9                     u3200:
  2386  04A9                     l2456:
  2387  04A9  3000               	movlw	0
  2388  04AA  00A9               	movwf	___flmul@b+3
  2389  04AB  3000               	movlw	0
  2390  04AC  00A8               	movwf	___flmul@b+2
  2391  04AD  3000               	movlw	0
  2392  04AE  00A7               	movwf	___flmul@b+1
  2393  04AF  3000               	movlw	0
  2394  04B0  00A6               	movwf	___flmul@b
  2395  04B1                     l2458:
  2396  04B1  17A8               	bsf	___flmul@b+2,7
  2397  04B2  2CBB               	goto	l2462
  2398  04B3                     l2460:
  2399  04B3  3000               	movlw	0
  2400  04B4  00A9               	movwf	___flmul@b+3
  2401  04B5  3000               	movlw	0
  2402  04B6  00A8               	movwf	___flmul@b+2
  2403  04B7  3000               	movlw	0
  2404  04B8  00A7               	movwf	___flmul@b+1
  2405  04B9  3000               	movlw	0
  2406  04BA  00A6               	movwf	___flmul@b
  2407  04BB                     l2462:
  2408  04BB  082D               	movf	___flmul@a+3,w
  2409  04BC  3980               	andlw	128
  2410  04BD  00AE               	movwf	??___flmul
  2411  04BE  082E               	movf	??___flmul,w
  2412  04BF  06B3               	xorwf	___flmul@sign,f
  2413  04C0                     l2464:
  2414  04C0  082D               	movf	___flmul@a+3,w
  2415  04C1  00AE               	movwf	??___flmul
  2416  04C2  072E               	addwf	??___flmul,w
  2417  04C3  00AF               	movwf	??___flmul+1
  2418  04C4  082F               	movf	??___flmul+1,w
  2419  04C5  00B8               	movwf	___flmul@aexp
  2420  04C6                     l2466:
  2421  04C6  1FAC               	btfss	___flmul@a+2,7
  2422  04C7  2CC9               	goto	u3211
  2423  04C8  2CCA               	goto	u3210
  2424  04C9                     u3211:
  2425  04C9  2CCB               	goto	l2470
  2426  04CA                     u3210:
  2427  04CA                     l2468:
  2428  04CA  1438               	bsf	___flmul@aexp,0
  2429  04CB                     l2470:
  2430  04CB  0838               	movf	___flmul@aexp,w
  2431  04CC  1903               	btfsc	3,2
  2432  04CD  2CCF               	goto	u3221
  2433  04CE  2CD0               	goto	u3220
  2434  04CF                     u3221:
  2435  04CF  2CDF               	goto	l2478
  2436  04D0                     u3220:
  2437  04D0                     l2472:
  2438  04D0  0A38               	incf	___flmul@aexp,w
  2439  04D1  1D03               	btfss	3,2
  2440  04D2  2CD4               	goto	u3231
  2441  04D3  2CD5               	goto	u3230
  2442  04D4                     u3231:
  2443  04D4  2CDD               	goto	l2476
  2444  04D5                     u3230:
  2445  04D5                     l2474:
  2446  04D5  3000               	movlw	0
  2447  04D6  00AD               	movwf	___flmul@a+3
  2448  04D7  3000               	movlw	0
  2449  04D8  00AC               	movwf	___flmul@a+2
  2450  04D9  3000               	movlw	0
  2451  04DA  00AB               	movwf	___flmul@a+1
  2452  04DB  3000               	movlw	0
  2453  04DC  00AA               	movwf	___flmul@a
  2454  04DD                     l2476:
  2455  04DD  17AC               	bsf	___flmul@a+2,7
  2456  04DE  2CE7               	goto	l2480
  2457  04DF                     l2478:
  2458  04DF  3000               	movlw	0
  2459  04E0  00AD               	movwf	___flmul@a+3
  2460  04E1  3000               	movlw	0
  2461  04E2  00AC               	movwf	___flmul@a+2
  2462  04E3  3000               	movlw	0
  2463  04E4  00AB               	movwf	___flmul@a+1
  2464  04E5  3000               	movlw	0
  2465  04E6  00AA               	movwf	___flmul@a
  2466  04E7                     l2480:
  2467  04E7  0838               	movf	___flmul@aexp,w
  2468  04E8  1903               	btfsc	3,2
  2469  04E9  2CEB               	goto	u3241
  2470  04EA  2CEC               	goto	u3240
  2471  04EB                     u3241:
  2472  04EB  2CF1               	goto	l2484
  2473  04EC                     u3240:
  2474  04EC                     l2482:
  2475  04EC  0839               	movf	___flmul@bexp,w
  2476  04ED  1D03               	btfss	3,2
  2477  04EE  2CF0               	goto	u3251
  2478  04EF  2CF1               	goto	u3250
  2479  04F0                     u3251:
  2480  04F0  2CFA               	goto	l2488
  2481  04F1                     u3250:
  2482  04F1                     l2484:
  2483  04F1  3000               	movlw	0
  2484  04F2  00A9               	movwf	?___flmul+3
  2485  04F3  3000               	movlw	0
  2486  04F4  00A8               	movwf	?___flmul+2
  2487  04F5  3000               	movlw	0
  2488  04F6  00A7               	movwf	?___flmul+1
  2489  04F7  3000               	movlw	0
  2490  04F8  00A6               	movwf	?___flmul
  2491  04F9  2FED               	goto	l677
  2492  04FA                     l2488:
  2493  04FA  0826               	movf	___flmul@b,w
  2494  04FB  00AE               	movwf	??___flmul
  2495  04FC  082E               	movf	??___flmul,w
  2496  04FD  00F0               	movwf	__Umul8_16@multiplicand
  2497  04FE  082C               	movf	___flmul@a+2,w
  2498  04FF  120A  158A  2100  120A  118A  	fcall	__Umul8_16
  2499  0504  0871               	movf	?__Umul8_16+1,w
  2500  0505  1283               	bcf	3,5	;RP0=0, select bank0
  2501  0506  1303               	bcf	3,6	;RP1=0, select bank0
  2502  0507  00BF               	movwf	___flmul@temp+1
  2503  0508  0870               	movf	?__Umul8_16,w
  2504  0509  00BE               	movwf	___flmul@temp
  2505  050A                     l2490:
  2506  050A  083E               	movf	___flmul@temp,w
  2507  050B  00AE               	movwf	??___flmul
  2508  050C  01AF               	clrf	??___flmul+1
  2509  050D  01B0               	clrf	??___flmul+2
  2510  050E  01B1               	clrf	??___flmul+3
  2511  050F  0831               	movf	??___flmul+3,w
  2512  0510  00B7               	movwf	___flmul@grs+3
  2513  0511  0830               	movf	??___flmul+2,w
  2514  0512  00B6               	movwf	___flmul@grs+2
  2515  0513  082F               	movf	??___flmul+1,w
  2516  0514  00B5               	movwf	___flmul@grs+1
  2517  0515  082E               	movf	??___flmul,w
  2518  0516  00B4               	movwf	___flmul@grs
  2519  0517                     l2492:
  2520  0517  083F               	movf	___flmul@temp+1,w
  2521  0518  00AE               	movwf	??___flmul
  2522  0519  01AF               	clrf	??___flmul+1
  2523  051A  01B0               	clrf	??___flmul+2
  2524  051B  01B1               	clrf	??___flmul+3
  2525  051C  0831               	movf	??___flmul+3,w
  2526  051D  00BD               	movwf	___flmul@prod+3
  2527  051E  0830               	movf	??___flmul+2,w
  2528  051F  00BC               	movwf	___flmul@prod+2
  2529  0520  082F               	movf	??___flmul+1,w
  2530  0521  00BB               	movwf	___flmul@prod+1
  2531  0522  082E               	movf	??___flmul,w
  2532  0523  00BA               	movwf	___flmul@prod
  2533  0524  0827               	movf	___flmul@b+1,w
  2534  0525  00AE               	movwf	??___flmul
  2535  0526  082E               	movf	??___flmul,w
  2536  0527  00F0               	movwf	__Umul8_16@multiplicand
  2537  0528  082B               	movf	___flmul@a+1,w
  2538  0529  120A  158A  2100  120A  118A  	fcall	__Umul8_16
  2539  052E  0871               	movf	?__Umul8_16+1,w
  2540  052F  1283               	bcf	3,5	;RP0=0, select bank0
  2541  0530  1303               	bcf	3,6	;RP1=0, select bank0
  2542  0531  00BF               	movwf	___flmul@temp+1
  2543  0532  0870               	movf	?__Umul8_16,w
  2544  0533  00BE               	movwf	___flmul@temp
  2545  0534                     l2494:
  2546  0534  083E               	movf	___flmul@temp,w
  2547  0535  00AE               	movwf	??___flmul
  2548  0536  01AF               	clrf	??___flmul+1
  2549  0537  01B0               	clrf	??___flmul+2
  2550  0538  01B1               	clrf	??___flmul+3
  2551  0539  082E               	movf	??___flmul,w
  2552  053A  07B4               	addwf	___flmul@grs,f
  2553  053B  082F               	movf	??___flmul+1,w
  2554  053C  1103               	clrz
  2555  053D  1803               	skipnc
  2556  053E  3E01               	addlw	1
  2557  053F  1903               	skipnz
  2558  0540  2D42               	goto	u3261
  2559  0541  07B5               	addwf	___flmul@grs+1,f
  2560  0542                     u3261:
  2561  0542  0830               	movf	??___flmul+2,w
  2562  0543  1103               	clrz
  2563  0544  1803               	skipnc
  2564  0545  3E01               	addlw	1
  2565  0546  1903               	skipnz
  2566  0547  2D49               	goto	u3262
  2567  0548  07B6               	addwf	___flmul@grs+2,f
  2568  0549                     u3262:
  2569  0549  0831               	movf	??___flmul+3,w
  2570  054A  1103               	clrz
  2571  054B  1803               	skipnc
  2572  054C  3E01               	addlw	1
  2573  054D  1903               	skipnz
  2574  054E  2D50               	goto	u3263
  2575  054F  07B7               	addwf	___flmul@grs+3,f
  2576  0550                     u3263:
  2577  0550                     l2496:
  2578  0550  083F               	movf	___flmul@temp+1,w
  2579  0551  00AE               	movwf	??___flmul
  2580  0552  01AF               	clrf	??___flmul+1
  2581  0553  01B0               	clrf	??___flmul+2
  2582  0554  01B1               	clrf	??___flmul+3
  2583  0555  082E               	movf	??___flmul,w
  2584  0556  07BA               	addwf	___flmul@prod,f
  2585  0557  082F               	movf	??___flmul+1,w
  2586  0558  1103               	clrz
  2587  0559  1803               	skipnc
  2588  055A  3E01               	addlw	1
  2589  055B  1903               	skipnz
  2590  055C  2D5E               	goto	u3271
  2591  055D  07BB               	addwf	___flmul@prod+1,f
  2592  055E                     u3271:
  2593  055E  0830               	movf	??___flmul+2,w
  2594  055F  1103               	clrz
  2595  0560  1803               	skipnc
  2596  0561  3E01               	addlw	1
  2597  0562  1903               	skipnz
  2598  0563  2D65               	goto	u3272
  2599  0564  07BC               	addwf	___flmul@prod+2,f
  2600  0565                     u3272:
  2601  0565  0831               	movf	??___flmul+3,w
  2602  0566  1103               	clrz
  2603  0567  1803               	skipnc
  2604  0568  3E01               	addlw	1
  2605  0569  1903               	skipnz
  2606  056A  2D6C               	goto	u3273
  2607  056B  07BD               	addwf	___flmul@prod+3,f
  2608  056C                     u3273:
  2609  056C  0828               	movf	___flmul@b+2,w
  2610  056D  00AE               	movwf	??___flmul
  2611  056E  082E               	movf	??___flmul,w
  2612  056F  00F0               	movwf	__Umul8_16@multiplicand
  2613  0570  082A               	movf	___flmul@a,w
  2614  0571  120A  158A  2100  120A  118A  	fcall	__Umul8_16
  2615  0576  0871               	movf	?__Umul8_16+1,w
  2616  0577  1283               	bcf	3,5	;RP0=0, select bank0
  2617  0578  1303               	bcf	3,6	;RP1=0, select bank0
  2618  0579  00BF               	movwf	___flmul@temp+1
  2619  057A  0870               	movf	?__Umul8_16,w
  2620  057B  00BE               	movwf	___flmul@temp
  2621  057C                     l2498:
  2622  057C  083E               	movf	___flmul@temp,w
  2623  057D  00AE               	movwf	??___flmul
  2624  057E  01AF               	clrf	??___flmul+1
  2625  057F  01B0               	clrf	??___flmul+2
  2626  0580  01B1               	clrf	??___flmul+3
  2627  0581  082E               	movf	??___flmul,w
  2628  0582  07B4               	addwf	___flmul@grs,f
  2629  0583  082F               	movf	??___flmul+1,w
  2630  0584  1103               	clrz
  2631  0585  1803               	skipnc
  2632  0586  3E01               	addlw	1
  2633  0587  1903               	skipnz
  2634  0588  2D8A               	goto	u3281
  2635  0589  07B5               	addwf	___flmul@grs+1,f
  2636  058A                     u3281:
  2637  058A  0830               	movf	??___flmul+2,w
  2638  058B  1103               	clrz
  2639  058C  1803               	skipnc
  2640  058D  3E01               	addlw	1
  2641  058E  1903               	skipnz
  2642  058F  2D91               	goto	u3282
  2643  0590  07B6               	addwf	___flmul@grs+2,f
  2644  0591                     u3282:
  2645  0591  0831               	movf	??___flmul+3,w
  2646  0592  1103               	clrz
  2647  0593  1803               	skipnc
  2648  0594  3E01               	addlw	1
  2649  0595  1903               	skipnz
  2650  0596  2D98               	goto	u3283
  2651  0597  07B7               	addwf	___flmul@grs+3,f
  2652  0598                     u3283:
  2653  0598                     l2500:
  2654  0598  083F               	movf	___flmul@temp+1,w
  2655  0599  00AE               	movwf	??___flmul
  2656  059A  01AF               	clrf	??___flmul+1
  2657  059B  01B0               	clrf	??___flmul+2
  2658  059C  01B1               	clrf	??___flmul+3
  2659  059D  082E               	movf	??___flmul,w
  2660  059E  07BA               	addwf	___flmul@prod,f
  2661  059F  082F               	movf	??___flmul+1,w
  2662  05A0  1103               	clrz
  2663  05A1  1803               	skipnc
  2664  05A2  3E01               	addlw	1
  2665  05A3  1903               	skipnz
  2666  05A4  2DA6               	goto	u3291
  2667  05A5  07BB               	addwf	___flmul@prod+1,f
  2668  05A6                     u3291:
  2669  05A6  0830               	movf	??___flmul+2,w
  2670  05A7  1103               	clrz
  2671  05A8  1803               	skipnc
  2672  05A9  3E01               	addlw	1
  2673  05AA  1903               	skipnz
  2674  05AB  2DAD               	goto	u3292
  2675  05AC  07BC               	addwf	___flmul@prod+2,f
  2676  05AD                     u3292:
  2677  05AD  0831               	movf	??___flmul+3,w
  2678  05AE  1103               	clrz
  2679  05AF  1803               	skipnc
  2680  05B0  3E01               	addlw	1
  2681  05B1  1903               	skipnz
  2682  05B2  2DB4               	goto	u3293
  2683  05B3  07BD               	addwf	___flmul@prod+3,f
  2684  05B4                     u3293:
  2685  05B4                     l2502:
  2686  05B4  3008               	movlw	8
  2687  05B5  00AE               	movwf	??___flmul
  2688  05B6                     u3305:
  2689  05B6  1003               	clrc
  2690  05B7  0DB4               	rlf	___flmul@grs,f
  2691  05B8  0DB5               	rlf	___flmul@grs+1,f
  2692  05B9  0DB6               	rlf	___flmul@grs+2,f
  2693  05BA  0DB7               	rlf	___flmul@grs+3,f
  2694  05BB  0BAE               	decfsz	??___flmul,f
  2695  05BC  2DB6               	goto	u3305
  2696  05BD                     l2504:
  2697  05BD  0827               	movf	___flmul@b+1,w
  2698  05BE  00AE               	movwf	??___flmul
  2699  05BF  082E               	movf	??___flmul,w
  2700  05C0  00F0               	movwf	__Umul8_16@multiplicand
  2701  05C1  082A               	movf	___flmul@a,w
  2702  05C2  120A  158A  2100  120A  118A  	fcall	__Umul8_16
  2703  05C7  0871               	movf	?__Umul8_16+1,w
  2704  05C8  1283               	bcf	3,5	;RP0=0, select bank0
  2705  05C9  1303               	bcf	3,6	;RP1=0, select bank0
  2706  05CA  00BF               	movwf	___flmul@temp+1
  2707  05CB  0870               	movf	?__Umul8_16,w
  2708  05CC  00BE               	movwf	___flmul@temp
  2709  05CD                     l2506:
  2710  05CD  083E               	movf	___flmul@temp,w
  2711  05CE  00AE               	movwf	??___flmul
  2712  05CF  083F               	movf	___flmul@temp+1,w
  2713  05D0  00AF               	movwf	??___flmul+1
  2714  05D1  01B0               	clrf	??___flmul+2
  2715  05D2  01B1               	clrf	??___flmul+3
  2716  05D3  082E               	movf	??___flmul,w
  2717  05D4  07B4               	addwf	___flmul@grs,f
  2718  05D5  082F               	movf	??___flmul+1,w
  2719  05D6  1103               	clrz
  2720  05D7  1803               	skipnc
  2721  05D8  3E01               	addlw	1
  2722  05D9  1903               	skipnz
  2723  05DA  2DDC               	goto	u3311
  2724  05DB  07B5               	addwf	___flmul@grs+1,f
  2725  05DC                     u3311:
  2726  05DC  0830               	movf	??___flmul+2,w
  2727  05DD  1103               	clrz
  2728  05DE  1803               	skipnc
  2729  05DF  3E01               	addlw	1
  2730  05E0  1903               	skipnz
  2731  05E1  2DE3               	goto	u3312
  2732  05E2  07B6               	addwf	___flmul@grs+2,f
  2733  05E3                     u3312:
  2734  05E3  0831               	movf	??___flmul+3,w
  2735  05E4  1103               	clrz
  2736  05E5  1803               	skipnc
  2737  05E6  3E01               	addlw	1
  2738  05E7  1903               	skipnz
  2739  05E8  2DEA               	goto	u3313
  2740  05E9  07B7               	addwf	___flmul@grs+3,f
  2741  05EA                     u3313:
  2742  05EA                     l2508:
  2743  05EA  0826               	movf	___flmul@b,w
  2744  05EB  00AE               	movwf	??___flmul
  2745  05EC  082E               	movf	??___flmul,w
  2746  05ED  00F0               	movwf	__Umul8_16@multiplicand
  2747  05EE  082B               	movf	___flmul@a+1,w
  2748  05EF  120A  158A  2100  120A  118A  	fcall	__Umul8_16
  2749  05F4  0871               	movf	?__Umul8_16+1,w
  2750  05F5  1283               	bcf	3,5	;RP0=0, select bank0
  2751  05F6  1303               	bcf	3,6	;RP1=0, select bank0
  2752  05F7  00BF               	movwf	___flmul@temp+1
  2753  05F8  0870               	movf	?__Umul8_16,w
  2754  05F9  00BE               	movwf	___flmul@temp
  2755  05FA                     l2510:
  2756  05FA  083E               	movf	___flmul@temp,w
  2757  05FB  00AE               	movwf	??___flmul
  2758  05FC  083F               	movf	___flmul@temp+1,w
  2759  05FD  00AF               	movwf	??___flmul+1
  2760  05FE  01B0               	clrf	??___flmul+2
  2761  05FF  01B1               	clrf	??___flmul+3
  2762  0600  082E               	movf	??___flmul,w
  2763  0601  07B4               	addwf	___flmul@grs,f
  2764  0602  082F               	movf	??___flmul+1,w
  2765  0603  1103               	clrz
  2766  0604  1803               	skipnc
  2767  0605  3E01               	addlw	1
  2768  0606  1903               	skipnz
  2769  0607  2E09               	goto	u3321
  2770  0608  07B5               	addwf	___flmul@grs+1,f
  2771  0609                     u3321:
  2772  0609  0830               	movf	??___flmul+2,w
  2773  060A  1103               	clrz
  2774  060B  1803               	skipnc
  2775  060C  3E01               	addlw	1
  2776  060D  1903               	skipnz
  2777  060E  2E10               	goto	u3322
  2778  060F  07B6               	addwf	___flmul@grs+2,f
  2779  0610                     u3322:
  2780  0610  0831               	movf	??___flmul+3,w
  2781  0611  1103               	clrz
  2782  0612  1803               	skipnc
  2783  0613  3E01               	addlw	1
  2784  0614  1903               	skipnz
  2785  0615  2E17               	goto	u3323
  2786  0616  07B7               	addwf	___flmul@grs+3,f
  2787  0617                     u3323:
  2788  0617                     l2512:
  2789  0617  3008               	movlw	8
  2790  0618  00AE               	movwf	??___flmul
  2791  0619                     u3335:
  2792  0619  1003               	clrc
  2793  061A  0DB4               	rlf	___flmul@grs,f
  2794  061B  0DB5               	rlf	___flmul@grs+1,f
  2795  061C  0DB6               	rlf	___flmul@grs+2,f
  2796  061D  0DB7               	rlf	___flmul@grs+3,f
  2797  061E  0BAE               	decfsz	??___flmul,f
  2798  061F  2E19               	goto	u3335
  2799  0620  0826               	movf	___flmul@b,w
  2800  0621  00AE               	movwf	??___flmul
  2801  0622  082E               	movf	??___flmul,w
  2802  0623  00F0               	movwf	__Umul8_16@multiplicand
  2803  0624  082A               	movf	___flmul@a,w
  2804  0625  120A  158A  2100  120A  118A  	fcall	__Umul8_16
  2805  062A  0871               	movf	?__Umul8_16+1,w
  2806  062B  1283               	bcf	3,5	;RP0=0, select bank0
  2807  062C  1303               	bcf	3,6	;RP1=0, select bank0
  2808  062D  00BF               	movwf	___flmul@temp+1
  2809  062E  0870               	movf	?__Umul8_16,w
  2810  062F  00BE               	movwf	___flmul@temp
  2811  0630                     l2514:
  2812  0630  083E               	movf	___flmul@temp,w
  2813  0631  00AE               	movwf	??___flmul
  2814  0632  083F               	movf	___flmul@temp+1,w
  2815  0633  00AF               	movwf	??___flmul+1
  2816  0634  01B0               	clrf	??___flmul+2
  2817  0635  01B1               	clrf	??___flmul+3
  2818  0636  082E               	movf	??___flmul,w
  2819  0637  07B4               	addwf	___flmul@grs,f
  2820  0638  082F               	movf	??___flmul+1,w
  2821  0639  1103               	clrz
  2822  063A  1803               	skipnc
  2823  063B  3E01               	addlw	1
  2824  063C  1903               	skipnz
  2825  063D  2E3F               	goto	u3341
  2826  063E  07B5               	addwf	___flmul@grs+1,f
  2827  063F                     u3341:
  2828  063F  0830               	movf	??___flmul+2,w
  2829  0640  1103               	clrz
  2830  0641  1803               	skipnc
  2831  0642  3E01               	addlw	1
  2832  0643  1903               	skipnz
  2833  0644  2E46               	goto	u3342
  2834  0645  07B6               	addwf	___flmul@grs+2,f
  2835  0646                     u3342:
  2836  0646  0831               	movf	??___flmul+3,w
  2837  0647  1103               	clrz
  2838  0648  1803               	skipnc
  2839  0649  3E01               	addlw	1
  2840  064A  1903               	skipnz
  2841  064B  2E4D               	goto	u3343
  2842  064C  07B7               	addwf	___flmul@grs+3,f
  2843  064D                     u3343:
  2844  064D                     l2516:
  2845  064D  0827               	movf	___flmul@b+1,w
  2846  064E  00AE               	movwf	??___flmul
  2847  064F  082E               	movf	??___flmul,w
  2848  0650  00F0               	movwf	__Umul8_16@multiplicand
  2849  0651  082C               	movf	___flmul@a+2,w
  2850  0652  120A  158A  2100  120A  118A  	fcall	__Umul8_16
  2851  0657  0871               	movf	?__Umul8_16+1,w
  2852  0658  1283               	bcf	3,5	;RP0=0, select bank0
  2853  0659  1303               	bcf	3,6	;RP1=0, select bank0
  2854  065A  00BF               	movwf	___flmul@temp+1
  2855  065B  0870               	movf	?__Umul8_16,w
  2856  065C  00BE               	movwf	___flmul@temp
  2857  065D  083E               	movf	___flmul@temp,w
  2858  065E  00AE               	movwf	??___flmul
  2859  065F  083F               	movf	___flmul@temp+1,w
  2860  0660  00AF               	movwf	??___flmul+1
  2861  0661  01B0               	clrf	??___flmul+2
  2862  0662  01B1               	clrf	??___flmul+3
  2863  0663  082E               	movf	??___flmul,w
  2864  0664  07BA               	addwf	___flmul@prod,f
  2865  0665  082F               	movf	??___flmul+1,w
  2866  0666  1103               	clrz
  2867  0667  1803               	skipnc
  2868  0668  3E01               	addlw	1
  2869  0669  1903               	skipnz
  2870  066A  2E6C               	goto	u3351
  2871  066B  07BB               	addwf	___flmul@prod+1,f
  2872  066C                     u3351:
  2873  066C  0830               	movf	??___flmul+2,w
  2874  066D  1103               	clrz
  2875  066E  1803               	skipnc
  2876  066F  3E01               	addlw	1
  2877  0670  1903               	skipnz
  2878  0671  2E73               	goto	u3352
  2879  0672  07BC               	addwf	___flmul@prod+2,f
  2880  0673                     u3352:
  2881  0673  0831               	movf	??___flmul+3,w
  2882  0674  1103               	clrz
  2883  0675  1803               	skipnc
  2884  0676  3E01               	addlw	1
  2885  0677  1903               	skipnz
  2886  0678  2E7A               	goto	u3353
  2887  0679  07BD               	addwf	___flmul@prod+3,f
  2888  067A                     u3353:
  2889  067A                     l2518:
  2890  067A  0828               	movf	___flmul@b+2,w
  2891  067B  00AE               	movwf	??___flmul
  2892  067C  082E               	movf	??___flmul,w
  2893  067D  00F0               	movwf	__Umul8_16@multiplicand
  2894  067E  082B               	movf	___flmul@a+1,w
  2895  067F  120A  158A  2100  120A  118A  	fcall	__Umul8_16
  2896  0684  0871               	movf	?__Umul8_16+1,w
  2897  0685  1283               	bcf	3,5	;RP0=0, select bank0
  2898  0686  1303               	bcf	3,6	;RP1=0, select bank0
  2899  0687  00BF               	movwf	___flmul@temp+1
  2900  0688  0870               	movf	?__Umul8_16,w
  2901  0689  00BE               	movwf	___flmul@temp
  2902  068A                     l2520:
  2903  068A  083E               	movf	___flmul@temp,w
  2904  068B  00AE               	movwf	??___flmul
  2905  068C  083F               	movf	___flmul@temp+1,w
  2906  068D  00AF               	movwf	??___flmul+1
  2907  068E  01B0               	clrf	??___flmul+2
  2908  068F  01B1               	clrf	??___flmul+3
  2909  0690  082E               	movf	??___flmul,w
  2910  0691  07BA               	addwf	___flmul@prod,f
  2911  0692  082F               	movf	??___flmul+1,w
  2912  0693  1103               	clrz
  2913  0694  1803               	skipnc
  2914  0695  3E01               	addlw	1
  2915  0696  1903               	skipnz
  2916  0697  2E99               	goto	u3361
  2917  0698  07BB               	addwf	___flmul@prod+1,f
  2918  0699                     u3361:
  2919  0699  0830               	movf	??___flmul+2,w
  2920  069A  1103               	clrz
  2921  069B  1803               	skipnc
  2922  069C  3E01               	addlw	1
  2923  069D  1903               	skipnz
  2924  069E  2EA0               	goto	u3362
  2925  069F  07BC               	addwf	___flmul@prod+2,f
  2926  06A0                     u3362:
  2927  06A0  0831               	movf	??___flmul+3,w
  2928  06A1  1103               	clrz
  2929  06A2  1803               	skipnc
  2930  06A3  3E01               	addlw	1
  2931  06A4  1903               	skipnz
  2932  06A5  2EA7               	goto	u3363
  2933  06A6  07BD               	addwf	___flmul@prod+3,f
  2934  06A7                     u3363:
  2935  06A7  0828               	movf	___flmul@b+2,w
  2936  06A8  00AE               	movwf	??___flmul
  2937  06A9  082E               	movf	??___flmul,w
  2938  06AA  00F0               	movwf	__Umul8_16@multiplicand
  2939  06AB  082C               	movf	___flmul@a+2,w
  2940  06AC  120A  158A  2100  120A  118A  	fcall	__Umul8_16
  2941  06B1  0871               	movf	?__Umul8_16+1,w
  2942  06B2  1283               	bcf	3,5	;RP0=0, select bank0
  2943  06B3  1303               	bcf	3,6	;RP1=0, select bank0
  2944  06B4  00BF               	movwf	___flmul@temp+1
  2945  06B5  0870               	movf	?__Umul8_16,w
  2946  06B6  00BE               	movwf	___flmul@temp
  2947  06B7                     l2522:
  2948  06B7  083E               	movf	___flmul@temp,w
  2949  06B8  00AE               	movwf	??___flmul
  2950  06B9  083F               	movf	___flmul@temp+1,w
  2951  06BA  00AF               	movwf	??___flmul+1
  2952  06BB  01B0               	clrf	??___flmul+2
  2953  06BC  01B1               	clrf	??___flmul+3
  2954  06BD  3008               	movlw	8
  2955  06BE                     u3375:
  2956  06BE  1003               	clrc
  2957  06BF  0DAE               	rlf	??___flmul,f
  2958  06C0  0DAF               	rlf	??___flmul+1,f
  2959  06C1  0DB0               	rlf	??___flmul+2,f
  2960  06C2  0DB1               	rlf	??___flmul+3,f
  2961  06C3                     u3370:
  2962  06C3  3EFF               	addlw	-1
  2963  06C4  1D03               	skipz
  2964  06C5  2EBE               	goto	u3375
  2965  06C6  082E               	movf	??___flmul,w
  2966  06C7  07BA               	addwf	___flmul@prod,f
  2967  06C8  082F               	movf	??___flmul+1,w
  2968  06C9  1103               	clrz
  2969  06CA  1803               	skipnc
  2970  06CB  3E01               	addlw	1
  2971  06CC  1903               	skipnz
  2972  06CD  2ECF               	goto	u3381
  2973  06CE  07BB               	addwf	___flmul@prod+1,f
  2974  06CF                     u3381:
  2975  06CF  0830               	movf	??___flmul+2,w
  2976  06D0  1103               	clrz
  2977  06D1  1803               	skipnc
  2978  06D2  3E01               	addlw	1
  2979  06D3  1903               	skipnz
  2980  06D4  2ED6               	goto	u3382
  2981  06D5  07BC               	addwf	___flmul@prod+2,f
  2982  06D6                     u3382:
  2983  06D6  0831               	movf	??___flmul+3,w
  2984  06D7  1103               	clrz
  2985  06D8  1803               	skipnc
  2986  06D9  3E01               	addlw	1
  2987  06DA  1903               	skipnz
  2988  06DB  2EDD               	goto	u3383
  2989  06DC  07BD               	addwf	___flmul@prod+3,f
  2990  06DD                     u3383:
  2991  06DD                     l2524:
  2992  06DD  0834               	movf	___flmul@grs,w
  2993  06DE  00AE               	movwf	??___flmul
  2994  06DF  0835               	movf	___flmul@grs+1,w
  2995  06E0  00AF               	movwf	??___flmul+1
  2996  06E1  0836               	movf	___flmul@grs+2,w
  2997  06E2  00B0               	movwf	??___flmul+2
  2998  06E3  0837               	movf	___flmul@grs+3,w
  2999  06E4  00B1               	movwf	??___flmul+3
  3000  06E5  3018               	movlw	24
  3001  06E6                     u3395:
  3002  06E6  1003               	clrc
  3003  06E7  0CB1               	rrf	??___flmul+3,f
  3004  06E8  0CB0               	rrf	??___flmul+2,f
  3005  06E9  0CAF               	rrf	??___flmul+1,f
  3006  06EA  0CAE               	rrf	??___flmul,f
  3007  06EB                     u3390:
  3008  06EB  3EFF               	addlw	-1
  3009  06EC  1D03               	skipz
  3010  06ED  2EE6               	goto	u3395
  3011  06EE  082E               	movf	??___flmul,w
  3012  06EF  07BA               	addwf	___flmul@prod,f
  3013  06F0  082F               	movf	??___flmul+1,w
  3014  06F1  1103               	clrz
  3015  06F2  1803               	skipnc
  3016  06F3  3E01               	addlw	1
  3017  06F4  1903               	skipnz
  3018  06F5  2EF7               	goto	u3401
  3019  06F6  07BB               	addwf	___flmul@prod+1,f
  3020  06F7                     u3401:
  3021  06F7  0830               	movf	??___flmul+2,w
  3022  06F8  1103               	clrz
  3023  06F9  1803               	skipnc
  3024  06FA  3E01               	addlw	1
  3025  06FB  1903               	skipnz
  3026  06FC  2EFE               	goto	u3402
  3027  06FD  07BC               	addwf	___flmul@prod+2,f
  3028  06FE                     u3402:
  3029  06FE  0831               	movf	??___flmul+3,w
  3030  06FF  1103               	clrz
  3031  0700  1803               	skipnc
  3032  0701  3E01               	addlw	1
  3033  0702  1903               	skipnz
  3034  0703  2F05               	goto	u3403
  3035  0704  07BD               	addwf	___flmul@prod+3,f
  3036  0705                     u3403:
  3037  0705                     l2526:
  3038  0705  3008               	movlw	8
  3039  0706  00AE               	movwf	??___flmul
  3040  0707                     u3415:
  3041  0707  1003               	clrc
  3042  0708  0DB4               	rlf	___flmul@grs,f
  3043  0709  0DB5               	rlf	___flmul@grs+1,f
  3044  070A  0DB6               	rlf	___flmul@grs+2,f
  3045  070B  0DB7               	rlf	___flmul@grs+3,f
  3046  070C  0BAE               	decfsz	??___flmul,f
  3047  070D  2F07               	goto	u3415
  3048  070E                     l2528:
  3049  070E  0839               	movf	___flmul@bexp,w
  3050  070F  0738               	addwf	___flmul@aexp,w
  3051  0710  00AE               	movwf	??___flmul
  3052  0711  01AF               	clrf	??___flmul+1
  3053  0712  0DAF               	rlf	??___flmul+1,f
  3054  0713  082E               	movf	??___flmul,w
  3055  0714  3E82               	addlw	130
  3056  0715  00BE               	movwf	___flmul@temp
  3057  0716  082F               	movf	??___flmul+1,w
  3058  0717  1803               	skipnc
  3059  0718  3E01               	addlw	1
  3060  0719  3EFF               	addlw	255
  3061  071A  00BF               	movwf	___flmul@temp+1
  3062  071B  2F39               	goto	l2540
  3063  071C                     l2530:
  3064  071C  3001               	movlw	1
  3065  071D  00AE               	movwf	??___flmul
  3066  071E                     u3425:
  3067  071E  1003               	clrc
  3068  071F  0DBA               	rlf	___flmul@prod,f
  3069  0720  0DBB               	rlf	___flmul@prod+1,f
  3070  0721  0DBC               	rlf	___flmul@prod+2,f
  3071  0722  0DBD               	rlf	___flmul@prod+3,f
  3072  0723  0BAE               	decfsz	??___flmul,f
  3073  0724  2F1E               	goto	u3425
  3074  0725                     l2532:
  3075  0725  1FB7               	btfss	___flmul@grs+3,7
  3076  0726  2F28               	goto	u3431
  3077  0727  2F29               	goto	u3430
  3078  0728                     u3431:
  3079  0728  2F2A               	goto	l2536
  3080  0729                     u3430:
  3081  0729                     l2534:
  3082  0729  143A               	bsf	___flmul@prod,0
  3083  072A                     l2536:
  3084  072A  3001               	movlw	1
  3085  072B  00AE               	movwf	??___flmul
  3086  072C                     u3445:
  3087  072C  1003               	clrc
  3088  072D  0DB4               	rlf	___flmul@grs,f
  3089  072E  0DB5               	rlf	___flmul@grs+1,f
  3090  072F  0DB6               	rlf	___flmul@grs+2,f
  3091  0730  0DB7               	rlf	___flmul@grs+3,f
  3092  0731  0BAE               	decfsz	??___flmul,f
  3093  0732  2F2C               	goto	u3445
  3094  0733                     l2538:
  3095  0733  30FF               	movlw	255
  3096  0734  07BE               	addwf	___flmul@temp,f
  3097  0735  1803               	skipnc
  3098  0736  0ABF               	incf	___flmul@temp+1,f
  3099  0737  30FF               	movlw	255
  3100  0738  07BF               	addwf	___flmul@temp+1,f
  3101  0739                     l2540:
  3102  0739  1FBC               	btfss	___flmul@prod+2,7
  3103  073A  2F3C               	goto	u3451
  3104  073B  2F3D               	goto	u3450
  3105  073C                     u3451:
  3106  073C  2F1C               	goto	l2530
  3107  073D                     u3450:
  3108  073D                     l2542:
  3109  073D  01B8               	clrf	___flmul@aexp
  3110  073E                     l2544:
  3111  073E  1FB7               	btfss	___flmul@grs+3,7
  3112  073F  2F41               	goto	u3461
  3113  0740  2F42               	goto	u3460
  3114  0741                     u3461:
  3115  0741  2F5E               	goto	l2552
  3116  0742                     u3460:
  3117  0742                     l2546:
  3118  0742  30FF               	movlw	255
  3119  0743  0534               	andwf	___flmul@grs,w
  3120  0744  00AE               	movwf	??___flmul
  3121  0745  30FF               	movlw	255
  3122  0746  0535               	andwf	___flmul@grs+1,w
  3123  0747  00AF               	movwf	??___flmul+1
  3124  0748  30FF               	movlw	255
  3125  0749  0536               	andwf	___flmul@grs+2,w
  3126  074A  00B0               	movwf	??___flmul+2
  3127  074B  307F               	movlw	127
  3128  074C  0537               	andwf	___flmul@grs+3,w
  3129  074D  00B1               	movwf	??___flmul+3
  3130  074E  0831               	movf	??___flmul+3,w
  3131  074F  0430               	iorwf	??___flmul+2,w
  3132  0750  042F               	iorwf	??___flmul+1,w
  3133  0751  042E               	iorwf	??___flmul,w
  3134  0752  1903               	skipnz
  3135  0753  2F55               	goto	u3471
  3136  0754  2F56               	goto	u3470
  3137  0755                     u3471:
  3138  0755  2F59               	goto	l683
  3139  0756                     u3470:
  3140  0756                     l2548:
  3141  0756  01B8               	clrf	___flmul@aexp
  3142  0757  0AB8               	incf	___flmul@aexp,f
  3143  0758  2F5E               	goto	l2552
  3144  0759                     l683:
  3145  0759  1C3A               	btfss	___flmul@prod,0
  3146  075A  2F5C               	goto	u3481
  3147  075B  2F5D               	goto	u3480
  3148  075C                     u3481:
  3149  075C  2F5E               	goto	l2552
  3150  075D                     u3480:
  3151  075D  2F56               	goto	l2548
  3152  075E                     l2552:
  3153  075E  0838               	movf	___flmul@aexp,w
  3154  075F  1903               	btfsc	3,2
  3155  0760  2F62               	goto	u3491
  3156  0761  2F63               	goto	u3490
  3157  0762                     u3491:
  3158  0762  2F94               	goto	l2562
  3159  0763                     u3490:
  3160  0763                     l2554:
  3161  0763  3001               	movlw	1
  3162  0764  07BA               	addwf	___flmul@prod,f
  3163  0765  3000               	movlw	0
  3164  0766  1803               	skipnc
  3165  0767  3001               	movlw	1
  3166  0768  07BB               	addwf	___flmul@prod+1,f
  3167  0769  3000               	movlw	0
  3168  076A  1803               	skipnc
  3169  076B  3001               	movlw	1
  3170  076C  07BC               	addwf	___flmul@prod+2,f
  3171  076D  3000               	movlw	0
  3172  076E  1803               	skipnc
  3173  076F  3001               	movlw	1
  3174  0770  07BD               	addwf	___flmul@prod+3,f
  3175  0771                     l2556:
  3176  0771  1C3D               	btfss	___flmul@prod+3,0
  3177  0772  2F74               	goto	u3501
  3178  0773  2F75               	goto	u3500
  3179  0774                     u3501:
  3180  0774  2F94               	goto	l2562
  3181  0775                     u3500:
  3182  0775                     l2558:
  3183  0775  083A               	movf	___flmul@prod,w
  3184  0776  00AE               	movwf	??___flmul
  3185  0777  083B               	movf	___flmul@prod+1,w
  3186  0778  00AF               	movwf	??___flmul+1
  3187  0779  083C               	movf	___flmul@prod+2,w
  3188  077A  00B0               	movwf	??___flmul+2
  3189  077B  083D               	movf	___flmul@prod+3,w
  3190  077C  00B1               	movwf	??___flmul+3
  3191  077D  3001               	movlw	1
  3192  077E  00B2               	movwf	??___flmul+4
  3193  077F                     u3515:
  3194  077F  0D31               	rlf	??___flmul+3,w
  3195  0780  0CB1               	rrf	??___flmul+3,f
  3196  0781  0CB0               	rrf	??___flmul+2,f
  3197  0782  0CAF               	rrf	??___flmul+1,f
  3198  0783  0CAE               	rrf	??___flmul,f
  3199  0784                     u3510:
  3200  0784  0BB2               	decfsz	??___flmul+4,f
  3201  0785  2F7F               	goto	u3515
  3202  0786  0831               	movf	??___flmul+3,w
  3203  0787  00BD               	movwf	___flmul@prod+3
  3204  0788  0830               	movf	??___flmul+2,w
  3205  0789  00BC               	movwf	___flmul@prod+2
  3206  078A  082F               	movf	??___flmul+1,w
  3207  078B  00BB               	movwf	___flmul@prod+1
  3208  078C  082E               	movf	??___flmul,w
  3209  078D  00BA               	movwf	___flmul@prod
  3210  078E                     l2560:
  3211  078E  3001               	movlw	1
  3212  078F  07BE               	addwf	___flmul@temp,f
  3213  0790  1803               	skipnc
  3214  0791  0ABF               	incf	___flmul@temp+1,f
  3215  0792  3000               	movlw	0
  3216  0793  07BF               	addwf	___flmul@temp+1,f
  3217  0794                     l2562:
  3218  0794  083F               	movf	___flmul@temp+1,w
  3219  0795  3A80               	xorlw	128
  3220  0796  00FF               	movwf	btemp+1
  3221  0797  3080               	movlw	128
  3222  0798  027F               	subwf	btemp+1,w
  3223  0799  1D03               	skipz
  3224  079A  2F9D               	goto	u3525
  3225  079B  30FF               	movlw	255
  3226  079C  023E               	subwf	___flmul@temp,w
  3227  079D                     u3525:
  3228  079D  1C03               	skipc
  3229  079E  2FA0               	goto	u3521
  3230  079F  2FA1               	goto	u3520
  3231  07A0                     u3521:
  3232  07A0  2FAC               	goto	l2566
  3233  07A1                     u3520:
  3234  07A1                     l2564:
  3235  07A1  307F               	movlw	127
  3236  07A2  1283               	bcf	3,5	;RP0=0, select bank0
  3237  07A3  1303               	bcf	3,6	;RP1=0, select bank0
  3238  07A4  00BD               	movwf	___flmul@prod+3
  3239  07A5  3080               	movlw	128
  3240  07A6  00BC               	movwf	___flmul@prod+2
  3241  07A7  3000               	movlw	0
  3242  07A8  00BB               	movwf	___flmul@prod+1
  3243  07A9  3000               	movlw	0
  3244  07AA  00BA               	movwf	___flmul@prod
  3245  07AB  2FE1               	goto	l689
  3246  07AC                     l2566:
  3247  07AC  1283               	bcf	3,5	;RP0=0, select bank0
  3248  07AD  1303               	bcf	3,6	;RP1=0, select bank0
  3249  07AE  083F               	movf	___flmul@temp+1,w
  3250  07AF  3A80               	xorlw	128
  3251  07B0  00FF               	movwf	btemp+1
  3252  07B1  3080               	movlw	128
  3253  07B2  027F               	subwf	btemp+1,w
  3254  07B3  1D03               	skipz
  3255  07B4  2FB7               	goto	u3535
  3256  07B5  3001               	movlw	1
  3257  07B6  023E               	subwf	___flmul@temp,w
  3258  07B7                     u3535:
  3259  07B7  1803               	skipnc
  3260  07B8  2FBA               	goto	u3531
  3261  07B9  2FBB               	goto	u3530
  3262  07BA                     u3531:
  3263  07BA  2FC7               	goto	l2572
  3264  07BB                     u3530:
  3265  07BB                     l2568:
  3266  07BB  3000               	movlw	0
  3267  07BC  1283               	bcf	3,5	;RP0=0, select bank0
  3268  07BD  1303               	bcf	3,6	;RP1=0, select bank0
  3269  07BE  00BD               	movwf	___flmul@prod+3
  3270  07BF  3000               	movlw	0
  3271  07C0  00BC               	movwf	___flmul@prod+2
  3272  07C1  3000               	movlw	0
  3273  07C2  00BB               	movwf	___flmul@prod+1
  3274  07C3  3000               	movlw	0
  3275  07C4  00BA               	movwf	___flmul@prod
  3276  07C5                     l2570:
  3277  07C5  01B3               	clrf	___flmul@sign
  3278  07C6  2FE1               	goto	l689
  3279  07C7                     l2572:
  3280  07C7  1283               	bcf	3,5	;RP0=0, select bank0
  3281  07C8  1303               	bcf	3,6	;RP1=0, select bank0
  3282  07C9  083E               	movf	___flmul@temp,w
  3283  07CA  00AE               	movwf	??___flmul
  3284  07CB  082E               	movf	??___flmul,w
  3285  07CC  00B9               	movwf	___flmul@bexp
  3286  07CD  30FF               	movlw	255
  3287  07CE  05BA               	andwf	___flmul@prod,f
  3288  07CF  30FF               	movlw	255
  3289  07D0  05BB               	andwf	___flmul@prod+1,f
  3290  07D1  307F               	movlw	127
  3291  07D2  05BC               	andwf	___flmul@prod+2,f
  3292  07D3  3000               	movlw	0
  3293  07D4  05BD               	andwf	___flmul@prod+3,f
  3294  07D5                     l2574:
  3295  07D5  1C39               	btfss	___flmul@bexp,0
  3296  07D6  2FD8               	goto	u3541
  3297  07D7  2FD9               	goto	u3540
  3298  07D8                     u3541:
  3299  07D8  2FDA               	goto	l2578
  3300  07D9                     u3540:
  3301  07D9                     l2576:
  3302  07D9  17BC               	bsf	___flmul@prod+2,7
  3303  07DA                     l2578:
  3304  07DA  0839               	movf	___flmul@bexp,w
  3305  07DB  00AE               	movwf	??___flmul
  3306  07DC  1003               	clrc
  3307  07DD  0C2E               	rrf	??___flmul,w
  3308  07DE  00AF               	movwf	??___flmul+1
  3309  07DF  082F               	movf	??___flmul+1,w
  3310  07E0  00BD               	movwf	___flmul@prod+3
  3311  07E1                     l689:
  3312  07E1  0833               	movf	___flmul@sign,w
  3313  07E2  00AE               	movwf	??___flmul
  3314  07E3  082E               	movf	??___flmul,w
  3315  07E4  04BD               	iorwf	___flmul@prod+3,f
  3316  07E5                     l2580:
  3317  07E5  083D               	movf	___flmul@prod+3,w
  3318  07E6  00A9               	movwf	?___flmul+3
  3319  07E7  083C               	movf	___flmul@prod+2,w
  3320  07E8  00A8               	movwf	?___flmul+2
  3321  07E9  083B               	movf	___flmul@prod+1,w
  3322  07EA  00A7               	movwf	?___flmul+1
  3323  07EB  083A               	movf	___flmul@prod,w
  3324  07EC  00A6               	movwf	?___flmul
  3325  07ED                     l677:
  3326  07ED  0008               	return
  3327  07EE                     __end_of___flmul:
  3328                           
  3329                           	psect	text4
  3330  0900                     __ptext4:	
  3331 ;; *************** function __Umul8_16 *****************
  3332 ;; Defined at:
  3333 ;;		line 4 in file "C:\Program Files\Microchip\xc8\v2.35\pic\sources\c90\common\Umul8_16.c"
  3334 ;; Parameters:    Size  Location     Type
  3335 ;;  multiplier      1    wreg     unsigned char 
  3336 ;;  multiplicand    1    0[COMMON] unsigned char 
  3337 ;; Auto vars:     Size  Location     Type
  3338 ;;  multiplier      1    8[COMMON] unsigned char 
  3339 ;;  word_mpld       2    6[COMMON] unsigned int 
  3340 ;;  product         2    4[COMMON] unsigned int 
  3341 ;; Return value:  Size  Location     Type
  3342 ;;                  2    0[COMMON] unsigned int 
  3343 ;; Registers used:
  3344 ;;		wreg, status,2, status,0
  3345 ;; Tracked objects:
  3346 ;;		On entry : 0/0
  3347 ;;		On exit  : 0/0
  3348 ;;		Unchanged: 0/0
  3349 ;; Data sizes:     COMMON   BANK0   BANK1   BANK3   BANK2
  3350 ;;      Params:         2       0       0       0       0
  3351 ;;      Locals:         5       0       0       0       0
  3352 ;;      Temps:          2       0       0       0       0
  3353 ;;      Totals:         9       0       0       0       0
  3354 ;;Total ram usage:        9 bytes
  3355 ;; Hardware stack levels used: 1
  3356 ;; This function calls:
  3357 ;;		Nothing
  3358 ;; This function is called by:
  3359 ;;		___flmul
  3360 ;; This function uses a non-reentrant model
  3361 ;;
  3362                           
  3363  0900                     __Umul8_16:	
  3364                           ;psect for function __Umul8_16
  3365                           
  3366                           
  3367                           ;incstack = 0
  3368                           ; Regs used in __Umul8_16: [wreg+status,2+status,0]
  3369                           ;__Umul8_16@multiplier stored from wreg
  3370  0900  00F8               	movwf	__Umul8_16@multiplier
  3371  0901                     l1920:
  3372  0901  01F4               	clrf	__Umul8_16@product
  3373  0902  01F5               	clrf	__Umul8_16@product+1
  3374  0903                     l1922:
  3375  0903  0870               	movf	__Umul8_16@multiplicand,w
  3376  0904  00F2               	movwf	??__Umul8_16
  3377  0905  01F3               	clrf	??__Umul8_16+1
  3378  0906  0872               	movf	??__Umul8_16,w
  3379  0907  00F6               	movwf	__Umul8_16@word_mpld
  3380  0908  0873               	movf	??__Umul8_16+1,w
  3381  0909  00F7               	movwf	__Umul8_16@word_mpld+1
  3382  090A                     l1924:
  3383  090A  1C78               	btfss	__Umul8_16@multiplier,0
  3384  090B  290D               	goto	u2121
  3385  090C  290E               	goto	u2120
  3386  090D                     u2121:
  3387  090D  2914               	goto	l696
  3388  090E                     u2120:
  3389  090E                     l1926:
  3390  090E  0876               	movf	__Umul8_16@word_mpld,w
  3391  090F  07F4               	addwf	__Umul8_16@product,f
  3392  0910  1803               	skipnc
  3393  0911  0AF5               	incf	__Umul8_16@product+1,f
  3394  0912  0877               	movf	__Umul8_16@word_mpld+1,w
  3395  0913  07F5               	addwf	__Umul8_16@product+1,f
  3396  0914                     l696:
  3397  0914  3001               	movlw	1
  3398  0915                     u2135:
  3399  0915  1003               	clrc
  3400  0916  0DF6               	rlf	__Umul8_16@word_mpld,f
  3401  0917  0DF7               	rlf	__Umul8_16@word_mpld+1,f
  3402  0918  3EFF               	addlw	-1
  3403  0919  1D03               	skipz
  3404  091A  2915               	goto	u2135
  3405  091B  1003               	clrc
  3406  091C  0CF8               	rrf	__Umul8_16@multiplier,f
  3407  091D                     l1928:
  3408  091D  0878               	movf	__Umul8_16@multiplier,w
  3409  091E  1D03               	btfss	3,2
  3410  091F  2921               	goto	u2141
  3411  0920  2922               	goto	u2140
  3412  0921                     u2141:
  3413  0921  290A               	goto	l1924
  3414  0922                     u2140:
  3415  0922                     l1930:
  3416  0922  0875               	movf	__Umul8_16@product+1,w
  3417  0923  00F1               	movwf	?__Umul8_16+1
  3418  0924  0874               	movf	__Umul8_16@product,w
  3419  0925  00F0               	movwf	?__Umul8_16
  3420  0926                     l698:
  3421  0926  0008               	return
  3422  0927                     __end_of__Umul8_16:
  3423                           
  3424                           	psect	text5
  3425  0059                     __ptext5:	
  3426 ;; *************** function ___flge *****************
  3427 ;; Defined at:
  3428 ;;		line 4 in file "C:\Program Files\Microchip\xc8\v2.35\pic\sources\c90\common\flge.c"
  3429 ;; Parameters:    Size  Location     Type
  3430 ;;  ff1             4    8[BANK0 ] unsigned int 
  3431 ;;  ff2             4   12[BANK0 ] unsigned int 
  3432 ;; Auto vars:     Size  Location     Type
  3433 ;;		None
  3434 ;; Return value:  Size  Location     Type
  3435 ;;		None               void
  3436 ;; Registers used:
  3437 ;;		wreg, status,2, status,0
  3438 ;; Tracked objects:
  3439 ;;		On entry : 0/0
  3440 ;;		On exit  : 0/0
  3441 ;;		Unchanged: 0/0
  3442 ;; Data sizes:     COMMON   BANK0   BANK1   BANK3   BANK2
  3443 ;;      Params:         0       8       0       0       0
  3444 ;;      Locals:         0       0       0       0       0
  3445 ;;      Temps:          0       4       0       0       0
  3446 ;;      Totals:         0      12       0       0       0
  3447 ;;Total ram usage:       12 bytes
  3448 ;; Hardware stack levels used: 1
  3449 ;; This function calls:
  3450 ;;		Nothing
  3451 ;; This function is called by:
  3452 ;;		_main
  3453 ;; This function uses a non-reentrant model
  3454 ;;
  3455                           
  3456  0059                     ___flge:	
  3457                           ;psect for function ___flge
  3458                           
  3459  0059                     l2052:	
  3460                           ;incstack = 0
  3461                           ; Regs used in ___flge: [wreg+status,2+status,0]
  3462                           
  3463  0059  3000               	movlw	0
  3464  005A  1283               	bcf	3,5	;RP0=0, select bank0
  3465  005B  1303               	bcf	3,6	;RP1=0, select bank0
  3466  005C  0528               	andwf	___flge@ff1,w
  3467  005D  00B0               	movwf	??___flge
  3468  005E  3000               	movlw	0
  3469  005F  0529               	andwf	___flge@ff1+1,w
  3470  0060  00B1               	movwf	??___flge+1
  3471  0061  3080               	movlw	128
  3472  0062  052A               	andwf	___flge@ff1+2,w
  3473  0063  00B2               	movwf	??___flge+2
  3474  0064  307F               	movlw	127
  3475  0065  052B               	andwf	___flge@ff1+3,w
  3476  0066  00B3               	movwf	??___flge+3
  3477  0067  0833               	movf	??___flge+3,w
  3478  0068  0432               	iorwf	??___flge+2,w
  3479  0069  0431               	iorwf	??___flge+1,w
  3480  006A  0430               	iorwf	??___flge,w
  3481  006B  1D03               	skipz
  3482  006C  286E               	goto	u2261
  3483  006D  286F               	goto	u2260
  3484  006E                     u2261:
  3485  006E  2877               	goto	l462
  3486  006F                     u2260:
  3487  006F                     l2054:
  3488  006F  3000               	movlw	0
  3489  0070  00AB               	movwf	___flge@ff1+3
  3490  0071  3000               	movlw	0
  3491  0072  00AA               	movwf	___flge@ff1+2
  3492  0073  3000               	movlw	0
  3493  0074  00A9               	movwf	___flge@ff1+1
  3494  0075  3000               	movlw	0
  3495  0076  00A8               	movwf	___flge@ff1
  3496  0077                     l462:
  3497  0077  3000               	movlw	0
  3498  0078  052C               	andwf	___flge@ff2,w
  3499  0079  00B0               	movwf	??___flge
  3500  007A  3000               	movlw	0
  3501  007B  052D               	andwf	___flge@ff2+1,w
  3502  007C  00B1               	movwf	??___flge+1
  3503  007D  3080               	movlw	128
  3504  007E  052E               	andwf	___flge@ff2+2,w
  3505  007F  00B2               	movwf	??___flge+2
  3506  0080  307F               	movlw	127
  3507  0081  052F               	andwf	___flge@ff2+3,w
  3508  0082  00B3               	movwf	??___flge+3
  3509  0083  0833               	movf	??___flge+3,w
  3510  0084  0432               	iorwf	??___flge+2,w
  3511  0085  0431               	iorwf	??___flge+1,w
  3512  0086  0430               	iorwf	??___flge,w
  3513  0087  1D03               	skipz
  3514  0088  288A               	goto	u2271
  3515  0089  288B               	goto	u2270
  3516  008A                     u2271:
  3517  008A  2893               	goto	l2058
  3518  008B                     u2270:
  3519  008B                     l2056:
  3520  008B  3000               	movlw	0
  3521  008C  00AF               	movwf	___flge@ff2+3
  3522  008D  3000               	movlw	0
  3523  008E  00AE               	movwf	___flge@ff2+2
  3524  008F  3000               	movlw	0
  3525  0090  00AD               	movwf	___flge@ff2+1
  3526  0091  3000               	movlw	0
  3527  0092  00AC               	movwf	___flge@ff2
  3528  0093                     l2058:
  3529  0093  1FAB               	btfss	___flge@ff1+3,7
  3530  0094  2896               	goto	u2281
  3531  0095  2897               	goto	u2280
  3532  0096                     u2281:
  3533  0096  28BB               	goto	l2062
  3534  0097                     u2280:
  3535  0097                     l2060:
  3536  0097  3000               	movlw	0
  3537  0098  00B0               	movwf	??___flge
  3538  0099  3000               	movlw	0
  3539  009A  00B1               	movwf	??___flge+1
  3540  009B  3000               	movlw	0
  3541  009C  00B2               	movwf	??___flge+2
  3542  009D  3080               	movlw	128
  3543  009E  00B3               	movwf	??___flge+3
  3544  009F  0828               	movf	___flge@ff1,w
  3545  00A0  02B0               	subwf	??___flge,f
  3546  00A1  0829               	movf	___flge@ff1+1,w
  3547  00A2  1C03               	skipc
  3548  00A3  0F29               	incfsz	___flge@ff1+1,w
  3549  00A4  28A6               	goto	u2291
  3550  00A5  28A7               	goto	u2292
  3551  00A6                     u2291:
  3552  00A6  02B1               	subwf	??___flge+1,f
  3553  00A7                     u2292:
  3554  00A7  082A               	movf	___flge@ff1+2,w
  3555  00A8  1C03               	skipc
  3556  00A9  0F2A               	incfsz	___flge@ff1+2,w
  3557  00AA  28AC               	goto	u2293
  3558  00AB  28AD               	goto	u2294
  3559  00AC                     u2293:
  3560  00AC  02B2               	subwf	??___flge+2,f
  3561  00AD                     u2294:
  3562  00AD  082B               	movf	___flge@ff1+3,w
  3563  00AE  1C03               	skipc
  3564  00AF  0F2B               	incfsz	___flge@ff1+3,w
  3565  00B0  28B2               	goto	u2295
  3566  00B1  28B3               	goto	u2296
  3567  00B2                     u2295:
  3568  00B2  02B3               	subwf	??___flge+3,f
  3569  00B3                     u2296:
  3570  00B3  0833               	movf	??___flge+3,w
  3571  00B4  00AB               	movwf	___flge@ff1+3
  3572  00B5  0832               	movf	??___flge+2,w
  3573  00B6  00AA               	movwf	___flge@ff1+2
  3574  00B7  0831               	movf	??___flge+1,w
  3575  00B8  00A9               	movwf	___flge@ff1+1
  3576  00B9  0830               	movf	??___flge,w
  3577  00BA  00A8               	movwf	___flge@ff1
  3578  00BB                     l2062:
  3579  00BB  1FAF               	btfss	___flge@ff2+3,7
  3580  00BC  28BE               	goto	u2301
  3581  00BD  28BF               	goto	u2300
  3582  00BE                     u2301:
  3583  00BE  28E3               	goto	l465
  3584  00BF                     u2300:
  3585  00BF                     l2064:
  3586  00BF  3000               	movlw	0
  3587  00C0  00B0               	movwf	??___flge
  3588  00C1  3000               	movlw	0
  3589  00C2  00B1               	movwf	??___flge+1
  3590  00C3  3000               	movlw	0
  3591  00C4  00B2               	movwf	??___flge+2
  3592  00C5  3080               	movlw	128
  3593  00C6  00B3               	movwf	??___flge+3
  3594  00C7  082C               	movf	___flge@ff2,w
  3595  00C8  02B0               	subwf	??___flge,f
  3596  00C9  082D               	movf	___flge@ff2+1,w
  3597  00CA  1C03               	skipc
  3598  00CB  0F2D               	incfsz	___flge@ff2+1,w
  3599  00CC  28CE               	goto	u2311
  3600  00CD  28CF               	goto	u2312
  3601  00CE                     u2311:
  3602  00CE  02B1               	subwf	??___flge+1,f
  3603  00CF                     u2312:
  3604  00CF  082E               	movf	___flge@ff2+2,w
  3605  00D0  1C03               	skipc
  3606  00D1  0F2E               	incfsz	___flge@ff2+2,w
  3607  00D2  28D4               	goto	u2313
  3608  00D3  28D5               	goto	u2314
  3609  00D4                     u2313:
  3610  00D4  02B2               	subwf	??___flge+2,f
  3611  00D5                     u2314:
  3612  00D5  082F               	movf	___flge@ff2+3,w
  3613  00D6  1C03               	skipc
  3614  00D7  0F2F               	incfsz	___flge@ff2+3,w
  3615  00D8  28DA               	goto	u2315
  3616  00D9  28DB               	goto	u2316
  3617  00DA                     u2315:
  3618  00DA  02B3               	subwf	??___flge+3,f
  3619  00DB                     u2316:
  3620  00DB  0833               	movf	??___flge+3,w
  3621  00DC  00AF               	movwf	___flge@ff2+3
  3622  00DD  0832               	movf	??___flge+2,w
  3623  00DE  00AE               	movwf	___flge@ff2+2
  3624  00DF  0831               	movf	??___flge+1,w
  3625  00E0  00AD               	movwf	___flge@ff2+1
  3626  00E1  0830               	movf	??___flge,w
  3627  00E2  00AC               	movwf	___flge@ff2
  3628  00E3                     l465:
  3629  00E3  3080               	movlw	128
  3630  00E4  06AB               	xorwf	___flge@ff1+3,f
  3631  00E5  3080               	movlw	128
  3632  00E6  06AF               	xorwf	___flge@ff2+3,f
  3633  00E7  082F               	movf	___flge@ff2+3,w
  3634  00E8  022B               	subwf	___flge@ff1+3,w
  3635  00E9  1D03               	skipz
  3636  00EA  28F5               	goto	u2325
  3637  00EB  082E               	movf	___flge@ff2+2,w
  3638  00EC  022A               	subwf	___flge@ff1+2,w
  3639  00ED  1D03               	skipz
  3640  00EE  28F5               	goto	u2325
  3641  00EF  082D               	movf	___flge@ff2+1,w
  3642  00F0  0229               	subwf	___flge@ff1+1,w
  3643  00F1  1D03               	skipz
  3644  00F2  28F5               	goto	u2325
  3645  00F3  082C               	movf	___flge@ff2,w
  3646  00F4  0228               	subwf	___flge@ff1,w
  3647  00F5                     u2325:
  3648  00F5  1803               	skipnc
  3649  00F6  28F8               	goto	u2321
  3650  00F7  28F9               	goto	u2320
  3651  00F8                     u2321:
  3652  00F8  28FB               	goto	l2068
  3653  00F9                     u2320:
  3654  00F9                     l2066:
  3655  00F9  1003               	clrc
  3656  00FA  28FC               	goto	l466
  3657  00FB                     l2068:
  3658  00FB  1403               	setc
  3659  00FC                     l466:
  3660  00FC  0008               	return
  3661  00FD                     __end_of___flge:
  3662                           
  3663                           	psect	text6
  3664  0B8B                     __ptext6:	
  3665 ;; *************** function ___fldiv *****************
  3666 ;; Defined at:
  3667 ;;		line 8 in file "C:\Program Files\Microchip\xc8\v2.35\pic\sources\c90\common\sprcdiv.c"
  3668 ;; Parameters:    Size  Location     Type
  3669 ;;  a               4   32[BANK0 ] unsigned int 
  3670 ;;  b               4   36[BANK0 ] unsigned int 
  3671 ;; Auto vars:     Size  Location     Type
  3672 ;;  grs             4   52[BANK0 ] unsigned long 
  3673 ;;  rem             4   45[BANK0 ] unsigned long 
  3674 ;;  new_exp         2   50[BANK0 ] int 
  3675 ;;  aexp            1   57[BANK0 ] unsigned char 
  3676 ;;  bexp            1   56[BANK0 ] unsigned char 
  3677 ;;  sign            1   49[BANK0 ] unsigned char 
  3678 ;; Return value:  Size  Location     Type
  3679 ;;                  4   32[BANK0 ] unsigned char 
  3680 ;; Registers used:
  3681 ;;		wreg, status,2, status,0, btemp+1
  3682 ;; Tracked objects:
  3683 ;;		On entry : 0/0
  3684 ;;		On exit  : 0/0
  3685 ;;		Unchanged: 0/0
  3686 ;; Data sizes:     COMMON   BANK0   BANK1   BANK3   BANK2
  3687 ;;      Params:         0       8       0       0       0
  3688 ;;      Locals:         0      13       0       0       0
  3689 ;;      Temps:          0       5       0       0       0
  3690 ;;      Totals:         0      26       0       0       0
  3691 ;;Total ram usage:       26 bytes
  3692 ;; Hardware stack levels used: 1
  3693 ;; This function calls:
  3694 ;;		Nothing
  3695 ;; This function is called by:
  3696 ;;		_main
  3697 ;; This function uses a non-reentrant model
  3698 ;;
  3699                           
  3700  0B8B                     ___fldiv:	
  3701                           ;psect for function ___fldiv
  3702                           
  3703  0B8B                     l2302:	
  3704                           ;incstack = 0
  3705                           ; Regs used in ___fldiv: [wreg+status,2+status,0+btemp+1]
  3706                           
  3707  0B8B  1283               	bcf	3,5	;RP0=0, select bank0
  3708  0B8C  1303               	bcf	3,6	;RP1=0, select bank0
  3709  0B8D  0847               	movf	___fldiv@b+3,w
  3710  0B8E  3980               	andlw	128
  3711  0B8F  00C8               	movwf	??___fldiv
  3712  0B90  0848               	movf	??___fldiv,w
  3713  0B91  00D1               	movwf	___fldiv@sign
  3714  0B92                     l2304:
  3715  0B92  0847               	movf	___fldiv@b+3,w
  3716  0B93  00C8               	movwf	??___fldiv
  3717  0B94  0748               	addwf	??___fldiv,w
  3718  0B95  00C9               	movwf	??___fldiv+1
  3719  0B96  0849               	movf	??___fldiv+1,w
  3720  0B97  00D8               	movwf	___fldiv@bexp
  3721  0B98                     l2306:
  3722  0B98  1FC6               	btfss	___fldiv@b+2,7
  3723  0B99  2B9B               	goto	u2891
  3724  0B9A  2B9C               	goto	u2890
  3725  0B9B                     u2891:
  3726  0B9B  2B9D               	goto	l2310
  3727  0B9C                     u2890:
  3728  0B9C                     l2308:
  3729  0B9C  1458               	bsf	___fldiv@bexp,0
  3730  0B9D                     l2310:
  3731  0B9D  0858               	movf	___fldiv@bexp,w
  3732  0B9E  1903               	btfsc	3,2
  3733  0B9F  2BA1               	goto	u2901
  3734  0BA0  2BA2               	goto	u2900
  3735  0BA1                     u2901:
  3736  0BA1  2BB2               	goto	l2320
  3737  0BA2                     u2900:
  3738  0BA2                     l2312:
  3739  0BA2  0A58               	incf	___fldiv@bexp,w
  3740  0BA3  1D03               	btfss	3,2
  3741  0BA4  2BA6               	goto	u2911
  3742  0BA5  2BA7               	goto	u2910
  3743  0BA6                     u2911:
  3744  0BA6  2BAF               	goto	l2316
  3745  0BA7                     u2910:
  3746  0BA7                     l2314:
  3747  0BA7  3000               	movlw	0
  3748  0BA8  00C7               	movwf	___fldiv@b+3
  3749  0BA9  3000               	movlw	0
  3750  0BAA  00C6               	movwf	___fldiv@b+2
  3751  0BAB  3000               	movlw	0
  3752  0BAC  00C5               	movwf	___fldiv@b+1
  3753  0BAD  3000               	movlw	0
  3754  0BAE  00C4               	movwf	___fldiv@b
  3755  0BAF                     l2316:
  3756  0BAF  17C6               	bsf	___fldiv@b+2,7
  3757  0BB0                     l2318:
  3758  0BB0  01C7               	clrf	___fldiv@b+3
  3759  0BB1  2BBA               	goto	l2322
  3760  0BB2                     l2320:
  3761  0BB2  3000               	movlw	0
  3762  0BB3  00C7               	movwf	___fldiv@b+3
  3763  0BB4  3000               	movlw	0
  3764  0BB5  00C6               	movwf	___fldiv@b+2
  3765  0BB6  3000               	movlw	0
  3766  0BB7  00C5               	movwf	___fldiv@b+1
  3767  0BB8  3000               	movlw	0
  3768  0BB9  00C4               	movwf	___fldiv@b
  3769  0BBA                     l2322:
  3770  0BBA  0843               	movf	___fldiv@a+3,w
  3771  0BBB  3980               	andlw	128
  3772  0BBC  00C8               	movwf	??___fldiv
  3773  0BBD  0848               	movf	??___fldiv,w
  3774  0BBE  06D1               	xorwf	___fldiv@sign,f
  3775  0BBF                     l2324:
  3776  0BBF  0843               	movf	___fldiv@a+3,w
  3777  0BC0  00C8               	movwf	??___fldiv
  3778  0BC1  0748               	addwf	??___fldiv,w
  3779  0BC2  00C9               	movwf	??___fldiv+1
  3780  0BC3  0849               	movf	??___fldiv+1,w
  3781  0BC4  00D9               	movwf	___fldiv@aexp
  3782  0BC5                     l2326:
  3783  0BC5  1FC2               	btfss	___fldiv@a+2,7
  3784  0BC6  2BC8               	goto	u2921
  3785  0BC7  2BC9               	goto	u2920
  3786  0BC8                     u2921:
  3787  0BC8  2BCA               	goto	l2330
  3788  0BC9                     u2920:
  3789  0BC9                     l2328:
  3790  0BC9  1459               	bsf	___fldiv@aexp,0
  3791  0BCA                     l2330:
  3792  0BCA  0859               	movf	___fldiv@aexp,w
  3793  0BCB  1903               	btfsc	3,2
  3794  0BCC  2BCE               	goto	u2931
  3795  0BCD  2BCF               	goto	u2930
  3796  0BCE                     u2931:
  3797  0BCE  2BDF               	goto	l2340
  3798  0BCF                     u2930:
  3799  0BCF                     l2332:
  3800  0BCF  0A59               	incf	___fldiv@aexp,w
  3801  0BD0  1D03               	btfss	3,2
  3802  0BD1  2BD3               	goto	u2941
  3803  0BD2  2BD4               	goto	u2940
  3804  0BD3                     u2941:
  3805  0BD3  2BDC               	goto	l2336
  3806  0BD4                     u2940:
  3807  0BD4                     l2334:
  3808  0BD4  3000               	movlw	0
  3809  0BD5  00C3               	movwf	___fldiv@a+3
  3810  0BD6  3000               	movlw	0
  3811  0BD7  00C2               	movwf	___fldiv@a+2
  3812  0BD8  3000               	movlw	0
  3813  0BD9  00C1               	movwf	___fldiv@a+1
  3814  0BDA  3000               	movlw	0
  3815  0BDB  00C0               	movwf	___fldiv@a
  3816  0BDC                     l2336:
  3817  0BDC  17C2               	bsf	___fldiv@a+2,7
  3818  0BDD                     l2338:
  3819  0BDD  01C3               	clrf	___fldiv@a+3
  3820  0BDE  2BE7               	goto	l637
  3821  0BDF                     l2340:
  3822  0BDF  3000               	movlw	0
  3823  0BE0  00C3               	movwf	___fldiv@a+3
  3824  0BE1  3000               	movlw	0
  3825  0BE2  00C2               	movwf	___fldiv@a+2
  3826  0BE3  3000               	movlw	0
  3827  0BE4  00C1               	movwf	___fldiv@a+1
  3828  0BE5  3000               	movlw	0
  3829  0BE6  00C0               	movwf	___fldiv@a
  3830  0BE7                     l637:
  3831  0BE7  0843               	movf	___fldiv@a+3,w
  3832  0BE8  0442               	iorwf	___fldiv@a+2,w
  3833  0BE9  0441               	iorwf	___fldiv@a+1,w
  3834  0BEA  0440               	iorwf	___fldiv@a,w
  3835  0BEB  1D03               	skipz
  3836  0BEC  2BEE               	goto	u2951
  3837  0BED  2BEF               	goto	u2950
  3838  0BEE                     u2951:
  3839  0BEE  2C08               	goto	l2350
  3840  0BEF                     u2950:
  3841  0BEF                     l2342:
  3842  0BEF  3000               	movlw	0
  3843  0BF0  00C7               	movwf	___fldiv@b+3
  3844  0BF1  3000               	movlw	0
  3845  0BF2  00C6               	movwf	___fldiv@b+2
  3846  0BF3  3000               	movlw	0
  3847  0BF4  00C5               	movwf	___fldiv@b+1
  3848  0BF5  3000               	movlw	0
  3849  0BF6  00C4               	movwf	___fldiv@b
  3850  0BF7  3080               	movlw	128
  3851  0BF8  04C6               	iorwf	___fldiv@b+2,f
  3852  0BF9  307F               	movlw	127
  3853  0BFA  04C7               	iorwf	___fldiv@b+3,f
  3854  0BFB                     l2344:
  3855  0BFB  0851               	movf	___fldiv@sign,w
  3856  0BFC  00C8               	movwf	??___fldiv
  3857  0BFD  0848               	movf	??___fldiv,w
  3858  0BFE  04C7               	iorwf	___fldiv@b+3,f
  3859  0BFF                     l2346:
  3860  0BFF  0847               	movf	___fldiv@b+3,w
  3861  0C00  00C3               	movwf	?___fldiv+3
  3862  0C01  0846               	movf	___fldiv@b+2,w
  3863  0C02  00C2               	movwf	?___fldiv+2
  3864  0C03  0845               	movf	___fldiv@b+1,w
  3865  0C04  00C1               	movwf	?___fldiv+1
  3866  0C05  0844               	movf	___fldiv@b,w
  3867  0C06  00C0               	movwf	?___fldiv
  3868  0C07  2D67               	goto	l639
  3869  0C08                     l2350:
  3870  0C08  0858               	movf	___fldiv@bexp,w
  3871  0C09  1D03               	btfss	3,2
  3872  0C0A  2C0C               	goto	u2961
  3873  0C0B  2C0D               	goto	u2960
  3874  0C0C                     u2961:
  3875  0C0C  2C16               	goto	l2356
  3876  0C0D                     u2960:
  3877  0C0D                     l2352:
  3878  0C0D  3000               	movlw	0
  3879  0C0E  00C3               	movwf	?___fldiv+3
  3880  0C0F  3000               	movlw	0
  3881  0C10  00C2               	movwf	?___fldiv+2
  3882  0C11  3000               	movlw	0
  3883  0C12  00C1               	movwf	?___fldiv+1
  3884  0C13  3000               	movlw	0
  3885  0C14  00C0               	movwf	?___fldiv
  3886  0C15  2D67               	goto	l639
  3887  0C16                     l2356:
  3888  0C16  0858               	movf	___fldiv@bexp,w
  3889  0C17  00C8               	movwf	??___fldiv
  3890  0C18  01C9               	clrf	??___fldiv+1
  3891  0C19  0849               	movf	??___fldiv+1,w
  3892  0C1A  00CB               	movwf	??___fldiv+3
  3893  0C1B  0859               	movf	___fldiv@aexp,w
  3894  0C1C  0248               	subwf	??___fldiv,w
  3895  0C1D  00CA               	movwf	??___fldiv+2
  3896  0C1E  1C03               	skipc
  3897  0C1F  03CB               	decf	??___fldiv+3,f
  3898  0C20  084A               	movf	??___fldiv+2,w
  3899  0C21  3E7F               	addlw	127
  3900  0C22  00D2               	movwf	___fldiv@new_exp
  3901  0C23  084B               	movf	??___fldiv+3,w
  3902  0C24  1803               	skipnc
  3903  0C25  3E01               	addlw	1
  3904  0C26  3E00               	addlw	0
  3905  0C27  00D3               	movwf	___fldiv@new_exp+1
  3906  0C28                     l2358:
  3907  0C28  0847               	movf	___fldiv@b+3,w
  3908  0C29  00D0               	movwf	___fldiv@rem+3
  3909  0C2A  0846               	movf	___fldiv@b+2,w
  3910  0C2B  00CF               	movwf	___fldiv@rem+2
  3911  0C2C  0845               	movf	___fldiv@b+1,w
  3912  0C2D  00CE               	movwf	___fldiv@rem+1
  3913  0C2E  0844               	movf	___fldiv@b,w
  3914  0C2F  00CD               	movwf	___fldiv@rem
  3915  0C30                     l2360:
  3916  0C30  3000               	movlw	0
  3917  0C31  00C7               	movwf	___fldiv@b+3
  3918  0C32  3000               	movlw	0
  3919  0C33  00C6               	movwf	___fldiv@b+2
  3920  0C34  3000               	movlw	0
  3921  0C35  00C5               	movwf	___fldiv@b+1
  3922  0C36  3000               	movlw	0
  3923  0C37  00C4               	movwf	___fldiv@b
  3924  0C38                     l2362:
  3925  0C38  3000               	movlw	0
  3926  0C39  00D7               	movwf	___fldiv@grs+3
  3927  0C3A  3000               	movlw	0
  3928  0C3B  00D6               	movwf	___fldiv@grs+2
  3929  0C3C  3000               	movlw	0
  3930  0C3D  00D5               	movwf	___fldiv@grs+1
  3931  0C3E  3000               	movlw	0
  3932  0C3F  00D4               	movwf	___fldiv@grs
  3933  0C40                     l2364:
  3934  0C40  01D9               	clrf	___fldiv@aexp
  3935  0C41  2C8C               	goto	l2384
  3936  0C42                     l2366:
  3937  0C42  0859               	movf	___fldiv@aexp,w
  3938  0C43  1903               	btfsc	3,2
  3939  0C44  2C46               	goto	u2971
  3940  0C45  2C47               	goto	u2970
  3941  0C46                     u2971:
  3942  0C46  2C67               	goto	l2376
  3943  0C47                     u2970:
  3944  0C47                     l2368:
  3945  0C47  3001               	movlw	1
  3946  0C48  00C8               	movwf	??___fldiv
  3947  0C49                     u2985:
  3948  0C49  1003               	clrc
  3949  0C4A  0DCD               	rlf	___fldiv@rem,f
  3950  0C4B  0DCE               	rlf	___fldiv@rem+1,f
  3951  0C4C  0DCF               	rlf	___fldiv@rem+2,f
  3952  0C4D  0DD0               	rlf	___fldiv@rem+3,f
  3953  0C4E  0BC8               	decfsz	??___fldiv,f
  3954  0C4F  2C49               	goto	u2985
  3955  0C50  3001               	movlw	1
  3956  0C51  00C8               	movwf	??___fldiv
  3957  0C52                     u2995:
  3958  0C52  1003               	clrc
  3959  0C53  0DC4               	rlf	___fldiv@b,f
  3960  0C54  0DC5               	rlf	___fldiv@b+1,f
  3961  0C55  0DC6               	rlf	___fldiv@b+2,f
  3962  0C56  0DC7               	rlf	___fldiv@b+3,f
  3963  0C57  0BC8               	decfsz	??___fldiv,f
  3964  0C58  2C52               	goto	u2995
  3965  0C59                     l2370:
  3966  0C59  1FD7               	btfss	___fldiv@grs+3,7
  3967  0C5A  2C5C               	goto	u3001
  3968  0C5B  2C5D               	goto	u3000
  3969  0C5C                     u3001:
  3970  0C5C  2C5E               	goto	l2374
  3971  0C5D                     u3000:
  3972  0C5D                     l2372:
  3973  0C5D  1444               	bsf	___fldiv@b,0
  3974  0C5E                     l2374:
  3975  0C5E  3001               	movlw	1
  3976  0C5F  00C8               	movwf	??___fldiv
  3977  0C60                     u3015:
  3978  0C60  1003               	clrc
  3979  0C61  0DD4               	rlf	___fldiv@grs,f
  3980  0C62  0DD5               	rlf	___fldiv@grs+1,f
  3981  0C63  0DD6               	rlf	___fldiv@grs+2,f
  3982  0C64  0DD7               	rlf	___fldiv@grs+3,f
  3983  0C65  0BC8               	decfsz	??___fldiv,f
  3984  0C66  2C60               	goto	u3015
  3985  0C67                     l2376:
  3986  0C67  0843               	movf	___fldiv@a+3,w
  3987  0C68  0250               	subwf	___fldiv@rem+3,w
  3988  0C69  1D03               	skipz
  3989  0C6A  2C75               	goto	u3025
  3990  0C6B  0842               	movf	___fldiv@a+2,w
  3991  0C6C  024F               	subwf	___fldiv@rem+2,w
  3992  0C6D  1D03               	skipz
  3993  0C6E  2C75               	goto	u3025
  3994  0C6F  0841               	movf	___fldiv@a+1,w
  3995  0C70  024E               	subwf	___fldiv@rem+1,w
  3996  0C71  1D03               	skipz
  3997  0C72  2C75               	goto	u3025
  3998  0C73  0840               	movf	___fldiv@a,w
  3999  0C74  024D               	subwf	___fldiv@rem,w
  4000  0C75                     u3025:
  4001  0C75  1C03               	skipc
  4002  0C76  2C78               	goto	u3021
  4003  0C77  2C79               	goto	u3020
  4004  0C78                     u3021:
  4005  0C78  2C88               	goto	l2382
  4006  0C79                     u3020:
  4007  0C79                     l2378:
  4008  0C79  1757               	bsf	___fldiv@grs+3,6
  4009  0C7A                     l2380:
  4010  0C7A  0840               	movf	___fldiv@a,w
  4011  0C7B  02CD               	subwf	___fldiv@rem,f
  4012  0C7C  0841               	movf	___fldiv@a+1,w
  4013  0C7D  1C03               	skipc
  4014  0C7E  0F41               	incfsz	___fldiv@a+1,w
  4015  0C7F  02CE               	subwf	___fldiv@rem+1,f
  4016  0C80  0842               	movf	___fldiv@a+2,w
  4017  0C81  1C03               	skipc
  4018  0C82  0F42               	incfsz	___fldiv@a+2,w
  4019  0C83  02CF               	subwf	___fldiv@rem+2,f
  4020  0C84  0843               	movf	___fldiv@a+3,w
  4021  0C85  1C03               	skipc
  4022  0C86  0F43               	incfsz	___fldiv@a+3,w
  4023  0C87  02D0               	subwf	___fldiv@rem+3,f
  4024  0C88                     l2382:
  4025  0C88  3001               	movlw	1
  4026  0C89  00C8               	movwf	??___fldiv
  4027  0C8A  0848               	movf	??___fldiv,w
  4028  0C8B  07D9               	addwf	___fldiv@aexp,f
  4029  0C8C                     l2384:
  4030  0C8C  301A               	movlw	26
  4031  0C8D  0259               	subwf	___fldiv@aexp,w
  4032  0C8E  1C03               	skipc
  4033  0C8F  2C91               	goto	u3031
  4034  0C90  2C92               	goto	u3030
  4035  0C91                     u3031:
  4036  0C91  2C42               	goto	l2366
  4037  0C92                     u3030:
  4038  0C92                     l2386:
  4039  0C92  0850               	movf	___fldiv@rem+3,w
  4040  0C93  044F               	iorwf	___fldiv@rem+2,w
  4041  0C94  044E               	iorwf	___fldiv@rem+1,w
  4042  0C95  044D               	iorwf	___fldiv@rem,w
  4043  0C96  1903               	skipnz
  4044  0C97  2C99               	goto	u3041
  4045  0C98  2C9A               	goto	u3040
  4046  0C99                     u3041:
  4047  0C99  2CB9               	goto	l2400
  4048  0C9A                     u3040:
  4049  0C9A                     l2388:
  4050  0C9A  1454               	bsf	___fldiv@grs,0
  4051  0C9B  2CB9               	goto	l2400
  4052  0C9C                     l2390:
  4053  0C9C  3001               	movlw	1
  4054  0C9D  00C8               	movwf	??___fldiv
  4055  0C9E                     u3055:
  4056  0C9E  1003               	clrc
  4057  0C9F  0DC4               	rlf	___fldiv@b,f
  4058  0CA0  0DC5               	rlf	___fldiv@b+1,f
  4059  0CA1  0DC6               	rlf	___fldiv@b+2,f
  4060  0CA2  0DC7               	rlf	___fldiv@b+3,f
  4061  0CA3  0BC8               	decfsz	??___fldiv,f
  4062  0CA4  2C9E               	goto	u3055
  4063  0CA5                     l2392:
  4064  0CA5  1FD7               	btfss	___fldiv@grs+3,7
  4065  0CA6  2CA8               	goto	u3061
  4066  0CA7  2CA9               	goto	u3060
  4067  0CA8                     u3061:
  4068  0CA8  2CAA               	goto	l2396
  4069  0CA9                     u3060:
  4070  0CA9                     l2394:
  4071  0CA9  1444               	bsf	___fldiv@b,0
  4072  0CAA                     l2396:
  4073  0CAA  3001               	movlw	1
  4074  0CAB  00C8               	movwf	??___fldiv
  4075  0CAC                     u3075:
  4076  0CAC  1003               	clrc
  4077  0CAD  0DD4               	rlf	___fldiv@grs,f
  4078  0CAE  0DD5               	rlf	___fldiv@grs+1,f
  4079  0CAF  0DD6               	rlf	___fldiv@grs+2,f
  4080  0CB0  0DD7               	rlf	___fldiv@grs+3,f
  4081  0CB1  0BC8               	decfsz	??___fldiv,f
  4082  0CB2  2CAC               	goto	u3075
  4083  0CB3                     l2398:
  4084  0CB3  30FF               	movlw	255
  4085  0CB4  07D2               	addwf	___fldiv@new_exp,f
  4086  0CB5  1803               	skipnc
  4087  0CB6  0AD3               	incf	___fldiv@new_exp+1,f
  4088  0CB7  30FF               	movlw	255
  4089  0CB8  07D3               	addwf	___fldiv@new_exp+1,f
  4090  0CB9                     l2400:
  4091  0CB9  1FC6               	btfss	___fldiv@b+2,7
  4092  0CBA  2CBC               	goto	u3081
  4093  0CBB  2CBD               	goto	u3080
  4094  0CBC                     u3081:
  4095  0CBC  2C9C               	goto	l2390
  4096  0CBD                     u3080:
  4097  0CBD                     l2402:
  4098  0CBD  01D9               	clrf	___fldiv@aexp
  4099  0CBE                     l2404:
  4100  0CBE  1FD7               	btfss	___fldiv@grs+3,7
  4101  0CBF  2CC1               	goto	u3091
  4102  0CC0  2CC2               	goto	u3090
  4103  0CC1                     u3091:
  4104  0CC1  2CDE               	goto	l2412
  4105  0CC2                     u3090:
  4106  0CC2                     l2406:
  4107  0CC2  30FF               	movlw	255
  4108  0CC3  0554               	andwf	___fldiv@grs,w
  4109  0CC4  00C8               	movwf	??___fldiv
  4110  0CC5  30FF               	movlw	255
  4111  0CC6  0555               	andwf	___fldiv@grs+1,w
  4112  0CC7  00C9               	movwf	??___fldiv+1
  4113  0CC8  30FF               	movlw	255
  4114  0CC9  0556               	andwf	___fldiv@grs+2,w
  4115  0CCA  00CA               	movwf	??___fldiv+2
  4116  0CCB  307F               	movlw	127
  4117  0CCC  0557               	andwf	___fldiv@grs+3,w
  4118  0CCD  00CB               	movwf	??___fldiv+3
  4119  0CCE  084B               	movf	??___fldiv+3,w
  4120  0CCF  044A               	iorwf	??___fldiv+2,w
  4121  0CD0  0449               	iorwf	??___fldiv+1,w
  4122  0CD1  0448               	iorwf	??___fldiv,w
  4123  0CD2  1903               	skipnz
  4124  0CD3  2CD5               	goto	u3101
  4125  0CD4  2CD6               	goto	u3100
  4126  0CD5                     u3101:
  4127  0CD5  2CD9               	goto	l653
  4128  0CD6                     u3100:
  4129  0CD6                     l2408:
  4130  0CD6  01D9               	clrf	___fldiv@aexp
  4131  0CD7  0AD9               	incf	___fldiv@aexp,f
  4132  0CD8  2CDE               	goto	l2412
  4133  0CD9                     l653:
  4134  0CD9  1C44               	btfss	___fldiv@b,0
  4135  0CDA  2CDC               	goto	u3111
  4136  0CDB  2CDD               	goto	u3110
  4137  0CDC                     u3111:
  4138  0CDC  2CDE               	goto	l2412
  4139  0CDD                     u3110:
  4140  0CDD  2CD6               	goto	l2408
  4141  0CDE                     l2412:
  4142  0CDE  0859               	movf	___fldiv@aexp,w
  4143  0CDF  1903               	btfsc	3,2
  4144  0CE0  2CE2               	goto	u3121
  4145  0CE1  2CE3               	goto	u3120
  4146  0CE2                     u3121:
  4147  0CE2  2D14               	goto	l2422
  4148  0CE3                     u3120:
  4149  0CE3                     l2414:
  4150  0CE3  3001               	movlw	1
  4151  0CE4  07C4               	addwf	___fldiv@b,f
  4152  0CE5  3000               	movlw	0
  4153  0CE6  1803               	skipnc
  4154  0CE7  3001               	movlw	1
  4155  0CE8  07C5               	addwf	___fldiv@b+1,f
  4156  0CE9  3000               	movlw	0
  4157  0CEA  1803               	skipnc
  4158  0CEB  3001               	movlw	1
  4159  0CEC  07C6               	addwf	___fldiv@b+2,f
  4160  0CED  3000               	movlw	0
  4161  0CEE  1803               	skipnc
  4162  0CEF  3001               	movlw	1
  4163  0CF0  07C7               	addwf	___fldiv@b+3,f
  4164  0CF1                     l2416:
  4165  0CF1  1C47               	btfss	___fldiv@b+3,0
  4166  0CF2  2CF4               	goto	u3131
  4167  0CF3  2CF5               	goto	u3130
  4168  0CF4                     u3131:
  4169  0CF4  2D14               	goto	l2422
  4170  0CF5                     u3130:
  4171  0CF5                     l2418:
  4172  0CF5  0844               	movf	___fldiv@b,w
  4173  0CF6  00C8               	movwf	??___fldiv
  4174  0CF7  0845               	movf	___fldiv@b+1,w
  4175  0CF8  00C9               	movwf	??___fldiv+1
  4176  0CF9  0846               	movf	___fldiv@b+2,w
  4177  0CFA  00CA               	movwf	??___fldiv+2
  4178  0CFB  0847               	movf	___fldiv@b+3,w
  4179  0CFC  00CB               	movwf	??___fldiv+3
  4180  0CFD  3001               	movlw	1
  4181  0CFE  00CC               	movwf	??___fldiv+4
  4182  0CFF                     u3145:
  4183  0CFF  0D4B               	rlf	??___fldiv+3,w
  4184  0D00  0CCB               	rrf	??___fldiv+3,f
  4185  0D01  0CCA               	rrf	??___fldiv+2,f
  4186  0D02  0CC9               	rrf	??___fldiv+1,f
  4187  0D03  0CC8               	rrf	??___fldiv,f
  4188  0D04                     u3140:
  4189  0D04  0BCC               	decfsz	??___fldiv+4,f
  4190  0D05  2CFF               	goto	u3145
  4191  0D06  084B               	movf	??___fldiv+3,w
  4192  0D07  00C7               	movwf	___fldiv@b+3
  4193  0D08  084A               	movf	??___fldiv+2,w
  4194  0D09  00C6               	movwf	___fldiv@b+2
  4195  0D0A  0849               	movf	??___fldiv+1,w
  4196  0D0B  00C5               	movwf	___fldiv@b+1
  4197  0D0C  0848               	movf	??___fldiv,w
  4198  0D0D  00C4               	movwf	___fldiv@b
  4199  0D0E                     l2420:
  4200  0D0E  3001               	movlw	1
  4201  0D0F  07D2               	addwf	___fldiv@new_exp,f
  4202  0D10  1803               	skipnc
  4203  0D11  0AD3               	incf	___fldiv@new_exp+1,f
  4204  0D12  3000               	movlw	0
  4205  0D13  07D3               	addwf	___fldiv@new_exp+1,f
  4206  0D14                     l2422:
  4207  0D14  0853               	movf	___fldiv@new_exp+1,w
  4208  0D15  3A80               	xorlw	128
  4209  0D16  00FF               	movwf	btemp+1
  4210  0D17  3080               	movlw	128
  4211  0D18  027F               	subwf	btemp+1,w
  4212  0D19  1D03               	skipz
  4213  0D1A  2D1D               	goto	u3155
  4214  0D1B  30FF               	movlw	255
  4215  0D1C  0252               	subwf	___fldiv@new_exp,w
  4216  0D1D                     u3155:
  4217  0D1D  1C03               	skipc
  4218  0D1E  2D20               	goto	u3151
  4219  0D1F  2D21               	goto	u3150
  4220  0D20                     u3151:
  4221  0D20  2D2F               	goto	l2426
  4222  0D21                     u3150:
  4223  0D21                     l2424:
  4224  0D21  30FF               	movlw	255
  4225  0D22  1283               	bcf	3,5	;RP0=0, select bank0
  4226  0D23  1303               	bcf	3,6	;RP1=0, select bank0
  4227  0D24  00D2               	movwf	___fldiv@new_exp
  4228  0D25  3000               	movlw	0
  4229  0D26  00D3               	movwf	___fldiv@new_exp+1
  4230  0D27  3000               	movlw	0
  4231  0D28  00C7               	movwf	___fldiv@b+3
  4232  0D29  3000               	movlw	0
  4233  0D2A  00C6               	movwf	___fldiv@b+2
  4234  0D2B  3000               	movlw	0
  4235  0D2C  00C5               	movwf	___fldiv@b+1
  4236  0D2D  3000               	movlw	0
  4237  0D2E  00C4               	movwf	___fldiv@b
  4238  0D2F                     l2426:
  4239  0D2F  1283               	bcf	3,5	;RP0=0, select bank0
  4240  0D30  1303               	bcf	3,6	;RP1=0, select bank0
  4241  0D31  0853               	movf	___fldiv@new_exp+1,w
  4242  0D32  3A80               	xorlw	128
  4243  0D33  00FF               	movwf	btemp+1
  4244  0D34  3080               	movlw	128
  4245  0D35  027F               	subwf	btemp+1,w
  4246  0D36  1D03               	skipz
  4247  0D37  2D3A               	goto	u3165
  4248  0D38  3001               	movlw	1
  4249  0D39  0252               	subwf	___fldiv@new_exp,w
  4250  0D3A                     u3165:
  4251  0D3A  1803               	skipnc
  4252  0D3B  2D3D               	goto	u3161
  4253  0D3C  2D3E               	goto	u3160
  4254  0D3D                     u3161:
  4255  0D3D  2D4B               	goto	l659
  4256  0D3E                     u3160:
  4257  0D3E                     l2428:
  4258  0D3E  1283               	bcf	3,5	;RP0=0, select bank0
  4259  0D3F  1303               	bcf	3,6	;RP1=0, select bank0
  4260  0D40  01D2               	clrf	___fldiv@new_exp
  4261  0D41  01D3               	clrf	___fldiv@new_exp+1
  4262  0D42                     l2430:
  4263  0D42  3000               	movlw	0
  4264  0D43  00C7               	movwf	___fldiv@b+3
  4265  0D44  3000               	movlw	0
  4266  0D45  00C6               	movwf	___fldiv@b+2
  4267  0D46  3000               	movlw	0
  4268  0D47  00C5               	movwf	___fldiv@b+1
  4269  0D48  3000               	movlw	0
  4270  0D49  00C4               	movwf	___fldiv@b
  4271  0D4A                     l2432:
  4272  0D4A  01D1               	clrf	___fldiv@sign
  4273  0D4B                     l659:
  4274  0D4B  1283               	bcf	3,5	;RP0=0, select bank0
  4275  0D4C  1303               	bcf	3,6	;RP1=0, select bank0
  4276  0D4D  0852               	movf	___fldiv@new_exp,w
  4277  0D4E  00C8               	movwf	??___fldiv
  4278  0D4F  0848               	movf	??___fldiv,w
  4279  0D50  00D8               	movwf	___fldiv@bexp
  4280  0D51                     l2434:
  4281  0D51  1C58               	btfss	___fldiv@bexp,0
  4282  0D52  2D54               	goto	u3171
  4283  0D53  2D55               	goto	u3170
  4284  0D54                     u3171:
  4285  0D54  2D57               	goto	l2438
  4286  0D55                     u3170:
  4287  0D55                     l2436:
  4288  0D55  17C6               	bsf	___fldiv@b+2,7
  4289  0D56  2D5B               	goto	l661
  4290  0D57                     l2438:
  4291  0D57  307F               	movlw	127
  4292  0D58  00C8               	movwf	??___fldiv
  4293  0D59  0848               	movf	??___fldiv,w
  4294  0D5A  05C6               	andwf	___fldiv@b+2,f
  4295  0D5B                     l661:
  4296  0D5B  0858               	movf	___fldiv@bexp,w
  4297  0D5C  00C8               	movwf	??___fldiv
  4298  0D5D  1003               	clrc
  4299  0D5E  0C48               	rrf	??___fldiv,w
  4300  0D5F  00C9               	movwf	??___fldiv+1
  4301  0D60  0849               	movf	??___fldiv+1,w
  4302  0D61  00C7               	movwf	___fldiv@b+3
  4303  0D62  0851               	movf	___fldiv@sign,w
  4304  0D63  00C8               	movwf	??___fldiv
  4305  0D64  0848               	movf	??___fldiv,w
  4306  0D65  04C7               	iorwf	___fldiv@b+3,f
  4307  0D66  2BFF               	goto	l2346
  4308  0D67                     l639:
  4309  0D67  0008               	return
  4310  0D68                     __end_of___fldiv:
  4311                           
  4312                           	psect	text7
  4313  0D68                     __ptext7:	
  4314 ;; *************** function ___fladd *****************
  4315 ;; Defined at:
  4316 ;;		line 10 in file "C:\Program Files\Microchip\xc8\v2.35\pic\sources\c90\common\sprcadd.c"
  4317 ;; Parameters:    Size  Location     Type
  4318 ;;  b               4    0[COMMON] unsigned char 
  4319 ;;  a               4    4[COMMON] unsigned char 
  4320 ;; Auto vars:     Size  Location     Type
  4321 ;;  grs             1   11[COMMON] unsigned char 
  4322 ;;  bexp            1   10[COMMON] unsigned char 
  4323 ;;  aexp            1    9[COMMON] unsigned char 
  4324 ;;  signs           1    8[COMMON] unsigned char 
  4325 ;; Return value:  Size  Location     Type
  4326 ;;                  4    0[COMMON] unsigned char 
  4327 ;; Registers used:
  4328 ;;		wreg, status,2, status,0, btemp+1
  4329 ;; Tracked objects:
  4330 ;;		On entry : 0/0
  4331 ;;		On exit  : 0/0
  4332 ;;		Unchanged: 0/0
  4333 ;; Data sizes:     COMMON   BANK0   BANK1   BANK3   BANK2
  4334 ;;      Params:         8       0       0       0       0
  4335 ;;      Locals:         4       0       0       0       0
  4336 ;;      Temps:          0       8       0       0       0
  4337 ;;      Totals:        12       8       0       0       0
  4338 ;;Total ram usage:       20 bytes
  4339 ;; Hardware stack levels used: 1
  4340 ;; This function calls:
  4341 ;;		Nothing
  4342 ;; This function is called by:
  4343 ;;		_main
  4344 ;; This function uses a non-reentrant model
  4345 ;;
  4346                           
  4347  0D68                     ___fladd:	
  4348                           ;psect for function ___fladd
  4349                           
  4350  0D68                     l2108:	
  4351                           ;incstack = 0
  4352                           ; Regs used in ___fladd: [wreg+status,2+status,0+btemp+1]
  4353                           
  4354  0D68  0873               	movf	___fladd@b+3,w
  4355  0D69  3980               	andlw	128
  4356  0D6A  1283               	bcf	3,5	;RP0=0, select bank0
  4357  0D6B  1303               	bcf	3,6	;RP1=0, select bank0
  4358  0D6C  00A0               	movwf	??___fladd
  4359  0D6D  0820               	movf	??___fladd,w
  4360  0D6E  00F8               	movwf	___fladd@signs
  4361  0D6F                     l2110:
  4362  0D6F  0873               	movf	___fladd@b+3,w
  4363  0D70  00A0               	movwf	??___fladd
  4364  0D71  0720               	addwf	??___fladd,w
  4365  0D72  00A1               	movwf	??___fladd+1
  4366  0D73  0821               	movf	??___fladd+1,w
  4367  0D74  00FA               	movwf	___fladd@bexp
  4368  0D75                     l2112:
  4369  0D75  1FF2               	btfss	___fladd@b+2,7
  4370  0D76  2D78               	goto	u2431
  4371  0D77  2D79               	goto	u2430
  4372  0D78                     u2431:
  4373  0D78  2D7A               	goto	l2116
  4374  0D79                     u2430:
  4375  0D79                     l2114:
  4376  0D79  147A               	bsf	___fladd@bexp,0
  4377  0D7A                     l2116:
  4378  0D7A  087A               	movf	___fladd@bexp,w
  4379  0D7B  1903               	btfsc	3,2
  4380  0D7C  2D7E               	goto	u2441
  4381  0D7D  2D7F               	goto	u2440
  4382  0D7E                     u2441:
  4383  0D7E  2D8F               	goto	l2126
  4384  0D7F                     u2440:
  4385  0D7F                     l2118:
  4386  0D7F  0A7A               	incf	___fladd@bexp,w
  4387  0D80  1D03               	btfss	3,2
  4388  0D81  2D83               	goto	u2451
  4389  0D82  2D84               	goto	u2450
  4390  0D83                     u2451:
  4391  0D83  2D8C               	goto	l2122
  4392  0D84                     u2450:
  4393  0D84                     l2120:
  4394  0D84  3000               	movlw	0
  4395  0D85  00F3               	movwf	___fladd@b+3
  4396  0D86  3000               	movlw	0
  4397  0D87  00F2               	movwf	___fladd@b+2
  4398  0D88  3000               	movlw	0
  4399  0D89  00F1               	movwf	___fladd@b+1
  4400  0D8A  3000               	movlw	0
  4401  0D8B  00F0               	movwf	___fladd@b
  4402  0D8C                     l2122:
  4403  0D8C  17F2               	bsf	___fladd@b+2,7
  4404  0D8D                     l2124:
  4405  0D8D  01F3               	clrf	___fladd@b+3
  4406  0D8E  2D97               	goto	l2128
  4407  0D8F                     l2126:
  4408  0D8F  3000               	movlw	0
  4409  0D90  00F3               	movwf	___fladd@b+3
  4410  0D91  3000               	movlw	0
  4411  0D92  00F2               	movwf	___fladd@b+2
  4412  0D93  3000               	movlw	0
  4413  0D94  00F1               	movwf	___fladd@b+1
  4414  0D95  3000               	movlw	0
  4415  0D96  00F0               	movwf	___fladd@b
  4416  0D97                     l2128:
  4417  0D97  0877               	movf	___fladd@a+3,w
  4418  0D98  3980               	andlw	128
  4419  0D99  00A0               	movwf	??___fladd
  4420  0D9A  0820               	movf	??___fladd,w
  4421  0D9B  00F9               	movwf	___fladd@aexp
  4422  0D9C                     l2130:
  4423  0D9C  0879               	movf	___fladd@aexp,w
  4424  0D9D  0678               	xorwf	___fladd@signs,w
  4425  0D9E  1903               	skipnz
  4426  0D9F  2DA1               	goto	u2461
  4427  0DA0  2DA2               	goto	u2460
  4428  0DA1                     u2461:
  4429  0DA1  2DA3               	goto	l2134
  4430  0DA2                     u2460:
  4431  0DA2                     l2132:
  4432  0DA2  1778               	bsf	___fladd@signs,6
  4433  0DA3                     l2134:
  4434  0DA3  0877               	movf	___fladd@a+3,w
  4435  0DA4  00A0               	movwf	??___fladd
  4436  0DA5  0720               	addwf	??___fladd,w
  4437  0DA6  00A1               	movwf	??___fladd+1
  4438  0DA7  0821               	movf	??___fladd+1,w
  4439  0DA8  00F9               	movwf	___fladd@aexp
  4440  0DA9                     l2136:
  4441  0DA9  1FF6               	btfss	___fladd@a+2,7
  4442  0DAA  2DAC               	goto	u2471
  4443  0DAB  2DAD               	goto	u2470
  4444  0DAC                     u2471:
  4445  0DAC  2DAE               	goto	l2140
  4446  0DAD                     u2470:
  4447  0DAD                     l2138:
  4448  0DAD  1479               	bsf	___fladd@aexp,0
  4449  0DAE                     l2140:
  4450  0DAE  0879               	movf	___fladd@aexp,w
  4451  0DAF  1903               	btfsc	3,2
  4452  0DB0  2DB2               	goto	u2481
  4453  0DB1  2DB3               	goto	u2480
  4454  0DB2                     u2481:
  4455  0DB2  2DC3               	goto	l2150
  4456  0DB3                     u2480:
  4457  0DB3                     l2142:
  4458  0DB3  0A79               	incf	___fladd@aexp,w
  4459  0DB4  1D03               	btfss	3,2
  4460  0DB5  2DB7               	goto	u2491
  4461  0DB6  2DB8               	goto	u2490
  4462  0DB7                     u2491:
  4463  0DB7  2DC0               	goto	l2146
  4464  0DB8                     u2490:
  4465  0DB8                     l2144:
  4466  0DB8  3000               	movlw	0
  4467  0DB9  00F7               	movwf	___fladd@a+3
  4468  0DBA  3000               	movlw	0
  4469  0DBB  00F6               	movwf	___fladd@a+2
  4470  0DBC  3000               	movlw	0
  4471  0DBD  00F5               	movwf	___fladd@a+1
  4472  0DBE  3000               	movlw	0
  4473  0DBF  00F4               	movwf	___fladd@a
  4474  0DC0                     l2146:
  4475  0DC0  17F6               	bsf	___fladd@a+2,7
  4476  0DC1                     l2148:
  4477  0DC1  01F7               	clrf	___fladd@a+3
  4478  0DC2  2DCB               	goto	l581
  4479  0DC3                     l2150:
  4480  0DC3  3000               	movlw	0
  4481  0DC4  00F7               	movwf	___fladd@a+3
  4482  0DC5  3000               	movlw	0
  4483  0DC6  00F6               	movwf	___fladd@a+2
  4484  0DC7  3000               	movlw	0
  4485  0DC8  00F5               	movwf	___fladd@a+1
  4486  0DC9  3000               	movlw	0
  4487  0DCA  00F4               	movwf	___fladd@a
  4488  0DCB                     l581:
  4489  0DCB  087A               	movf	___fladd@bexp,w
  4490  0DCC  0279               	subwf	___fladd@aexp,w
  4491  0DCD  1803               	skipnc
  4492  0DCE  2DD0               	goto	u2501
  4493  0DCF  2DD1               	goto	u2500
  4494  0DD0                     u2501:
  4495  0DD0  2E15               	goto	l2186
  4496  0DD1                     u2500:
  4497  0DD1                     l2152:
  4498  0DD1  1F78               	btfss	___fladd@signs,6
  4499  0DD2  2DD4               	goto	u2511
  4500  0DD3  2DD5               	goto	u2510
  4501  0DD4                     u2511:
  4502  0DD4  2DD9               	goto	l2156
  4503  0DD5                     u2510:
  4504  0DD5                     l2154:
  4505  0DD5  3080               	movlw	128
  4506  0DD6  00A0               	movwf	??___fladd
  4507  0DD7  0820               	movf	??___fladd,w
  4508  0DD8  06F8               	xorwf	___fladd@signs,f
  4509  0DD9                     l2156:
  4510  0DD9  087A               	movf	___fladd@bexp,w
  4511  0DDA  00A0               	movwf	??___fladd
  4512  0DDB  0820               	movf	??___fladd,w
  4513  0DDC  00FB               	movwf	___fladd@grs
  4514  0DDD                     l2158:
  4515  0DDD  0879               	movf	___fladd@aexp,w
  4516  0DDE  00A0               	movwf	??___fladd
  4517  0DDF  0820               	movf	??___fladd,w
  4518  0DE0  00FA               	movwf	___fladd@bexp
  4519  0DE1                     l2160:
  4520  0DE1  087B               	movf	___fladd@grs,w
  4521  0DE2  00A0               	movwf	??___fladd
  4522  0DE3  0820               	movf	??___fladd,w
  4523  0DE4  00F9               	movwf	___fladd@aexp
  4524  0DE5                     l2162:
  4525  0DE5  0870               	movf	___fladd@b,w
  4526  0DE6  00A0               	movwf	??___fladd
  4527  0DE7  0820               	movf	??___fladd,w
  4528  0DE8  00FB               	movwf	___fladd@grs
  4529  0DE9                     l2164:
  4530  0DE9  0874               	movf	___fladd@a,w
  4531  0DEA  00A0               	movwf	??___fladd
  4532  0DEB  0820               	movf	??___fladd,w
  4533  0DEC  00F0               	movwf	___fladd@b
  4534  0DED                     l2166:
  4535  0DED  087B               	movf	___fladd@grs,w
  4536  0DEE  00A0               	movwf	??___fladd
  4537  0DEF  0820               	movf	??___fladd,w
  4538  0DF0  00F4               	movwf	___fladd@a
  4539  0DF1                     l2168:
  4540  0DF1  0871               	movf	___fladd@b+1,w
  4541  0DF2  00A0               	movwf	??___fladd
  4542  0DF3  0820               	movf	??___fladd,w
  4543  0DF4  00FB               	movwf	___fladd@grs
  4544  0DF5                     l2170:
  4545  0DF5  0875               	movf	___fladd@a+1,w
  4546  0DF6  00A0               	movwf	??___fladd
  4547  0DF7  0820               	movf	??___fladd,w
  4548  0DF8  00F1               	movwf	___fladd@b+1
  4549  0DF9                     l2172:
  4550  0DF9  087B               	movf	___fladd@grs,w
  4551  0DFA  00A0               	movwf	??___fladd
  4552  0DFB  0820               	movf	??___fladd,w
  4553  0DFC  00F5               	movwf	___fladd@a+1
  4554  0DFD                     l2174:
  4555  0DFD  0872               	movf	___fladd@b+2,w
  4556  0DFE  00A0               	movwf	??___fladd
  4557  0DFF  0820               	movf	??___fladd,w
  4558  0E00  00FB               	movwf	___fladd@grs
  4559  0E01                     l2176:
  4560  0E01  0876               	movf	___fladd@a+2,w
  4561  0E02  00A0               	movwf	??___fladd
  4562  0E03  0820               	movf	??___fladd,w
  4563  0E04  00F2               	movwf	___fladd@b+2
  4564  0E05                     l2178:
  4565  0E05  087B               	movf	___fladd@grs,w
  4566  0E06  00A0               	movwf	??___fladd
  4567  0E07  0820               	movf	??___fladd,w
  4568  0E08  00F6               	movwf	___fladd@a+2
  4569  0E09                     l2180:
  4570  0E09  0873               	movf	___fladd@b+3,w
  4571  0E0A  00A0               	movwf	??___fladd
  4572  0E0B  0820               	movf	??___fladd,w
  4573  0E0C  00FB               	movwf	___fladd@grs
  4574  0E0D                     l2182:
  4575  0E0D  0877               	movf	___fladd@a+3,w
  4576  0E0E  00A0               	movwf	??___fladd
  4577  0E0F  0820               	movf	??___fladd,w
  4578  0E10  00F3               	movwf	___fladd@b+3
  4579  0E11                     l2184:
  4580  0E11  087B               	movf	___fladd@grs,w
  4581  0E12  00A0               	movwf	??___fladd
  4582  0E13  0820               	movf	??___fladd,w
  4583  0E14  00F7               	movwf	___fladd@a+3
  4584  0E15                     l2186:
  4585  0E15  01FB               	clrf	___fladd@grs
  4586  0E16                     l2188:
  4587  0E16  0879               	movf	___fladd@aexp,w
  4588  0E17  00A0               	movwf	??___fladd
  4589  0E18  01A1               	clrf	??___fladd+1
  4590  0E19  0821               	movf	??___fladd+1,w
  4591  0E1A  00A3               	movwf	??___fladd+3
  4592  0E1B  087A               	movf	___fladd@bexp,w
  4593  0E1C  0220               	subwf	??___fladd,w
  4594  0E1D  00A2               	movwf	??___fladd+2
  4595  0E1E  1C03               	skipc
  4596  0E1F  03A3               	decf	??___fladd+3,f
  4597  0E20  0823               	movf	??___fladd+3,w
  4598  0E21  3A80               	xorlw	128
  4599  0E22  00FF               	movwf	btemp+1
  4600  0E23  3080               	movlw	128
  4601  0E24  027F               	subwf	btemp+1,w
  4602  0E25  1D03               	skipz
  4603  0E26  2E29               	goto	u2525
  4604  0E27  301A               	movlw	26
  4605  0E28  0222               	subwf	??___fladd+2,w
  4606  0E29                     u2525:
  4607  0E29  1C03               	skipc
  4608  0E2A  2E2C               	goto	u2521
  4609  0E2B  2E2D               	goto	u2520
  4610  0E2C                     u2521:
  4611  0E2C  2E6E               	goto	l2204
  4612  0E2D                     u2520:
  4613  0E2D                     l2190:
  4614  0E2D  0873               	movf	___fladd@b+3,w
  4615  0E2E  0472               	iorwf	___fladd@b+2,w
  4616  0E2F  0471               	iorwf	___fladd@b+1,w
  4617  0E30  0470               	iorwf	___fladd@b,w
  4618  0E31  1D03               	skipz
  4619  0E32  2E34               	goto	u2531
  4620  0E33  2E36               	goto	u2530
  4621  0E34                     u2531:
  4622  0E34  3001               	movlw	1
  4623  0E35  2E37               	goto	u2540
  4624  0E36                     u2530:
  4625  0E36  3000               	movlw	0
  4626  0E37                     u2540:
  4627  0E37  1283               	bcf	3,5	;RP0=0, select bank0
  4628  0E38  1303               	bcf	3,6	;RP1=0, select bank0
  4629  0E39  00A0               	movwf	??___fladd
  4630  0E3A  0820               	movf	??___fladd,w
  4631  0E3B  00FB               	movwf	___fladd@grs
  4632  0E3C  3000               	movlw	0
  4633  0E3D  00F3               	movwf	___fladd@b+3
  4634  0E3E  3000               	movlw	0
  4635  0E3F  00F2               	movwf	___fladd@b+2
  4636  0E40  3000               	movlw	0
  4637  0E41  00F1               	movwf	___fladd@b+1
  4638  0E42  3000               	movlw	0
  4639  0E43  00F0               	movwf	___fladd@b
  4640  0E44  0879               	movf	___fladd@aexp,w
  4641  0E45  00A0               	movwf	??___fladd
  4642  0E46  0820               	movf	??___fladd,w
  4643  0E47  00FA               	movwf	___fladd@bexp
  4644  0E48  2E74               	goto	l585
  4645  0E49                     l587:
  4646  0E49  1C7B               	btfss	___fladd@grs,0
  4647  0E4A  2E4C               	goto	u2551
  4648  0E4B  2E4D               	goto	u2550
  4649  0E4C                     u2551:
  4650  0E4C  2E58               	goto	l2194
  4651  0E4D                     u2550:
  4652  0E4D                     l2192:
  4653  0E4D  087B               	movf	___fladd@grs,w
  4654  0E4E  1283               	bcf	3,5	;RP0=0, select bank0
  4655  0E4F  1303               	bcf	3,6	;RP1=0, select bank0
  4656  0E50  00A0               	movwf	??___fladd
  4657  0E51  1003               	clrc
  4658  0E52  0C20               	rrf	??___fladd,w
  4659  0E53  3801               	iorlw	1
  4660  0E54  00A1               	movwf	??___fladd+1
  4661  0E55  0821               	movf	??___fladd+1,w
  4662  0E56  00FB               	movwf	___fladd@grs
  4663  0E57  2E5A               	goto	l2196
  4664  0E58                     l2194:
  4665  0E58  1003               	clrc
  4666  0E59  0CFB               	rrf	___fladd@grs,f
  4667  0E5A                     l2196:
  4668  0E5A  1C70               	btfss	___fladd@b,0
  4669  0E5B  2E5D               	goto	u2561
  4670  0E5C  2E5E               	goto	u2560
  4671  0E5D                     u2561:
  4672  0E5D  2E5F               	goto	l2200
  4673  0E5E                     u2560:
  4674  0E5E                     l2198:
  4675  0E5E  17FB               	bsf	___fladd@grs,7
  4676  0E5F                     l2200:
  4677  0E5F  3001               	movlw	1
  4678  0E60  1283               	bcf	3,5	;RP0=0, select bank0
  4679  0E61  1303               	bcf	3,6	;RP1=0, select bank0
  4680  0E62  00A0               	movwf	??___fladd
  4681  0E63                     u2575:
  4682  0E63  0D73               	rlf	___fladd@b+3,w
  4683  0E64  0CF3               	rrf	___fladd@b+3,f
  4684  0E65  0CF2               	rrf	___fladd@b+2,f
  4685  0E66  0CF1               	rrf	___fladd@b+1,f
  4686  0E67  0CF0               	rrf	___fladd@b,f
  4687  0E68  0BA0               	decfsz	??___fladd& (0+127),f
  4688  0E69  2E63               	goto	u2575
  4689  0E6A                     l2202:
  4690  0E6A  3001               	movlw	1
  4691  0E6B  00A0               	movwf	??___fladd
  4692  0E6C  0820               	movf	??___fladd,w
  4693  0E6D  07FA               	addwf	___fladd@bexp,f
  4694  0E6E                     l2204:
  4695  0E6E  0879               	movf	___fladd@aexp,w
  4696  0E6F  027A               	subwf	___fladd@bexp,w
  4697  0E70  1C03               	skipc
  4698  0E71  2E73               	goto	u2581
  4699  0E72  2E74               	goto	u2580
  4700  0E73                     u2581:
  4701  0E73  2E49               	goto	l587
  4702  0E74                     u2580:
  4703  0E74                     l585:
  4704  0E74  1B78               	btfsc	___fladd@signs,6
  4705  0E75  2E77               	goto	u2591
  4706  0E76  2E78               	goto	u2590
  4707  0E77                     u2591:
  4708  0E77  2EC7               	goto	l2230
  4709  0E78                     u2590:
  4710  0E78                     l2206:
  4711  0E78  087A               	movf	___fladd@bexp,w
  4712  0E79  1D03               	btfss	3,2
  4713  0E7A  2E7C               	goto	u2601
  4714  0E7B  2E7D               	goto	u2600
  4715  0E7C                     u2601:
  4716  0E7C  2E86               	goto	l2212
  4717  0E7D                     u2600:
  4718  0E7D                     l2208:
  4719  0E7D  3000               	movlw	0
  4720  0E7E  00F3               	movwf	?___fladd+3
  4721  0E7F  3000               	movlw	0
  4722  0E80  00F2               	movwf	?___fladd+2
  4723  0E81  3000               	movlw	0
  4724  0E82  00F1               	movwf	?___fladd+1
  4725  0E83  3000               	movlw	0
  4726  0E84  00F0               	movwf	?___fladd
  4727  0E85  2FFF               	goto	l594
  4728  0E86                     l2212:
  4729  0E86  0874               	movf	___fladd@a,w
  4730  0E87  07F0               	addwf	___fladd@b,f
  4731  0E88  0875               	movf	___fladd@a+1,w
  4732  0E89  1103               	clrz
  4733  0E8A  1803               	skipnc
  4734  0E8B  3E01               	addlw	1
  4735  0E8C  1903               	skipnz
  4736  0E8D  2E8F               	goto	u2611
  4737  0E8E  07F1               	addwf	___fladd@b+1,f
  4738  0E8F                     u2611:
  4739  0E8F  0876               	movf	___fladd@a+2,w
  4740  0E90  1103               	clrz
  4741  0E91  1803               	skipnc
  4742  0E92  3E01               	addlw	1
  4743  0E93  1903               	skipnz
  4744  0E94  2E96               	goto	u2612
  4745  0E95  07F2               	addwf	___fladd@b+2,f
  4746  0E96                     u2612:
  4747  0E96  0877               	movf	___fladd@a+3,w
  4748  0E97  1103               	clrz
  4749  0E98  1803               	skipnc
  4750  0E99  3E01               	addlw	1
  4751  0E9A  1903               	skipnz
  4752  0E9B  2E9D               	goto	u2613
  4753  0E9C  07F3               	addwf	___fladd@b+3,f
  4754  0E9D                     u2613:
  4755  0E9D                     l2214:
  4756  0E9D  1C73               	btfss	___fladd@b+3,0
  4757  0E9E  2EA0               	goto	u2621
  4758  0E9F  2EA1               	goto	u2620
  4759  0EA0                     u2621:
  4760  0EA0  2F7F               	goto	l2264
  4761  0EA1                     u2620:
  4762  0EA1                     l2216:
  4763  0EA1  1C7B               	btfss	___fladd@grs,0
  4764  0EA2  2EA4               	goto	u2631
  4765  0EA3  2EA5               	goto	u2630
  4766  0EA4                     u2631:
  4767  0EA4  2EB0               	goto	l2220
  4768  0EA5                     u2630:
  4769  0EA5                     l2218:
  4770  0EA5  087B               	movf	___fladd@grs,w
  4771  0EA6  1283               	bcf	3,5	;RP0=0, select bank0
  4772  0EA7  1303               	bcf	3,6	;RP1=0, select bank0
  4773  0EA8  00A0               	movwf	??___fladd
  4774  0EA9  1003               	clrc
  4775  0EAA  0C20               	rrf	??___fladd,w
  4776  0EAB  3801               	iorlw	1
  4777  0EAC  00A1               	movwf	??___fladd+1
  4778  0EAD  0821               	movf	??___fladd+1,w
  4779  0EAE  00FB               	movwf	___fladd@grs
  4780  0EAF  2EB2               	goto	l2222
  4781  0EB0                     l2220:
  4782  0EB0  1003               	clrc
  4783  0EB1  0CFB               	rrf	___fladd@grs,f
  4784  0EB2                     l2222:
  4785  0EB2  1C70               	btfss	___fladd@b,0
  4786  0EB3  2EB5               	goto	u2641
  4787  0EB4  2EB6               	goto	u2640
  4788  0EB5                     u2641:
  4789  0EB5  2EB7               	goto	l2226
  4790  0EB6                     u2640:
  4791  0EB6                     l2224:
  4792  0EB6  17FB               	bsf	___fladd@grs,7
  4793  0EB7                     l2226:
  4794  0EB7  3001               	movlw	1
  4795  0EB8  1283               	bcf	3,5	;RP0=0, select bank0
  4796  0EB9  1303               	bcf	3,6	;RP1=0, select bank0
  4797  0EBA  00A0               	movwf	??___fladd
  4798  0EBB                     u2655:
  4799  0EBB  0D73               	rlf	___fladd@b+3,w
  4800  0EBC  0CF3               	rrf	___fladd@b+3,f
  4801  0EBD  0CF2               	rrf	___fladd@b+2,f
  4802  0EBE  0CF1               	rrf	___fladd@b+1,f
  4803  0EBF  0CF0               	rrf	___fladd@b,f
  4804  0EC0  0BA0               	decfsz	??___fladd& (0+127),f
  4805  0EC1  2EBB               	goto	u2655
  4806  0EC2                     l2228:
  4807  0EC2  3001               	movlw	1
  4808  0EC3  00A0               	movwf	??___fladd
  4809  0EC4  0820               	movf	??___fladd,w
  4810  0EC5  07FA               	addwf	___fladd@bexp,f
  4811  0EC6  2F7F               	goto	l2264
  4812  0EC7                     l2230:
  4813  0EC7  0873               	movf	___fladd@b+3,w
  4814  0EC8  3A80               	xorlw	128
  4815  0EC9  00FF               	movwf	btemp+1
  4816  0ECA  0877               	movf	___fladd@a+3,w
  4817  0ECB  3A80               	xorlw	128
  4818  0ECC  027F               	subwf	btemp+1,w
  4819  0ECD  1D03               	skipz
  4820  0ECE  2ED9               	goto	u2663
  4821  0ECF  0876               	movf	___fladd@a+2,w
  4822  0ED0  0272               	subwf	___fladd@b+2,w
  4823  0ED1  1D03               	skipz
  4824  0ED2  2ED9               	goto	u2663
  4825  0ED3  0875               	movf	___fladd@a+1,w
  4826  0ED4  0271               	subwf	___fladd@b+1,w
  4827  0ED5  1D03               	skipz
  4828  0ED6  2ED9               	goto	u2663
  4829  0ED7  0874               	movf	___fladd@a,w
  4830  0ED8  0270               	subwf	___fladd@b,w
  4831  0ED9                     u2663:
  4832  0ED9  1803               	skipnc
  4833  0EDA  2EDC               	goto	u2661
  4834  0EDB  2EDD               	goto	u2660
  4835  0EDC                     u2661:
  4836  0EDC  2F37               	goto	l2240
  4837  0EDD                     u2660:
  4838  0EDD                     l2232:
  4839  0EDD  30FF               	movlw	255
  4840  0EDE  1283               	bcf	3,5	;RP0=0, select bank0
  4841  0EDF  1303               	bcf	3,6	;RP1=0, select bank0
  4842  0EE0  00A0               	movwf	??___fladd
  4843  0EE1  30FF               	movlw	255
  4844  0EE2  00A1               	movwf	??___fladd+1
  4845  0EE3  30FF               	movlw	255
  4846  0EE4  00A2               	movwf	??___fladd+2
  4847  0EE5  30FF               	movlw	255
  4848  0EE6  00A3               	movwf	??___fladd+3
  4849  0EE7  0874               	movf	___fladd@a,w
  4850  0EE8  00A4               	movwf	??___fladd+4
  4851  0EE9  0875               	movf	___fladd@a+1,w
  4852  0EEA  00A5               	movwf	??___fladd+5
  4853  0EEB  0876               	movf	___fladd@a+2,w
  4854  0EEC  00A6               	movwf	??___fladd+6
  4855  0EED  0877               	movf	___fladd@a+3,w
  4856  0EEE  00A7               	movwf	??___fladd+7
  4857  0EEF  0870               	movf	___fladd@b,w
  4858  0EF0  02A4               	subwf	??___fladd+4,f
  4859  0EF1  0871               	movf	___fladd@b+1,w
  4860  0EF2  1C03               	skipc
  4861  0EF3  0F71               	incfsz	___fladd@b+1,w
  4862  0EF4  2EF6               	goto	u2671
  4863  0EF5  2EF7               	goto	u2672
  4864  0EF6                     u2671:
  4865  0EF6  02A5               	subwf	??___fladd+5,f
  4866  0EF7                     u2672:
  4867  0EF7  0872               	movf	___fladd@b+2,w
  4868  0EF8  1C03               	skipc
  4869  0EF9  0F72               	incfsz	___fladd@b+2,w
  4870  0EFA  2EFC               	goto	u2673
  4871  0EFB  2EFD               	goto	u2674
  4872  0EFC                     u2673:
  4873  0EFC  02A6               	subwf	??___fladd+6,f
  4874  0EFD                     u2674:
  4875  0EFD  0873               	movf	___fladd@b+3,w
  4876  0EFE  1C03               	skipc
  4877  0EFF  0F73               	incfsz	___fladd@b+3,w
  4878  0F00  2F02               	goto	u2675
  4879  0F01  2F03               	goto	u2676
  4880  0F02                     u2675:
  4881  0F02  02A7               	subwf	??___fladd+7,f
  4882  0F03                     u2676:
  4883  0F03  0824               	movf	??___fladd+4,w
  4884  0F04  07A0               	addwf	??___fladd,f
  4885  0F05  0825               	movf	??___fladd+5,w
  4886  0F06  1803               	skipnc
  4887  0F07  0F25               	incfsz	??___fladd+5,w
  4888  0F08  2F0A               	goto	u2680
  4889  0F09  2F0B               	goto	u2681
  4890  0F0A                     u2680:
  4891  0F0A  07A1               	addwf	??___fladd+1,f
  4892  0F0B                     u2681:
  4893  0F0B  0826               	movf	??___fladd+6,w
  4894  0F0C  1803               	skipnc
  4895  0F0D  0F26               	incfsz	??___fladd+6,w
  4896  0F0E  2F10               	goto	u2682
  4897  0F0F  2F11               	goto	u2683
  4898  0F10                     u2682:
  4899  0F10  07A2               	addwf	??___fladd+2,f
  4900  0F11                     u2683:
  4901  0F11  0827               	movf	??___fladd+7,w
  4902  0F12  1803               	skipnc
  4903  0F13  0A27               	incf	??___fladd+7,w
  4904  0F14  07A3               	addwf	??___fladd+3,f
  4905  0F15  0823               	movf	??___fladd+3,w
  4906  0F16  00F3               	movwf	___fladd@b+3
  4907  0F17  0822               	movf	??___fladd+2,w
  4908  0F18  00F2               	movwf	___fladd@b+2
  4909  0F19  0821               	movf	??___fladd+1,w
  4910  0F1A  00F1               	movwf	___fladd@b+1
  4911  0F1B  0820               	movf	??___fladd,w
  4912  0F1C  00F0               	movwf	___fladd@b
  4913  0F1D                     l2234:
  4914  0F1D  3080               	movlw	128
  4915  0F1E  00A0               	movwf	??___fladd
  4916  0F1F  0820               	movf	??___fladd,w
  4917  0F20  06F8               	xorwf	___fladd@signs,f
  4918  0F21  09FB               	comf	___fladd@grs,f
  4919  0F22  0AFB               	incf	___fladd@grs,f
  4920  0F23                     l2236:
  4921  0F23  087B               	movf	___fladd@grs,w
  4922  0F24  1D03               	btfss	3,2
  4923  0F25  2F27               	goto	u2691
  4924  0F26  2F28               	goto	u2690
  4925  0F27                     u2691:
  4926  0F27  2F45               	goto	l602
  4927  0F28                     u2690:
  4928  0F28                     l2238:
  4929  0F28  3001               	movlw	1
  4930  0F29  07F0               	addwf	___fladd@b,f
  4931  0F2A  3000               	movlw	0
  4932  0F2B  1803               	skipnc
  4933  0F2C  3001               	movlw	1
  4934  0F2D  07F1               	addwf	___fladd@b+1,f
  4935  0F2E  3000               	movlw	0
  4936  0F2F  1803               	skipnc
  4937  0F30  3001               	movlw	1
  4938  0F31  07F2               	addwf	___fladd@b+2,f
  4939  0F32  3000               	movlw	0
  4940  0F33  1803               	skipnc
  4941  0F34  3001               	movlw	1
  4942  0F35  07F3               	addwf	___fladd@b+3,f
  4943  0F36  2F45               	goto	l602
  4944  0F37                     l2240:
  4945  0F37  0874               	movf	___fladd@a,w
  4946  0F38  02F0               	subwf	___fladd@b,f
  4947  0F39  0875               	movf	___fladd@a+1,w
  4948  0F3A  1C03               	skipc
  4949  0F3B  0F75               	incfsz	___fladd@a+1,w
  4950  0F3C  02F1               	subwf	___fladd@b+1,f
  4951  0F3D  0876               	movf	___fladd@a+2,w
  4952  0F3E  1C03               	skipc
  4953  0F3F  0F76               	incfsz	___fladd@a+2,w
  4954  0F40  02F2               	subwf	___fladd@b+2,f
  4955  0F41  0877               	movf	___fladd@a+3,w
  4956  0F42  1C03               	skipc
  4957  0F43  0F77               	incfsz	___fladd@a+3,w
  4958  0F44  02F3               	subwf	___fladd@b+3,f
  4959  0F45                     l602:
  4960  0F45  0873               	movf	___fladd@b+3,w
  4961  0F46  0472               	iorwf	___fladd@b+2,w
  4962  0F47  0471               	iorwf	___fladd@b+1,w
  4963  0F48  0470               	iorwf	___fladd@b,w
  4964  0F49  1D03               	skipz
  4965  0F4A  2F4C               	goto	u2701
  4966  0F4B  2F4D               	goto	u2700
  4967  0F4C                     u2701:
  4968  0F4C  2F7B               	goto	l2262
  4969  0F4D                     u2700:
  4970  0F4D                     l2242:
  4971  0F4D  087B               	movf	___fladd@grs,w
  4972  0F4E  1D03               	btfss	3,2
  4973  0F4F  2F51               	goto	u2711
  4974  0F50  2F52               	goto	u2710
  4975  0F51                     u2711:
  4976  0F51  2F7B               	goto	l2262
  4977  0F52                     u2710:
  4978  0F52                     l2244:
  4979  0F52  3000               	movlw	0
  4980  0F53  00F3               	movwf	?___fladd+3
  4981  0F54  3000               	movlw	0
  4982  0F55  00F2               	movwf	?___fladd+2
  4983  0F56  3000               	movlw	0
  4984  0F57  00F1               	movwf	?___fladd+1
  4985  0F58  3000               	movlw	0
  4986  0F59  00F0               	movwf	?___fladd
  4987  0F5A  2FFF               	goto	l594
  4988  0F5B                     l2248:
  4989  0F5B  3001               	movlw	1
  4990  0F5C  1283               	bcf	3,5	;RP0=0, select bank0
  4991  0F5D  1303               	bcf	3,6	;RP1=0, select bank0
  4992  0F5E  00A0               	movwf	??___fladd
  4993  0F5F                     u2725:
  4994  0F5F  1003               	clrc
  4995  0F60  0DF0               	rlf	___fladd@b,f
  4996  0F61  0DF1               	rlf	___fladd@b+1,f
  4997  0F62  0DF2               	rlf	___fladd@b+2,f
  4998  0F63  0DF3               	rlf	___fladd@b+3,f
  4999  0F64  0BA0               	decfsz	??___fladd,f
  5000  0F65  2F5F               	goto	u2725
  5001  0F66                     l2250:
  5002  0F66  1FFB               	btfss	___fladd@grs,7
  5003  0F67  2F69               	goto	u2731
  5004  0F68  2F6A               	goto	u2730
  5005  0F69                     u2731:
  5006  0F69  2F6B               	goto	l606
  5007  0F6A                     u2730:
  5008  0F6A                     l2252:
  5009  0F6A  1470               	bsf	___fladd@b,0
  5010  0F6B                     l606:
  5011  0F6B  1C7B               	btfss	___fladd@grs,0
  5012  0F6C  2F6E               	goto	u2741
  5013  0F6D  2F6F               	goto	u2740
  5014  0F6E                     u2741:
  5015  0F6E  2F72               	goto	l2256
  5016  0F6F                     u2740:
  5017  0F6F                     l2254:
  5018  0F6F  1403               	setc
  5019  0F70  0DFB               	rlf	___fladd@grs,f
  5020  0F71  2F74               	goto	l2258
  5021  0F72                     l2256:
  5022  0F72  1003               	clrc
  5023  0F73  0DFB               	rlf	___fladd@grs,f
  5024  0F74                     l2258:
  5025  0F74  087A               	movf	___fladd@bexp,w
  5026  0F75  1903               	btfsc	3,2
  5027  0F76  2F78               	goto	u2751
  5028  0F77  2F79               	goto	u2750
  5029  0F78                     u2751:
  5030  0F78  2F7B               	goto	l2262
  5031  0F79                     u2750:
  5032  0F79                     l2260:
  5033  0F79  3001               	movlw	1
  5034  0F7A  02FA               	subwf	___fladd@bexp,f
  5035  0F7B                     l2262:
  5036  0F7B  1FF2               	btfss	___fladd@b+2,7
  5037  0F7C  2F7E               	goto	u2761
  5038  0F7D  2F7F               	goto	u2760
  5039  0F7E                     u2761:
  5040  0F7E  2F5B               	goto	l2248
  5041  0F7F                     u2760:
  5042  0F7F                     l2264:
  5043  0F7F  01F9               	clrf	___fladd@aexp
  5044  0F80                     l2266:
  5045  0F80  1FFB               	btfss	___fladd@grs,7
  5046  0F81  2F83               	goto	u2771
  5047  0F82  2F84               	goto	u2770
  5048  0F83                     u2771:
  5049  0F83  2F92               	goto	l2274
  5050  0F84                     u2770:
  5051  0F84                     l2268:
  5052  0F84  087B               	movf	___fladd@grs,w
  5053  0F85  397F               	andlw	127
  5054  0F86  1903               	btfsc	3,2
  5055  0F87  2F89               	goto	u2781
  5056  0F88  2F8A               	goto	u2780
  5057  0F89                     u2781:
  5058  0F89  2F8D               	goto	l612
  5059  0F8A                     u2780:
  5060  0F8A                     l2270:
  5061  0F8A  01F9               	clrf	___fladd@aexp
  5062  0F8B  0AF9               	incf	___fladd@aexp,f
  5063  0F8C  2F92               	goto	l2274
  5064  0F8D                     l612:
  5065  0F8D  1C70               	btfss	___fladd@b,0
  5066  0F8E  2F90               	goto	u2791
  5067  0F8F  2F91               	goto	u2790
  5068  0F90                     u2791:
  5069  0F90  2F92               	goto	l2274
  5070  0F91                     u2790:
  5071  0F91  2F8A               	goto	l2270
  5072  0F92                     l2274:
  5073  0F92  0879               	movf	___fladd@aexp,w
  5074  0F93  1903               	btfsc	3,2
  5075  0F94  2F96               	goto	u2801
  5076  0F95  2F97               	goto	u2800
  5077  0F96                     u2801:
  5078  0F96  2FCD               	goto	l615
  5079  0F97                     u2800:
  5080  0F97                     l2276:
  5081  0F97  3001               	movlw	1
  5082  0F98  07F0               	addwf	___fladd@b,f
  5083  0F99  3000               	movlw	0
  5084  0F9A  1803               	skipnc
  5085  0F9B  3001               	movlw	1
  5086  0F9C  07F1               	addwf	___fladd@b+1,f
  5087  0F9D  3000               	movlw	0
  5088  0F9E  1803               	skipnc
  5089  0F9F  3001               	movlw	1
  5090  0FA0  07F2               	addwf	___fladd@b+2,f
  5091  0FA1  3000               	movlw	0
  5092  0FA2  1803               	skipnc
  5093  0FA3  3001               	movlw	1
  5094  0FA4  07F3               	addwf	___fladd@b+3,f
  5095  0FA5                     l2278:
  5096  0FA5  1C73               	btfss	___fladd@b+3,0
  5097  0FA6  2FA8               	goto	u2811
  5098  0FA7  2FA9               	goto	u2810
  5099  0FA8                     u2811:
  5100  0FA8  2FCD               	goto	l615
  5101  0FA9                     u2810:
  5102  0FA9                     l2280:
  5103  0FA9  0870               	movf	___fladd@b,w
  5104  0FAA  1283               	bcf	3,5	;RP0=0, select bank0
  5105  0FAB  1303               	bcf	3,6	;RP1=0, select bank0
  5106  0FAC  00A0               	movwf	??___fladd
  5107  0FAD  0871               	movf	___fladd@b+1,w
  5108  0FAE  00A1               	movwf	??___fladd+1
  5109  0FAF  0872               	movf	___fladd@b+2,w
  5110  0FB0  00A2               	movwf	??___fladd+2
  5111  0FB1  0873               	movf	___fladd@b+3,w
  5112  0FB2  00A3               	movwf	??___fladd+3
  5113  0FB3  3001               	movlw	1
  5114  0FB4  00A4               	movwf	??___fladd+4
  5115  0FB5                     u2825:
  5116  0FB5  0D23               	rlf	??___fladd+3,w
  5117  0FB6  0CA3               	rrf	??___fladd+3,f
  5118  0FB7  0CA2               	rrf	??___fladd+2,f
  5119  0FB8  0CA1               	rrf	??___fladd+1,f
  5120  0FB9  0CA0               	rrf	??___fladd,f
  5121  0FBA                     u2820:
  5122  0FBA  0BA4               	decfsz	??___fladd+4,f
  5123  0FBB  2FB5               	goto	u2825
  5124  0FBC  0823               	movf	??___fladd+3,w
  5125  0FBD  00F3               	movwf	___fladd@b+3
  5126  0FBE  0822               	movf	??___fladd+2,w
  5127  0FBF  00F2               	movwf	___fladd@b+2
  5128  0FC0  0821               	movf	??___fladd+1,w
  5129  0FC1  00F1               	movwf	___fladd@b+1
  5130  0FC2  0820               	movf	??___fladd,w
  5131  0FC3  00F0               	movwf	___fladd@b
  5132  0FC4  0A7A               	incf	___fladd@bexp,w
  5133  0FC5  1903               	btfsc	3,2
  5134  0FC6  2FC8               	goto	u2831
  5135  0FC7  2FC9               	goto	u2830
  5136  0FC8                     u2831:
  5137  0FC8  2FCD               	goto	l615
  5138  0FC9                     u2830:
  5139  0FC9                     l2282:
  5140  0FC9  3001               	movlw	1
  5141  0FCA  00A0               	movwf	??___fladd
  5142  0FCB  0820               	movf	??___fladd,w
  5143  0FCC  07FA               	addwf	___fladd@bexp,f
  5144  0FCD                     l615:
  5145  0FCD  0A7A               	incf	___fladd@bexp,w
  5146  0FCE  1903               	btfsc	3,2
  5147  0FCF  2FD1               	goto	u2841
  5148  0FD0  2FD2               	goto	u2840
  5149  0FD1                     u2841:
  5150  0FD1  2FD7               	goto	l2286
  5151  0FD2                     u2840:
  5152  0FD2                     l2284:
  5153  0FD2  087A               	movf	___fladd@bexp,w
  5154  0FD3  1D03               	btfss	3,2
  5155  0FD4  2FD6               	goto	u2851
  5156  0FD5  2FD7               	goto	u2850
  5157  0FD6                     u2851:
  5158  0FD6  2FE5               	goto	l2292
  5159  0FD7                     u2850:
  5160  0FD7                     l2286:
  5161  0FD7  3000               	movlw	0
  5162  0FD8  00F3               	movwf	___fladd@b+3
  5163  0FD9  3000               	movlw	0
  5164  0FDA  00F2               	movwf	___fladd@b+2
  5165  0FDB  3000               	movlw	0
  5166  0FDC  00F1               	movwf	___fladd@b+1
  5167  0FDD  3000               	movlw	0
  5168  0FDE  00F0               	movwf	___fladd@b
  5169  0FDF                     l2288:
  5170  0FDF  087A               	movf	___fladd@bexp,w
  5171  0FE0  1D03               	btfss	3,2
  5172  0FE1  2FE3               	goto	u2861
  5173  0FE2  2FE4               	goto	u2860
  5174  0FE3                     u2861:
  5175  0FE3  2FE5               	goto	l2292
  5176  0FE4                     u2860:
  5177  0FE4                     l2290:
  5178  0FE4  01F8               	clrf	___fladd@signs
  5179  0FE5                     l2292:
  5180  0FE5  1C7A               	btfss	___fladd@bexp,0
  5181  0FE6  2FE8               	goto	u2871
  5182  0FE7  2FE9               	goto	u2870
  5183  0FE8                     u2871:
  5184  0FE8  2FEB               	goto	l2296
  5185  0FE9                     u2870:
  5186  0FE9                     l2294:
  5187  0FE9  17F2               	bsf	___fladd@b+2,7
  5188  0FEA  2FF1               	goto	l623
  5189  0FEB                     l2296:
  5190  0FEB  307F               	movlw	127
  5191  0FEC  1283               	bcf	3,5	;RP0=0, select bank0
  5192  0FED  1303               	bcf	3,6	;RP1=0, select bank0
  5193  0FEE  00A0               	movwf	??___fladd
  5194  0FEF  0820               	movf	??___fladd,w
  5195  0FF0  05F2               	andwf	___fladd@b+2,f
  5196  0FF1                     l623:
  5197  0FF1  087A               	movf	___fladd@bexp,w
  5198  0FF2  1283               	bcf	3,5	;RP0=0, select bank0
  5199  0FF3  1303               	bcf	3,6	;RP1=0, select bank0
  5200  0FF4  00A0               	movwf	??___fladd
  5201  0FF5  1003               	clrc
  5202  0FF6  0C20               	rrf	??___fladd,w
  5203  0FF7  00A1               	movwf	??___fladd+1
  5204  0FF8  0821               	movf	??___fladd+1,w
  5205  0FF9  00F3               	movwf	___fladd@b+3
  5206  0FFA                     l2298:
  5207  0FFA  1FF8               	btfss	___fladd@signs,7
  5208  0FFB  2FFD               	goto	u2881
  5209  0FFC  2FFE               	goto	u2880
  5210  0FFD                     u2881:
  5211  0FFD  2FFF               	goto	l624
  5212  0FFE                     u2880:
  5213  0FFE                     l2300:
  5214  0FFE  17F3               	bsf	___fladd@b+3,7
  5215  0FFF                     l624:
  5216  0FFF                     l594:
  5217  0FFF  0008               	return
  5218  1000                     __end_of___fladd:
  5219                           
  5220                           	psect	text8
  5221  08B3                     __ptext8:	
  5222 ;; *************** function _UART_SendTxt *****************
  5223 ;; Defined at:
  5224 ;;		line 27 in file "Uart.c"
  5225 ;; Parameters:    Size  Location     Type
  5226 ;;  Str             2    1[COMMON] PTR unsigned char 
  5227 ;;		 -> STR_10(4), STR_9(10), STR_6(4), STR_5(14), 
  5228 ;;		 -> main@Str(10), STR_1(19), 
  5229 ;; Auto vars:     Size  Location     Type
  5230 ;;		None
  5231 ;; Return value:  Size  Location     Type
  5232 ;;                  1    wreg      void 
  5233 ;; Registers used:
  5234 ;;		wreg, fsr0l, fsr0h, status,2, status,0, btemp+1, pclath, cstack
  5235 ;; Tracked objects:
  5236 ;;		On entry : 0/0
  5237 ;;		On exit  : 0/0
  5238 ;;		Unchanged: 0/0
  5239 ;; Data sizes:     COMMON   BANK0   BANK1   BANK3   BANK2
  5240 ;;      Params:         2       0       0       0       0
  5241 ;;      Locals:         0       0       0       0       0
  5242 ;;      Temps:          0       0       0       0       0
  5243 ;;      Totals:         2       0       0       0       0
  5244 ;;Total ram usage:        2 bytes
  5245 ;; Hardware stack levels used: 1
  5246 ;; Hardware stack levels required when called: 1
  5247 ;; This function calls:
  5248 ;;		_UART_TxChar
  5249 ;; This function is called by:
  5250 ;;		_main
  5251 ;; This function uses a non-reentrant model
  5252 ;;
  5253                           
  5254  08B3                     _UART_SendTxt:	
  5255                           ;psect for function _UART_SendTxt
  5256                           
  5257  08B3                     l2016:	
  5258                           ;incstack = 0
  5259                           ; Regs used in _UART_SendTxt: [wreg-fsr0h+status,2+status,0+btemp+1+pclath+cstack]
  5260                           
  5261                           
  5262                           ;Uart.c: 27: void UART_SendTxt(char* Str);Uart.c: 28: {;Uart.c: 29:     while(*Str)
  5263  08B3  28C8               	goto	l2022
  5264  08B4                     l2018:
  5265                           
  5266                           ;Uart.c: 30:     {;Uart.c: 31:         UART_TxChar(*Str);
  5267  08B4  0872               	movf	UART_SendTxt@Str+1,w
  5268  08B5  00FF               	movwf	btemp+1
  5269  08B6  0871               	movf	UART_SendTxt@Str,w
  5270  08B7  0084               	movwf	4
  5271  08B8  120A  158A  2000  120A  158A  	fcall	stringtab
  5272  08BD  160A  118A  27B0  120A  158A  	fcall	_UART_TxChar
  5273  08C2                     l2020:
  5274                           
  5275                           ;Uart.c: 32:         Str++;
  5276  08C2  3001               	movlw	1
  5277  08C3  07F1               	addwf	UART_SendTxt@Str,f
  5278  08C4  1803               	skipnc
  5279  08C5  0AF2               	incf	UART_SendTxt@Str+1,f
  5280  08C6  3000               	movlw	0
  5281  08C7  07F2               	addwf	UART_SendTxt@Str+1,f
  5282  08C8                     l2022:
  5283                           
  5284                           ;Uart.c: 29:     while(*Str)
  5285  08C8  0872               	movf	UART_SendTxt@Str+1,w
  5286  08C9  1283               	bcf	3,5	;RP0=0, select bank0
  5287  08CA  1303               	bcf	3,6	;RP1=0, select bank0
  5288  08CB  00FF               	movwf	btemp+1
  5289  08CC  0871               	movf	UART_SendTxt@Str,w
  5290  08CD  0084               	movwf	4
  5291  08CE  120A  158A  2000  120A  158A  	fcall	stringtab
  5292  08D3  3A00               	xorlw	0
  5293  08D4  1D03               	skipz
  5294  08D5  28D7               	goto	u2211
  5295  08D6  28D8               	goto	u2210
  5296  08D7                     u2211:
  5297  08D7  28B4               	goto	l2018
  5298  08D8                     u2210:
  5299  08D8                     l175:
  5300  08D8  0008               	return
  5301  08D9                     __end_of_UART_SendTxt:
  5302                           
  5303                           	psect	text9
  5304  17B0                     __ptext9:	
  5305 ;; *************** function _UART_TxChar *****************
  5306 ;; Defined at:
  5307 ;;		line 12 in file "Uart.c"
  5308 ;; Parameters:    Size  Location     Type
  5309 ;;  ch              1    wreg     unsigned char 
  5310 ;; Auto vars:     Size  Location     Type
  5311 ;;  ch              1    0[COMMON] unsigned char 
  5312 ;; Return value:  Size  Location     Type
  5313 ;;                  1    wreg      void 
  5314 ;; Registers used:
  5315 ;;		wreg
  5316 ;; Tracked objects:
  5317 ;;		On entry : 0/0
  5318 ;;		On exit  : 0/0
  5319 ;;		Unchanged: 0/0
  5320 ;; Data sizes:     COMMON   BANK0   BANK1   BANK3   BANK2
  5321 ;;      Params:         0       0       0       0       0
  5322 ;;      Locals:         1       0       0       0       0
  5323 ;;      Temps:          0       0       0       0       0
  5324 ;;      Totals:         1       0       0       0       0
  5325 ;;Total ram usage:        1 bytes
  5326 ;; Hardware stack levels used: 1
  5327 ;; This function calls:
  5328 ;;		Nothing
  5329 ;; This function is called by:
  5330 ;;		_UART_SendTxt
  5331 ;; This function uses a non-reentrant model
  5332 ;;
  5333                           
  5334  17B0                     _UART_TxChar:	
  5335                           ;psect for function _UART_TxChar
  5336                           
  5337                           
  5338                           ;incstack = 0
  5339                           ; Regs used in _UART_TxChar: [wreg]
  5340                           ;UART_TxChar@ch stored from wreg
  5341  17B0  00F0               	movwf	UART_TxChar@ch
  5342  17B1                     l1844:
  5343  17B1                     l160:	
  5344                           ;Uart.c: 12: void UART_TxChar(char ch);Uart.c: 13: {;Uart.c: 14:     while(TXIF==0);
  5345                           
  5346  17B1  1283               	bcf	3,5	;RP0=0, select bank0
  5347  17B2  1303               	bcf	3,6	;RP1=0, select bank0
  5348  17B3  1E0C               	btfss	12,4	;volatile
  5349  17B4  2FB6               	goto	u1911
  5350  17B5  2FB7               	goto	u1910
  5351  17B6                     u1911:
  5352  17B6  2FB1               	goto	l160
  5353  17B7                     u1910:
  5354  17B7                     l162:
  5355                           
  5356                           ;Uart.c: 15:     TXIF=0;
  5357  17B7  120C               	bcf	12,4	;volatile
  5358  17B8                     l1846:
  5359                           
  5360                           ;Uart.c: 16:     TXREG=ch;
  5361  17B8  0870               	movf	UART_TxChar@ch,w
  5362  17B9  0099               	movwf	25	;volatile
  5363  17BA                     l163:
  5364  17BA  0008               	return
  5365  17BB                     __end_of_UART_TxChar:
  5366                           
  5367                           	psect	text10
  5368  097F                     __ptext10:	
  5369 ;; *************** function _UART_Init *****************
  5370 ;; Defined at:
  5371 ;;		line 3 in file "Uart.c"
  5372 ;; Parameters:    Size  Location     Type
  5373 ;;  baudRate        2    0[BANK0 ] int 
  5374 ;; Auto vars:     Size  Location     Type
  5375 ;;		None
  5376 ;; Return value:  Size  Location     Type
  5377 ;;                  1    wreg      void 
  5378 ;; Registers used:
  5379 ;;		wreg, status,2, status,0, pclath, cstack
  5380 ;; Tracked objects:
  5381 ;;		On entry : 0/0
  5382 ;;		On exit  : 0/0
  5383 ;;		Unchanged: 0/0
  5384 ;; Data sizes:     COMMON   BANK0   BANK1   BANK3   BANK2
  5385 ;;      Params:         0       2       0       0       0
  5386 ;;      Locals:         0       0       0       0       0
  5387 ;;      Temps:          0       4       0       0       0
  5388 ;;      Totals:         0       6       0       0       0
  5389 ;;Total ram usage:        6 bytes
  5390 ;; Hardware stack levels used: 1
  5391 ;; Hardware stack levels required when called: 1
  5392 ;; This function calls:
  5393 ;;		___lldiv
  5394 ;; This function is called by:
  5395 ;;		_main
  5396 ;; This function uses a non-reentrant model
  5397 ;;
  5398                           
  5399  097F                     _UART_Init:	
  5400                           ;psect for function _UART_Init
  5401                           
  5402  097F                     l1976:	
  5403                           ;incstack = 0
  5404                           ; Regs used in _UART_Init: [wreg+status,2+status,0+pclath+cstack]
  5405                           
  5406                           
  5407                           ;Uart.c: 3: void UART_Init(int baudRate);Uart.c: 4: {;Uart.c: 5:     TRISC=0x80;
  5408  097F  3080               	movlw	128
  5409  0980  1683               	bsf	3,5	;RP0=1, select bank1
  5410  0981  1303               	bcf	3,6	;RP1=0, select bank1
  5411  0982  0087               	movwf	7	;volatile
  5412                           
  5413                           ;Uart.c: 6:     TXSTA=(1<<5);
  5414  0983  3020               	movlw	32
  5415  0984  0098               	movwf	24	;volatile
  5416                           
  5417                           ;Uart.c: 7:     RCSTA=(1<<7) | (1<<4);
  5418  0985  3090               	movlw	144
  5419  0986  1283               	bcf	3,5	;RP0=0, select bank0
  5420  0987  1303               	bcf	3,6	;RP1=0, select bank0
  5421  0988  0098               	movwf	24	;volatile
  5422  0989                     l1978:
  5423                           
  5424                           ;Uart.c: 8:     SPBRG = ( 8000000UL /(long)(64UL*baudRate))-1;
  5425  0989  0820               	movf	UART_Init@baudRate,w
  5426  098A  00A2               	movwf	??_UART_Init
  5427  098B  0821               	movf	UART_Init@baudRate+1,w
  5428  098C  00A3               	movwf	??_UART_Init+1
  5429  098D  3000               	movlw	0
  5430  098E  1BA3               	btfsc	??_UART_Init+1,7
  5431  098F  30FF               	movlw	255
  5432  0990  00A4               	movwf	??_UART_Init+2
  5433  0991  00A5               	movwf	??_UART_Init+3
  5434  0992  3006               	movlw	6
  5435  0993                     u2195:
  5436  0993  1003               	clrc
  5437  0994  0DA2               	rlf	??_UART_Init,f
  5438  0995  0DA3               	rlf	??_UART_Init+1,f
  5439  0996  0DA4               	rlf	??_UART_Init+2,f
  5440  0997  0DA5               	rlf	??_UART_Init+3,f
  5441  0998                     u2190:
  5442  0998  3EFF               	addlw	-1
  5443  0999  1D03               	skipz
  5444  099A  2993               	goto	u2195
  5445  099B  0825               	movf	??_UART_Init+3,w
  5446  099C  00F3               	movwf	___lldiv@divisor+3
  5447  099D  0824               	movf	??_UART_Init+2,w
  5448  099E  00F2               	movwf	___lldiv@divisor+2
  5449  099F  0823               	movf	??_UART_Init+1,w
  5450  09A0  00F1               	movwf	___lldiv@divisor+1
  5451  09A1  0822               	movf	??_UART_Init,w
  5452  09A2  00F0               	movwf	___lldiv@divisor
  5453  09A3  3000               	movlw	0
  5454  09A4  00F7               	movwf	___lldiv@dividend+3
  5455  09A5  307A               	movlw	122
  5456  09A6  00F6               	movwf	___lldiv@dividend+2
  5457  09A7  3012               	movlw	18
  5458  09A8  00F5               	movwf	___lldiv@dividend+1
  5459  09A9  3000               	movlw	0
  5460  09AA  00F4               	movwf	___lldiv@dividend
  5461  09AB  120A  158A  22AB  120A  158A  	fcall	___lldiv
  5462  09B0  0870               	movf	?___lldiv,w
  5463  09B1  3EFF               	addlw	255
  5464  09B2  1683               	bsf	3,5	;RP0=1, select bank1
  5465  09B3  1303               	bcf	3,6	;RP1=0, select bank1
  5466  09B4  0099               	movwf	25	;volatile
  5467  09B5                     l157:
  5468  09B5  0008               	return
  5469  09B6                     __end_of_UART_Init:
  5470                           
  5471                           	psect	text11
  5472  0AAB                     __ptext11:	
  5473 ;; *************** function ___lldiv *****************
  5474 ;; Defined at:
  5475 ;;		line 5 in file "C:\Program Files\Microchip\xc8\v2.35\pic\sources\c90\common\__lldiv.c"
  5476 ;; Parameters:    Size  Location     Type
  5477 ;;  divisor         4    0[COMMON] unsigned long 
  5478 ;;  dividend        4    4[COMMON] unsigned long 
  5479 ;; Auto vars:     Size  Location     Type
  5480 ;;  quotient        4    9[COMMON] unsigned long 
  5481 ;;  counter         1   13[COMMON] unsigned char 
  5482 ;; Return value:  Size  Location     Type
  5483 ;;                  4    0[COMMON] unsigned long 
  5484 ;; Registers used:
  5485 ;;		wreg, status,2, status,0
  5486 ;; Tracked objects:
  5487 ;;		On entry : 0/0
  5488 ;;		On exit  : 0/0
  5489 ;;		Unchanged: 0/0
  5490 ;; Data sizes:     COMMON   BANK0   BANK1   BANK3   BANK2
  5491 ;;      Params:         8       0       0       0       0
  5492 ;;      Locals:         5       0       0       0       0
  5493 ;;      Temps:          1       0       0       0       0
  5494 ;;      Totals:        14       0       0       0       0
  5495 ;;Total ram usage:       14 bytes
  5496 ;; Hardware stack levels used: 1
  5497 ;; This function calls:
  5498 ;;		Nothing
  5499 ;; This function is called by:
  5500 ;;		_UART_Init
  5501 ;; This function uses a non-reentrant model
  5502 ;;
  5503                           
  5504  0AAB                     ___lldiv:	
  5505                           ;psect for function ___lldiv
  5506                           
  5507  0AAB                     l1848:	
  5508                           ;incstack = 0
  5509                           ; Regs used in ___lldiv: [wreg+status,2+status,0]
  5510                           
  5511  0AAB  3000               	movlw	0
  5512  0AAC  00FC               	movwf	___lldiv@quotient+3
  5513  0AAD  3000               	movlw	0
  5514  0AAE  00FB               	movwf	___lldiv@quotient+2
  5515  0AAF  3000               	movlw	0
  5516  0AB0  00FA               	movwf	___lldiv@quotient+1
  5517  0AB1  3000               	movlw	0
  5518  0AB2  00F9               	movwf	___lldiv@quotient
  5519  0AB3  0873               	movf	___lldiv@divisor+3,w
  5520  0AB4  0472               	iorwf	___lldiv@divisor+2,w
  5521  0AB5  0471               	iorwf	___lldiv@divisor+1,w
  5522  0AB6  0470               	iorwf	___lldiv@divisor,w
  5523  0AB7  1903               	skipnz
  5524  0AB8  2ABA               	goto	u1921
  5525  0AB9  2ABB               	goto	u1920
  5526  0ABA                     u1921:
  5527  0ABA  2B08               	goto	l1868
  5528  0ABB                     u1920:
  5529  0ABB                     l1850:
  5530  0ABB  01FD               	clrf	___lldiv@counter
  5531  0ABC  0AFD               	incf	___lldiv@counter,f
  5532  0ABD  2ACB               	goto	l1854
  5533  0ABE                     l1852:
  5534  0ABE  3001               	movlw	1
  5535  0ABF  00F8               	movwf	??___lldiv
  5536  0AC0                     u1935:
  5537  0AC0  1003               	clrc
  5538  0AC1  0DF0               	rlf	___lldiv@divisor,f
  5539  0AC2  0DF1               	rlf	___lldiv@divisor+1,f
  5540  0AC3  0DF2               	rlf	___lldiv@divisor+2,f
  5541  0AC4  0DF3               	rlf	___lldiv@divisor+3,f
  5542  0AC5  0BF8               	decfsz	??___lldiv,f
  5543  0AC6  2AC0               	goto	u1935
  5544  0AC7  3001               	movlw	1
  5545  0AC8  00F8               	movwf	??___lldiv
  5546  0AC9  0878               	movf	??___lldiv,w
  5547  0ACA  07FD               	addwf	___lldiv@counter,f
  5548  0ACB                     l1854:
  5549  0ACB  1FF3               	btfss	___lldiv@divisor+3,7
  5550  0ACC  2ACE               	goto	u1941
  5551  0ACD  2ACF               	goto	u1940
  5552  0ACE                     u1941:
  5553  0ACE  2ABE               	goto	l1852
  5554  0ACF                     u1940:
  5555  0ACF                     l1856:
  5556  0ACF  3001               	movlw	1
  5557  0AD0  00F8               	movwf	??___lldiv
  5558  0AD1                     u1955:
  5559  0AD1  1003               	clrc
  5560  0AD2  0DF9               	rlf	___lldiv@quotient,f
  5561  0AD3  0DFA               	rlf	___lldiv@quotient+1,f
  5562  0AD4  0DFB               	rlf	___lldiv@quotient+2,f
  5563  0AD5  0DFC               	rlf	___lldiv@quotient+3,f
  5564  0AD6  0BF8               	decfsz	??___lldiv,f
  5565  0AD7  2AD1               	goto	u1955
  5566  0AD8                     l1858:
  5567  0AD8  0873               	movf	___lldiv@divisor+3,w
  5568  0AD9  0277               	subwf	___lldiv@dividend+3,w
  5569  0ADA  1D03               	skipz
  5570  0ADB  2AE6               	goto	u1965
  5571  0ADC  0872               	movf	___lldiv@divisor+2,w
  5572  0ADD  0276               	subwf	___lldiv@dividend+2,w
  5573  0ADE  1D03               	skipz
  5574  0ADF  2AE6               	goto	u1965
  5575  0AE0  0871               	movf	___lldiv@divisor+1,w
  5576  0AE1  0275               	subwf	___lldiv@dividend+1,w
  5577  0AE2  1D03               	skipz
  5578  0AE3  2AE6               	goto	u1965
  5579  0AE4  0870               	movf	___lldiv@divisor,w
  5580  0AE5  0274               	subwf	___lldiv@dividend,w
  5581  0AE6                     u1965:
  5582  0AE6  1C03               	skipc
  5583  0AE7  2AE9               	goto	u1961
  5584  0AE8  2AEA               	goto	u1960
  5585  0AE9                     u1961:
  5586  0AE9  2AF9               	goto	l1864
  5587  0AEA                     u1960:
  5588  0AEA                     l1860:
  5589  0AEA  0870               	movf	___lldiv@divisor,w
  5590  0AEB  02F4               	subwf	___lldiv@dividend,f
  5591  0AEC  0871               	movf	___lldiv@divisor+1,w
  5592  0AED  1C03               	skipc
  5593  0AEE  0F71               	incfsz	___lldiv@divisor+1,w
  5594  0AEF  02F5               	subwf	___lldiv@dividend+1,f
  5595  0AF0  0872               	movf	___lldiv@divisor+2,w
  5596  0AF1  1C03               	skipc
  5597  0AF2  0F72               	incfsz	___lldiv@divisor+2,w
  5598  0AF3  02F6               	subwf	___lldiv@dividend+2,f
  5599  0AF4  0873               	movf	___lldiv@divisor+3,w
  5600  0AF5  1C03               	skipc
  5601  0AF6  0F73               	incfsz	___lldiv@divisor+3,w
  5602  0AF7  02F7               	subwf	___lldiv@dividend+3,f
  5603  0AF8                     l1862:
  5604  0AF8  1479               	bsf	___lldiv@quotient,0
  5605  0AF9                     l1864:
  5606  0AF9  3001               	movlw	1
  5607  0AFA                     u1975:
  5608  0AFA  1003               	clrc
  5609  0AFB  0CF3               	rrf	___lldiv@divisor+3,f
  5610  0AFC  0CF2               	rrf	___lldiv@divisor+2,f
  5611  0AFD  0CF1               	rrf	___lldiv@divisor+1,f
  5612  0AFE  0CF0               	rrf	___lldiv@divisor,f
  5613  0AFF  3EFF               	addlw	-1
  5614  0B00  1D03               	skipz
  5615  0B01  2AFA               	goto	u1975
  5616  0B02                     l1866:
  5617  0B02  3001               	movlw	1
  5618  0B03  02FD               	subwf	___lldiv@counter,f
  5619  0B04  1D03               	btfss	3,2
  5620  0B05  2B07               	goto	u1981
  5621  0B06  2B08               	goto	u1980
  5622  0B07                     u1981:
  5623  0B07  2ACF               	goto	l1856
  5624  0B08                     u1980:
  5625  0B08                     l1868:
  5626  0B08  087C               	movf	___lldiv@quotient+3,w
  5627  0B09  00F3               	movwf	?___lldiv+3
  5628  0B0A  087B               	movf	___lldiv@quotient+2,w
  5629  0B0B  00F2               	movwf	?___lldiv+2
  5630  0B0C  087A               	movf	___lldiv@quotient+1,w
  5631  0B0D  00F1               	movwf	?___lldiv+1
  5632  0B0E  0879               	movf	___lldiv@quotient,w
  5633  0B0F  00F0               	movwf	?___lldiv
  5634  0B10                     l324:
  5635  0B10  0008               	return
  5636  0B11                     __end_of___lldiv:
  5637                           
  5638                           	psect	text12
  5639  0003                     __ptext12:	
  5640 ;; *************** function _PrintFloat *****************
  5641 ;; Defined at:
  5642 ;;		line 42 in file "main.c"
  5643 ;; Parameters:    Size  Location     Type
  5644 ;;  Str             1    wreg     PTR unsigned char 
  5645 ;;		 -> main@Str(10), 
  5646 ;;  N               2   11[COMMON] unsigned int 
  5647 ;; Auto vars:     Size  Location     Type
  5648 ;;  Str             1    2[BANK0 ] PTR unsigned char 
  5649 ;;		 -> main@Str(10), 
  5650 ;;  i               2    3[BANK0 ] int 
  5651 ;; Return value:  Size  Location     Type
  5652 ;;                  1    wreg      void 
  5653 ;; Registers used:
  5654 ;;		wreg, fsr0l, fsr0h, status,2, status,0, pclath, cstack
  5655 ;; Tracked objects:
  5656 ;;		On entry : 0/0
  5657 ;;		On exit  : 0/0
  5658 ;;		Unchanged: 0/0
  5659 ;; Data sizes:     COMMON   BANK0   BANK1   BANK3   BANK2
  5660 ;;      Params:         2       0       0       0       0
  5661 ;;      Locals:         0       3       0       0       0
  5662 ;;      Temps:          0       2       0       0       0
  5663 ;;      Totals:         2       5       0       0       0
  5664 ;;Total ram usage:        7 bytes
  5665 ;; Hardware stack levels used: 1
  5666 ;; Hardware stack levels required when called: 1
  5667 ;; This function calls:
  5668 ;;		___lwdiv
  5669 ;;		___lwmod
  5670 ;; This function is called by:
  5671 ;;		_main
  5672 ;; This function uses a non-reentrant model
  5673 ;;
  5674                           
  5675  0003                     _PrintFloat:	
  5676                           ;psect for function _PrintFloat
  5677                           
  5678                           
  5679                           ;incstack = 0
  5680                           ; Regs used in _PrintFloat: [wreg-fsr0h+status,2+status,0+pclath+cstack]
  5681                           ;PrintFloat@Str stored from wreg
  5682  0003  1283               	bcf	3,5	;RP0=0, select bank0
  5683  0004  1303               	bcf	3,6	;RP1=0, select bank0
  5684  0005  00A2               	movwf	PrintFloat@Str
  5685  0006                     l1934:
  5686                           
  5687                           ;main.c: 42: void PrintFloat(char* Str,unsigned int N);main.c: 43: {;main.c: 44:     for
      +                          (int i=4;i>=0;i--)
  5688  0006  3004               	movlw	4
  5689  0007  00A3               	movwf	PrintFloat@i
  5690  0008  3000               	movlw	0
  5691  0009  00A4               	movwf	PrintFloat@i+1
  5692  000A                     l1938:
  5693                           
  5694                           ;main.c: 45:     {;main.c: 46:         if(i == 2)
  5695  000A  3002               	movlw	2
  5696  000B  0623               	xorwf	PrintFloat@i,w
  5697  000C  0424               	iorwf	PrintFloat@i+1,w
  5698  000D  1D03               	btfss	3,2
  5699  000E  2810               	goto	u2151
  5700  000F  2811               	goto	u2150
  5701  0010                     u2151:
  5702  0010  2821               	goto	l1944
  5703  0011                     u2150:
  5704  0011                     l1940:
  5705                           
  5706                           ;main.c: 47:         {;main.c: 48:             Str[i] = '.';
  5707  0011  302E               	movlw	46
  5708  0012  00A0               	movwf	??_PrintFloat
  5709  0013  0823               	movf	PrintFloat@i,w
  5710  0014  0722               	addwf	PrintFloat@Str,w
  5711  0015  00A1               	movwf	??_PrintFloat+1
  5712  0016  0821               	movf	??_PrintFloat+1,w
  5713  0017  0084               	movwf	4
  5714  0018  0820               	movf	??_PrintFloat,w
  5715  0019  1383               	bcf	3,7	;select IRP bank0
  5716  001A  0080               	movwf	0
  5717  001B                     l1942:
  5718                           
  5719                           ;main.c: 49:             i--;
  5720  001B  30FF               	movlw	255
  5721  001C  07A3               	addwf	PrintFloat@i,f
  5722  001D  1803               	skipnc
  5723  001E  0AA4               	incf	PrintFloat@i+1,f
  5724  001F  30FF               	movlw	255
  5725  0020  07A4               	addwf	PrintFloat@i+1,f
  5726  0021                     l1944:
  5727                           
  5728                           ;main.c: 51:         Str[i] = N % 10 + '0';
  5729  0021  300A               	movlw	10
  5730  0022  00F0               	movwf	___lwmod@divisor
  5731  0023  3000               	movlw	0
  5732  0024  00F1               	movwf	___lwmod@divisor+1
  5733  0025  087C               	movf	PrintFloat@N+1,w
  5734  0026  00F3               	movwf	___lwmod@dividend+1
  5735  0027  087B               	movf	PrintFloat@N,w
  5736  0028  00F2               	movwf	___lwmod@dividend
  5737  0029  120A  158A  21EF  120A  118A  	fcall	___lwmod
  5738  002E  0870               	movf	?___lwmod,w
  5739  002F  3E30               	addlw	48
  5740  0030  1283               	bcf	3,5	;RP0=0, select bank0
  5741  0031  1303               	bcf	3,6	;RP1=0, select bank0
  5742  0032  00A0               	movwf	??_PrintFloat
  5743  0033  0823               	movf	PrintFloat@i,w
  5744  0034  0722               	addwf	PrintFloat@Str,w
  5745  0035  00A1               	movwf	??_PrintFloat+1
  5746  0036  0821               	movf	??_PrintFloat+1,w
  5747  0037  0084               	movwf	4
  5748  0038  0820               	movf	??_PrintFloat,w
  5749  0039  1383               	bcf	3,7	;select IRP bank0
  5750  003A  0080               	movwf	0
  5751  003B                     l1946:
  5752                           
  5753                           ;main.c: 52:         N = N / 10;
  5754  003B  300A               	movlw	10
  5755  003C  00F0               	movwf	___lwdiv@divisor
  5756  003D  3000               	movlw	0
  5757  003E  00F1               	movwf	___lwdiv@divisor+1
  5758  003F  087C               	movf	PrintFloat@N+1,w
  5759  0040  00F3               	movwf	___lwdiv@dividend+1
  5760  0041  087B               	movf	PrintFloat@N,w
  5761  0042  00F2               	movwf	___lwdiv@dividend
  5762  0043  120A  158A  2267  120A  118A  	fcall	___lwdiv
  5763  0048  0871               	movf	?___lwdiv+1,w
  5764  0049  00FC               	movwf	PrintFloat@N+1
  5765  004A  0870               	movf	?___lwdiv,w
  5766  004B  00FB               	movwf	PrintFloat@N
  5767  004C                     l1948:
  5768                           
  5769                           ;main.c: 54:     }
  5770  004C  30FF               	movlw	255
  5771  004D  1283               	bcf	3,5	;RP0=0, select bank0
  5772  004E  1303               	bcf	3,6	;RP1=0, select bank0
  5773  004F  07A3               	addwf	PrintFloat@i,f
  5774  0050  1803               	skipnc
  5775  0051  0AA4               	incf	PrintFloat@i+1,f
  5776  0052  30FF               	movlw	255
  5777  0053  07A4               	addwf	PrintFloat@i+1,f
  5778  0054                     l1950:
  5779  0054  1FA4               	btfss	PrintFloat@i+1,7
  5780  0055  2857               	goto	u2161
  5781  0056  2858               	goto	u2160
  5782  0057                     u2161:
  5783  0057  280A               	goto	l1938
  5784  0058                     u2160:
  5785  0058                     l34:
  5786  0058  0008               	return
  5787  0059                     __end_of_PrintFloat:
  5788                           
  5789                           	psect	text13
  5790  09EF                     __ptext13:	
  5791 ;; *************** function ___lwmod *****************
  5792 ;; Defined at:
  5793 ;;		line 5 in file "C:\Program Files\Microchip\xc8\v2.35\pic\sources\c90\common\lwmod.c"
  5794 ;; Parameters:    Size  Location     Type
  5795 ;;  divisor         2    0[COMMON] unsigned int 
  5796 ;;  dividend        2    2[COMMON] unsigned int 
  5797 ;; Auto vars:     Size  Location     Type
  5798 ;;  counter         1    5[COMMON] unsigned char 
  5799 ;; Return value:  Size  Location     Type
  5800 ;;                  2    0[COMMON] unsigned int 
  5801 ;; Registers used:
  5802 ;;		wreg, status,2, status,0
  5803 ;; Tracked objects:
  5804 ;;		On entry : 0/0
  5805 ;;		On exit  : 0/0
  5806 ;;		Unchanged: 0/0
  5807 ;; Data sizes:     COMMON   BANK0   BANK1   BANK3   BANK2
  5808 ;;      Params:         4       0       0       0       0
  5809 ;;      Locals:         1       0       0       0       0
  5810 ;;      Temps:          1       0       0       0       0
  5811 ;;      Totals:         6       0       0       0       0
  5812 ;;Total ram usage:        6 bytes
  5813 ;; Hardware stack levels used: 1
  5814 ;; This function calls:
  5815 ;;		Nothing
  5816 ;; This function is called by:
  5817 ;;		_PrintFloat
  5818 ;; This function uses a non-reentrant model
  5819 ;;
  5820                           
  5821  09EF                     ___lwmod:	
  5822                           ;psect for function ___lwmod
  5823                           
  5824  09EF                     l1898:	
  5825                           ;incstack = 0
  5826                           ; Regs used in ___lwmod: [wreg+status,2+status,0]
  5827                           
  5828  09EF  0870               	movf	___lwmod@divisor,w
  5829  09F0  0471               	iorwf	___lwmod@divisor+1,w
  5830  09F1  1903               	btfsc	3,2
  5831  09F2  29F4               	goto	u2061
  5832  09F3  29F5               	goto	u2060
  5833  09F4                     u2061:
  5834  09F4  2A24               	goto	l1916
  5835  09F5                     u2060:
  5836  09F5                     l1900:
  5837  09F5  01F5               	clrf	___lwmod@counter
  5838  09F6  0AF5               	incf	___lwmod@counter,f
  5839  09F7  2A03               	goto	l1906
  5840  09F8                     l1902:
  5841  09F8  3001               	movlw	1
  5842  09F9                     u2075:
  5843  09F9  1003               	clrc
  5844  09FA  0DF0               	rlf	___lwmod@divisor,f
  5845  09FB  0DF1               	rlf	___lwmod@divisor+1,f
  5846  09FC  3EFF               	addlw	-1
  5847  09FD  1D03               	skipz
  5848  09FE  29F9               	goto	u2075
  5849  09FF                     l1904:
  5850  09FF  3001               	movlw	1
  5851  0A00  00F4               	movwf	??___lwmod
  5852  0A01  0874               	movf	??___lwmod,w
  5853  0A02  07F5               	addwf	___lwmod@counter,f
  5854  0A03                     l1906:
  5855  0A03  1FF1               	btfss	___lwmod@divisor+1,7
  5856  0A04  2A06               	goto	u2081
  5857  0A05  2A07               	goto	u2080
  5858  0A06                     u2081:
  5859  0A06  29F8               	goto	l1902
  5860  0A07                     u2080:
  5861  0A07                     l1908:
  5862  0A07  0871               	movf	___lwmod@divisor+1,w
  5863  0A08  0273               	subwf	___lwmod@dividend+1,w
  5864  0A09  1D03               	skipz
  5865  0A0A  2A0D               	goto	u2095
  5866  0A0B  0870               	movf	___lwmod@divisor,w
  5867  0A0C  0272               	subwf	___lwmod@dividend,w
  5868  0A0D                     u2095:
  5869  0A0D  1C03               	skipc
  5870  0A0E  2A10               	goto	u2091
  5871  0A0F  2A11               	goto	u2090
  5872  0A10                     u2091:
  5873  0A10  2A17               	goto	l1912
  5874  0A11                     u2090:
  5875  0A11                     l1910:
  5876  0A11  0870               	movf	___lwmod@divisor,w
  5877  0A12  02F2               	subwf	___lwmod@dividend,f
  5878  0A13  0871               	movf	___lwmod@divisor+1,w
  5879  0A14  1C03               	skipc
  5880  0A15  03F3               	decf	___lwmod@dividend+1,f
  5881  0A16  02F3               	subwf	___lwmod@dividend+1,f
  5882  0A17                     l1912:
  5883  0A17  3001               	movlw	1
  5884  0A18                     u2105:
  5885  0A18  1003               	clrc
  5886  0A19  0CF1               	rrf	___lwmod@divisor+1,f
  5887  0A1A  0CF0               	rrf	___lwmod@divisor,f
  5888  0A1B  3EFF               	addlw	-1
  5889  0A1C  1D03               	skipz
  5890  0A1D  2A18               	goto	u2105
  5891  0A1E                     l1914:
  5892  0A1E  3001               	movlw	1
  5893  0A1F  02F5               	subwf	___lwmod@counter,f
  5894  0A20  1D03               	btfss	3,2
  5895  0A21  2A23               	goto	u2111
  5896  0A22  2A24               	goto	u2110
  5897  0A23                     u2111:
  5898  0A23  2A07               	goto	l1908
  5899  0A24                     u2110:
  5900  0A24                     l1916:
  5901  0A24  0873               	movf	___lwmod@dividend+1,w
  5902  0A25  00F1               	movwf	?___lwmod+1
  5903  0A26  0872               	movf	___lwmod@dividend,w
  5904  0A27  00F0               	movwf	?___lwmod
  5905  0A28                     l570:
  5906  0A28  0008               	return
  5907  0A29                     __end_of___lwmod:
  5908                           
  5909                           	psect	text14
  5910  0A67                     __ptext14:	
  5911 ;; *************** function ___lwdiv *****************
  5912 ;; Defined at:
  5913 ;;		line 5 in file "C:\Program Files\Microchip\xc8\v2.35\pic\sources\c90\common\lwdiv.c"
  5914 ;; Parameters:    Size  Location     Type
  5915 ;;  divisor         2    0[COMMON] unsigned int 
  5916 ;;  dividend        2    2[COMMON] unsigned int 
  5917 ;; Auto vars:     Size  Location     Type
  5918 ;;  quotient        2    5[COMMON] unsigned int 
  5919 ;;  counter         1    7[COMMON] unsigned char 
  5920 ;; Return value:  Size  Location     Type
  5921 ;;                  2    0[COMMON] unsigned int 
  5922 ;; Registers used:
  5923 ;;		wreg, status,2, status,0
  5924 ;; Tracked objects:
  5925 ;;		On entry : 0/0
  5926 ;;		On exit  : 0/0
  5927 ;;		Unchanged: 0/0
  5928 ;; Data sizes:     COMMON   BANK0   BANK1   BANK3   BANK2
  5929 ;;      Params:         4       0       0       0       0
  5930 ;;      Locals:         3       0       0       0       0
  5931 ;;      Temps:          1       0       0       0       0
  5932 ;;      Totals:         8       0       0       0       0
  5933 ;;Total ram usage:        8 bytes
  5934 ;; Hardware stack levels used: 1
  5935 ;; This function calls:
  5936 ;;		Nothing
  5937 ;; This function is called by:
  5938 ;;		_PrintFloat
  5939 ;; This function uses a non-reentrant model
  5940 ;;
  5941                           
  5942  0A67                     ___lwdiv:	
  5943                           ;psect for function ___lwdiv
  5944                           
  5945  0A67                     l1872:	
  5946                           ;incstack = 0
  5947                           ; Regs used in ___lwdiv: [wreg+status,2+status,0]
  5948                           
  5949  0A67  01F5               	clrf	___lwdiv@quotient
  5950  0A68  01F6               	clrf	___lwdiv@quotient+1
  5951  0A69                     l1874:
  5952  0A69  0870               	movf	___lwdiv@divisor,w
  5953  0A6A  0471               	iorwf	___lwdiv@divisor+1,w
  5954  0A6B  1903               	btfsc	3,2
  5955  0A6C  2A6E               	goto	u1991
  5956  0A6D  2A6F               	goto	u1990
  5957  0A6E                     u1991:
  5958  0A6E  2AA6               	goto	l1894
  5959  0A6F                     u1990:
  5960  0A6F                     l1876:
  5961  0A6F  01F7               	clrf	___lwdiv@counter
  5962  0A70  0AF7               	incf	___lwdiv@counter,f
  5963  0A71  2A7D               	goto	l1882
  5964  0A72                     l1878:
  5965  0A72  3001               	movlw	1
  5966  0A73                     u2005:
  5967  0A73  1003               	clrc
  5968  0A74  0DF0               	rlf	___lwdiv@divisor,f
  5969  0A75  0DF1               	rlf	___lwdiv@divisor+1,f
  5970  0A76  3EFF               	addlw	-1
  5971  0A77  1D03               	skipz
  5972  0A78  2A73               	goto	u2005
  5973  0A79                     l1880:
  5974  0A79  3001               	movlw	1
  5975  0A7A  00F4               	movwf	??___lwdiv
  5976  0A7B  0874               	movf	??___lwdiv,w
  5977  0A7C  07F7               	addwf	___lwdiv@counter,f
  5978  0A7D                     l1882:
  5979  0A7D  1FF1               	btfss	___lwdiv@divisor+1,7
  5980  0A7E  2A80               	goto	u2011
  5981  0A7F  2A81               	goto	u2010
  5982  0A80                     u2011:
  5983  0A80  2A72               	goto	l1878
  5984  0A81                     u2010:
  5985  0A81                     l1884:
  5986  0A81  3001               	movlw	1
  5987  0A82                     u2025:
  5988  0A82  1003               	clrc
  5989  0A83  0DF5               	rlf	___lwdiv@quotient,f
  5990  0A84  0DF6               	rlf	___lwdiv@quotient+1,f
  5991  0A85  3EFF               	addlw	-1
  5992  0A86  1D03               	skipz
  5993  0A87  2A82               	goto	u2025
  5994  0A88  0871               	movf	___lwdiv@divisor+1,w
  5995  0A89  0273               	subwf	___lwdiv@dividend+1,w
  5996  0A8A  1D03               	skipz
  5997  0A8B  2A8E               	goto	u2035
  5998  0A8C  0870               	movf	___lwdiv@divisor,w
  5999  0A8D  0272               	subwf	___lwdiv@dividend,w
  6000  0A8E                     u2035:
  6001  0A8E  1C03               	skipc
  6002  0A8F  2A91               	goto	u2031
  6003  0A90  2A92               	goto	u2030
  6004  0A91                     u2031:
  6005  0A91  2A99               	goto	l1890
  6006  0A92                     u2030:
  6007  0A92                     l1886:
  6008  0A92  0870               	movf	___lwdiv@divisor,w
  6009  0A93  02F2               	subwf	___lwdiv@dividend,f
  6010  0A94  0871               	movf	___lwdiv@divisor+1,w
  6011  0A95  1C03               	skipc
  6012  0A96  03F3               	decf	___lwdiv@dividend+1,f
  6013  0A97  02F3               	subwf	___lwdiv@dividend+1,f
  6014  0A98                     l1888:
  6015  0A98  1475               	bsf	___lwdiv@quotient,0
  6016  0A99                     l1890:
  6017  0A99  3001               	movlw	1
  6018  0A9A                     u2045:
  6019  0A9A  1003               	clrc
  6020  0A9B  0CF1               	rrf	___lwdiv@divisor+1,f
  6021  0A9C  0CF0               	rrf	___lwdiv@divisor,f
  6022  0A9D  3EFF               	addlw	-1
  6023  0A9E  1D03               	skipz
  6024  0A9F  2A9A               	goto	u2045
  6025  0AA0                     l1892:
  6026  0AA0  3001               	movlw	1
  6027  0AA1  02F7               	subwf	___lwdiv@counter,f
  6028  0AA2  1D03               	btfss	3,2
  6029  0AA3  2AA5               	goto	u2051
  6030  0AA4  2AA6               	goto	u2050
  6031  0AA5                     u2051:
  6032  0AA5  2A81               	goto	l1884
  6033  0AA6                     u2050:
  6034  0AA6                     l1894:
  6035  0AA6  0876               	movf	___lwdiv@quotient+1,w
  6036  0AA7  00F1               	movwf	?___lwdiv+1
  6037  0AA8  0875               	movf	___lwdiv@quotient,w
  6038  0AA9  00F0               	movwf	?___lwdiv
  6039  0AAA                     l560:
  6040  0AAA  0008               	return
  6041  0AAB                     __end_of___lwdiv:
  6042                           
  6043                           	psect	text15
  6044  179E                     __ptext15:	
  6045 ;; *************** function _PWM_Start *****************
  6046 ;; Defined at:
  6047 ;;		line 79 in file "PWM.c"
  6048 ;; Parameters:    Size  Location     Type
  6049 ;;  channel         1    wreg     unsigned char 
  6050 ;; Auto vars:     Size  Location     Type
  6051 ;;  channel         1    0[COMMON] unsigned char 
  6052 ;; Return value:  Size  Location     Type
  6053 ;;                  1    wreg      void 
  6054 ;; Registers used:
  6055 ;;		wreg
  6056 ;; Tracked objects:
  6057 ;;		On entry : 0/0
  6058 ;;		On exit  : 0/0
  6059 ;;		Unchanged: 0/0
  6060 ;; Data sizes:     COMMON   BANK0   BANK1   BANK3   BANK2
  6061 ;;      Params:         0       0       0       0       0
  6062 ;;      Locals:         0       0       0       0       0
  6063 ;;      Temps:          0       0       0       0       0
  6064 ;;      Totals:         0       0       0       0       0
  6065 ;;Total ram usage:        0 bytes
  6066 ;; Hardware stack levels used: 1
  6067 ;; This function calls:
  6068 ;;		Nothing
  6069 ;; This function is called by:
  6070 ;;		_main
  6071 ;; This function uses a non-reentrant model
  6072 ;;
  6073                           
  6074  179E                     _PWM_Start:	
  6075                           ;psect for function _PWM_Start
  6076                           
  6077  179E                     l2014:	
  6078                           ;incstack = 0
  6079                           ; Regs used in _PWM_Start: [wreg]
  6080                           
  6081                           
  6082                           ;PWM.c: 79: void PWM_Start(unsigned char channel);PWM.c: 80: {;PWM.c: 81:     TMR2ON = 1
      +                          ;
  6083  179E  1283               	bcf	3,5	;RP0=0, select bank0
  6084  179F  1303               	bcf	3,6	;RP1=0, select bank0
  6085  17A0  1512               	bsf	18,2	;volatile
  6086  17A1                     l131:
  6087  17A1  0008               	return
  6088  17A2                     __end_of_PWM_Start:
  6089                           
  6090                           	psect	text16
  6091  08D9                     __ptext16:	
  6092 ;; *************** function _PWM_SetDutyCycle *****************
  6093 ;; Defined at:
  6094 ;;		line 49 in file "PWM.c"
  6095 ;; Parameters:    Size  Location     Type
  6096 ;;  channel         1    wreg     unsigned char 
  6097 ;;  dutyCycle       1    0[COMMON] unsigned char 
  6098 ;; Auto vars:     Size  Location     Type
  6099 ;;  channel         1    3[COMMON] unsigned char 
  6100 ;; Return value:  Size  Location     Type
  6101 ;;                  1    wreg      void 
  6102 ;; Registers used:
  6103 ;;		wreg, fsr0l, fsr0h, status,2, status,0
  6104 ;; Tracked objects:
  6105 ;;		On entry : 0/0
  6106 ;;		On exit  : 0/0
  6107 ;;		Unchanged: 0/0
  6108 ;; Data sizes:     COMMON   BANK0   BANK1   BANK3   BANK2
  6109 ;;      Params:         1       0       0       0       0
  6110 ;;      Locals:         1       0       0       0       0
  6111 ;;      Temps:          2       0       0       0       0
  6112 ;;      Totals:         4       0       0       0       0
  6113 ;;Total ram usage:        4 bytes
  6114 ;; Hardware stack levels used: 1
  6115 ;; This function calls:
  6116 ;;		Nothing
  6117 ;; This function is called by:
  6118 ;;		_main
  6119 ;; This function uses a non-reentrant model
  6120 ;;
  6121                           
  6122  08D9                     _PWM_SetDutyCycle:	
  6123                           ;psect for function _PWM_SetDutyCycle
  6124                           
  6125                           
  6126                           ;incstack = 0
  6127                           ; Regs used in _PWM_SetDutyCycle: [wreg-fsr0h+status,2+status,0]
  6128                           ;PWM_SetDutyCycle@channel stored from wreg
  6129  08D9  00F3               	movwf	PWM_SetDutyCycle@channel
  6130  08DA                     l1998:
  6131                           
  6132                           ;PWM.c: 49: void PWM_SetDutyCycle(unsigned char channel,unsigned char dutyCycle);PWM.c: 
      +                          50: {;PWM.c: 51:     if(dutyCycle>100)
  6133  08DA  3065               	movlw	101
  6134  08DB  0270               	subwf	PWM_SetDutyCycle@dutyCycle,w
  6135  08DC  1C03               	skipc
  6136  08DD  28DF               	goto	u2201
  6137  08DE  28E0               	goto	u2200
  6138  08DF                     u2201:
  6139  08DF  28EF               	goto	l2008
  6140  08E0                     u2200:
  6141  08E0                     l2000:
  6142                           
  6143                           ;PWM.c: 52:         dutyCycle = 100;
  6144  08E0  3064               	movlw	100
  6145  08E1  00F1               	movwf	??_PWM_SetDutyCycle
  6146  08E2  0871               	movf	??_PWM_SetDutyCycle,w
  6147  08E3  00F0               	movwf	PWM_SetDutyCycle@dutyCycle
  6148  08E4  28EF               	goto	l2008
  6149  08E5                     l2002:
  6150                           
  6151                           ;PWM.c: 57:         CCPR1L = dutyCycle;
  6152  08E5  0870               	movf	PWM_SetDutyCycle@dutyCycle,w
  6153  08E6  1283               	bcf	3,5	;RP0=0, select bank0
  6154  08E7  1303               	bcf	3,6	;RP1=0, select bank0
  6155  08E8  0095               	movwf	21	;volatile
  6156                           
  6157                           ;PWM.c: 58:         break;
  6158  08E9  28FF               	goto	l128
  6159  08EA                     l2004:
  6160                           
  6161                           ;PWM.c: 61:         CCPR2L = dutyCycle;
  6162  08EA  0870               	movf	PWM_SetDutyCycle@dutyCycle,w
  6163  08EB  1283               	bcf	3,5	;RP0=0, select bank0
  6164  08EC  1303               	bcf	3,6	;RP1=0, select bank0
  6165  08ED  009B               	movwf	27	;volatile
  6166                           
  6167                           ;PWM.c: 62:         break;
  6168  08EE  28FF               	goto	l128
  6169  08EF                     l2008:
  6170  08EF  0873               	movf	PWM_SetDutyCycle@channel,w
  6171  08F0  00F1               	movwf	??_PWM_SetDutyCycle
  6172  08F1  01F2               	clrf	??_PWM_SetDutyCycle+1
  6173                           
  6174                           ; Switch on 2 bytes has been partitioned into a top level switch of size 1, and 1 sub-sw
      +                          itches
  6175                           ; Switch size 1, requested type "simple"
  6176                           ; Number of cases is 1, Range of values is 0 to 0
  6177                           ; switch strategies available:
  6178                           ; Name         Instructions Cycles
  6179                           ; simple_byte            4     3 (average)
  6180                           ; direct_byte           11     8 (fixed)
  6181                           ; jumptable            260     6 (fixed)
  6182                           ;	Chosen strategy is simple_byte
  6183  08F2  0872               	movf	??_PWM_SetDutyCycle+1,w
  6184  08F3  3A00               	xorlw	0	; case 0
  6185  08F4  1903               	skipnz
  6186  08F5  28F7               	goto	l2764
  6187  08F6  28FF               	goto	l128
  6188  08F7                     l2764:
  6189                           
  6190                           ; Switch size 1, requested type "simple"
  6191                           ; Number of cases is 2, Range of values is 0 to 1
  6192                           ; switch strategies available:
  6193                           ; Name         Instructions Cycles
  6194                           ; simple_byte            7     4 (average)
  6195                           ; direct_byte           14     8 (fixed)
  6196                           ; jumptable            260     6 (fixed)
  6197                           ;	Chosen strategy is simple_byte
  6198  08F7  0871               	movf	??_PWM_SetDutyCycle,w
  6199  08F8  3A00               	xorlw	0	; case 0
  6200  08F9  1903               	skipnz
  6201  08FA  28E5               	goto	l2002
  6202  08FB  3A01               	xorlw	1	; case 1
  6203  08FC  1903               	skipnz
  6204  08FD  28EA               	goto	l2004
  6205  08FE  28FF               	goto	l128
  6206  08FF                     l128:
  6207  08FF  0008               	return
  6208  0900                     __end_of_PWM_SetDutyCycle:
  6209                           
  6210                           	psect	text17
  6211  09B6                     __ptext17:	
  6212 ;; *************** function _PWM_Init *****************
  6213 ;; Defined at:
  6214 ;;		line 10 in file "PWM.c"
  6215 ;; Parameters:    Size  Location     Type
  6216 ;;  channel         1    wreg     unsigned char 
  6217 ;; Auto vars:     Size  Location     Type
  6218 ;;  channel         1    2[COMMON] unsigned char 
  6219 ;; Return value:  Size  Location     Type
  6220 ;;                  1    wreg      void 
  6221 ;; Registers used:
  6222 ;;		wreg, fsr0l, fsr0h, status,2, status,0
  6223 ;; Tracked objects:
  6224 ;;		On entry : 0/0
  6225 ;;		On exit  : 0/0
  6226 ;;		Unchanged: 0/0
  6227 ;; Data sizes:     COMMON   BANK0   BANK1   BANK3   BANK2
  6228 ;;      Params:         0       0       0       0       0
  6229 ;;      Locals:         1       0       0       0       0
  6230 ;;      Temps:          2       0       0       0       0
  6231 ;;      Totals:         3       0       0       0       0
  6232 ;;Total ram usage:        3 bytes
  6233 ;; Hardware stack levels used: 1
  6234 ;; This function calls:
  6235 ;;		Nothing
  6236 ;; This function is called by:
  6237 ;;		_main
  6238 ;; This function uses a non-reentrant model
  6239 ;;
  6240                           
  6241  09B6                     _PWM_Init:	
  6242                           ;psect for function _PWM_Init
  6243                           
  6244                           
  6245                           ;incstack = 0
  6246                           ; Regs used in _PWM_Init: [wreg-fsr0h+status,2+status,0]
  6247                           ;PWM_Init@channel stored from wreg
  6248  09B6  00F2               	movwf	PWM_Init@channel
  6249  09B7                     l1980:
  6250                           
  6251                           ;PWM.c: 10: void PWM_Init(unsigned char channel);PWM.c: 11: {;PWM.c: 12:     switch (cha
      +                          nnel)
  6252  09B7  29DE               	goto	l1992
  6253  09B8                     l1982:
  6254                           
  6255                           ;PWM.c: 15:         CCP1CON = 0x0F;
  6256  09B8  300F               	movlw	15
  6257  09B9  1283               	bcf	3,5	;RP0=0, select bank0
  6258  09BA  1303               	bcf	3,6	;RP1=0, select bank0
  6259  09BB  0097               	movwf	23	;volatile
  6260                           
  6261                           ;PWM.c: 16:         PR2 = 100;
  6262  09BC  3064               	movlw	100
  6263  09BD  1683               	bsf	3,5	;RP0=1, select bank1
  6264  09BE  1303               	bcf	3,6	;RP1=0, select bank1
  6265  09BF  0092               	movwf	18	;volatile
  6266                           
  6267                           ;PWM.c: 17:         CCPR1L = 50;
  6268  09C0  3032               	movlw	50
  6269  09C1  1283               	bcf	3,5	;RP0=0, select bank0
  6270  09C2  1303               	bcf	3,6	;RP1=0, select bank0
  6271  09C3  0095               	movwf	21	;volatile
  6272  09C4                     l1984:
  6273                           
  6274                           ;PWM.c: 18:         ((TRISC) &= ~(1<<(2)));
  6275  09C4  30FB               	movlw	251
  6276  09C5  00F0               	movwf	??_PWM_Init
  6277  09C6  0870               	movf	??_PWM_Init,w
  6278  09C7  1683               	bsf	3,5	;RP0=1, select bank1
  6279  09C8  1303               	bcf	3,6	;RP1=0, select bank1
  6280  09C9  0587               	andwf	7,f	;volatile
  6281                           
  6282                           ;PWM.c: 19:         break;
  6283  09CA  29EE               	goto	l120
  6284  09CB                     l1986:
  6285                           
  6286                           ;PWM.c: 22:         CCP2CON = 0x0F;
  6287  09CB  300F               	movlw	15
  6288  09CC  1283               	bcf	3,5	;RP0=0, select bank0
  6289  09CD  1303               	bcf	3,6	;RP1=0, select bank0
  6290  09CE  009D               	movwf	29	;volatile
  6291                           
  6292                           ;PWM.c: 23:         PR2 = 100;
  6293  09CF  3064               	movlw	100
  6294  09D0  1683               	bsf	3,5	;RP0=1, select bank1
  6295  09D1  1303               	bcf	3,6	;RP1=0, select bank1
  6296  09D2  0092               	movwf	18	;volatile
  6297                           
  6298                           ;PWM.c: 24:         CCPR2L = 50;
  6299  09D3  3032               	movlw	50
  6300  09D4  1283               	bcf	3,5	;RP0=0, select bank0
  6301  09D5  1303               	bcf	3,6	;RP1=0, select bank0
  6302  09D6  009B               	movwf	27	;volatile
  6303  09D7                     l1988:
  6304                           
  6305                           ;PWM.c: 25:         ((TRISC) &= ~(1<<(1)));
  6306  09D7  30FD               	movlw	253
  6307  09D8  00F0               	movwf	??_PWM_Init
  6308  09D9  0870               	movf	??_PWM_Init,w
  6309  09DA  1683               	bsf	3,5	;RP0=1, select bank1
  6310  09DB  1303               	bcf	3,6	;RP1=0, select bank1
  6311  09DC  0587               	andwf	7,f	;volatile
  6312                           
  6313                           ;PWM.c: 26:         break;
  6314  09DD  29EE               	goto	l120
  6315  09DE                     l1992:
  6316  09DE  0872               	movf	PWM_Init@channel,w
  6317  09DF  00F0               	movwf	??_PWM_Init
  6318  09E0  01F1               	clrf	??_PWM_Init+1
  6319                           
  6320                           ; Switch on 2 bytes has been partitioned into a top level switch of size 1, and 1 sub-sw
      +                          itches
  6321                           ; Switch size 1, requested type "simple"
  6322                           ; Number of cases is 1, Range of values is 0 to 0
  6323                           ; switch strategies available:
  6324                           ; Name         Instructions Cycles
  6325                           ; simple_byte            4     3 (average)
  6326                           ; direct_byte           11     8 (fixed)
  6327                           ; jumptable            260     6 (fixed)
  6328                           ;	Chosen strategy is simple_byte
  6329  09E1  0871               	movf	??_PWM_Init+1,w
  6330  09E2  3A00               	xorlw	0	; case 0
  6331  09E3  1903               	skipnz
  6332  09E4  29E6               	goto	l2766
  6333  09E5  29EE               	goto	l120
  6334  09E6                     l2766:
  6335                           
  6336                           ; Switch size 1, requested type "simple"
  6337                           ; Number of cases is 2, Range of values is 0 to 1
  6338                           ; switch strategies available:
  6339                           ; Name         Instructions Cycles
  6340                           ; simple_byte            7     4 (average)
  6341                           ; direct_byte           14     8 (fixed)
  6342                           ; jumptable            260     6 (fixed)
  6343                           ;	Chosen strategy is simple_byte
  6344  09E6  0870               	movf	??_PWM_Init,w
  6345  09E7  3A00               	xorlw	0	; case 0
  6346  09E8  1903               	skipnz
  6347  09E9  29B8               	goto	l1982
  6348  09EA  3A01               	xorlw	1	; case 1
  6349  09EB  1903               	skipnz
  6350  09EC  29CB               	goto	l1986
  6351  09ED  29EE               	goto	l120
  6352  09EE                     l120:
  6353  09EE  0008               	return
  6354  09EF                     __end_of_PWM_Init:
  6355                           
  6356                           	psect	text18
  6357  088D                     __ptext18:	
  6358 ;; *************** function _LCD_Print *****************
  6359 ;; Defined at:
  6360 ;;		line 95 in file "LCD.c"
  6361 ;; Parameters:    Size  Location     Type
  6362 ;;  Str             2    4[COMMON] PTR unsigned char 
  6363 ;;		 -> STR_8(2), STR_7(11), STR_4(2), STR_3(14), 
  6364 ;;		 -> main@Str(10), STR_2(17), 
  6365 ;; Auto vars:     Size  Location     Type
  6366 ;;		None
  6367 ;; Return value:  Size  Location     Type
  6368 ;;                  1    wreg      void 
  6369 ;; Registers used:
  6370 ;;		wreg, fsr0l, fsr0h, status,2, status,0, btemp+1, pclath, cstack
  6371 ;; Tracked objects:
  6372 ;;		On entry : 0/0
  6373 ;;		On exit  : 0/0
  6374 ;;		Unchanged: 0/0
  6375 ;; Data sizes:     COMMON   BANK0   BANK1   BANK3   BANK2
  6376 ;;      Params:         2       0       0       0       0
  6377 ;;      Locals:         0       0       0       0       0
  6378 ;;      Temps:          0       0       0       0       0
  6379 ;;      Totals:         2       0       0       0       0
  6380 ;;Total ram usage:        2 bytes
  6381 ;; Hardware stack levels used: 1
  6382 ;; Hardware stack levels required when called: 2
  6383 ;; This function calls:
  6384 ;;		_Lcd_DataWrite
  6385 ;; This function is called by:
  6386 ;;		_main
  6387 ;; This function uses a non-reentrant model
  6388 ;;
  6389                           
  6390  088D                     _LCD_Print:	
  6391                           ;psect for function _LCD_Print
  6392                           
  6393  088D                     l2030:	
  6394                           ;incstack = 0
  6395                           ; Regs used in _LCD_Print: [wreg-fsr0h+status,2+status,0+btemp+1+pclath+cstack]
  6396                           
  6397                           
  6398                           ;LCD.c: 95: void LCD_Print(char* Str);LCD.c: 96: {;LCD.c: 97:     while(*Str)
  6399  088D  28A2               	goto	l2036
  6400  088E                     l2032:
  6401                           
  6402                           ;LCD.c: 98:     {;LCD.c: 99:         Lcd_DataWrite(*Str);
  6403  088E  0875               	movf	LCD_Print@Str+1,w
  6404  088F  00FF               	movwf	btemp+1
  6405  0890  0874               	movf	LCD_Print@Str,w
  6406  0891  0084               	movwf	4
  6407  0892  120A  158A  2000  120A  158A  	fcall	stringtab
  6408  0897  120A  158A  2127  120A  158A  	fcall	_Lcd_DataWrite
  6409  089C                     l2034:
  6410                           
  6411                           ;LCD.c: 100:         Str++;
  6412  089C  3001               	movlw	1
  6413  089D  07F4               	addwf	LCD_Print@Str,f
  6414  089E  1803               	skipnc
  6415  089F  0AF5               	incf	LCD_Print@Str+1,f
  6416  08A0  3000               	movlw	0
  6417  08A1  07F5               	addwf	LCD_Print@Str+1,f
  6418  08A2                     l2036:
  6419                           
  6420                           ;LCD.c: 97:     while(*Str)
  6421  08A2  0875               	movf	LCD_Print@Str+1,w
  6422  08A3  1283               	bcf	3,5	;RP0=0, select bank0
  6423  08A4  1303               	bcf	3,6	;RP1=0, select bank0
  6424  08A5  00FF               	movwf	btemp+1
  6425  08A6  0874               	movf	LCD_Print@Str,w
  6426  08A7  0084               	movwf	4
  6427  08A8  120A  158A  2000  120A  158A  	fcall	stringtab
  6428  08AD  3A00               	xorlw	0
  6429  08AE  1D03               	skipz
  6430  08AF  28B1               	goto	u2231
  6431  08B0  28B2               	goto	u2230
  6432  08B1                     u2231:
  6433  08B1  288E               	goto	l2032
  6434  08B2                     u2230:
  6435  08B2                     l99:
  6436  08B2  0008               	return
  6437  08B3                     __end_of_LCD_Print:
  6438                           
  6439                           	psect	text19
  6440  0927                     __ptext19:	
  6441 ;; *************** function _Lcd_DataWrite *****************
  6442 ;; Defined at:
  6443 ;;		line 66 in file "LCD.c"
  6444 ;; Parameters:    Size  Location     Type
  6445 ;;  dat             1    wreg     unsigned char 
  6446 ;; Auto vars:     Size  Location     Type
  6447 ;;  dat             1    3[COMMON] unsigned char 
  6448 ;; Return value:  Size  Location     Type
  6449 ;;                  1    wreg      void 
  6450 ;; Registers used:
  6451 ;;		wreg, status,2, status,0, pclath, cstack
  6452 ;; Tracked objects:
  6453 ;;		On entry : 0/0
  6454 ;;		On exit  : 0/0
  6455 ;;		Unchanged: 0/0
  6456 ;; Data sizes:     COMMON   BANK0   BANK1   BANK3   BANK2
  6457 ;;      Params:         0       0       0       0       0
  6458 ;;      Locals:         1       0       0       0       0
  6459 ;;      Temps:          1       0       0       0       0
  6460 ;;      Totals:         2       0       0       0       0
  6461 ;;Total ram usage:        2 bytes
  6462 ;; Hardware stack levels used: 1
  6463 ;; Hardware stack levels required when called: 1
  6464 ;; This function calls:
  6465 ;;		_LCD_Enable
  6466 ;; This function is called by:
  6467 ;;		_LCD_Print
  6468 ;; This function uses a non-reentrant model
  6469 ;;
  6470                           
  6471  0927                     _Lcd_DataWrite:	
  6472                           ;psect for function _Lcd_DataWrite
  6473                           
  6474                           
  6475                           ;incstack = 0
  6476                           ; Regs used in _Lcd_DataWrite: [wreg+status,2+status,0+pclath+cstack]
  6477                           ;Lcd_DataWrite@dat stored from wreg
  6478  0927  00F3               	movwf	Lcd_DataWrite@dat
  6479  0928                     l1828:
  6480                           
  6481                           ;LCD.c: 66: void Lcd_DataWrite(char dat);LCD.c: 67: {;LCD.c: 68:     PORTD = (dat & 0xF0
      +                          );
  6482  0928  0873               	movf	Lcd_DataWrite@dat,w
  6483  0929  39F0               	andlw	240
  6484  092A  1283               	bcf	3,5	;RP0=0, select bank0
  6485  092B  1303               	bcf	3,6	;RP1=0, select bank0
  6486  092C  0088               	movwf	8	;volatile
  6487  092D                     l1830:
  6488                           
  6489                           ;LCD.c: 69:     PORTD |= (1<<0);
  6490  092D  1408               	bsf	8,0	;volatile
  6491  092E                     l1832:
  6492                           
  6493                           ;LCD.c: 70:     PORTD &= ~(1<<1);
  6494  092E  30FD               	movlw	253
  6495  092F  00F2               	movwf	??_Lcd_DataWrite
  6496  0930  0872               	movf	??_Lcd_DataWrite,w
  6497  0931  0588               	andwf	8,f	;volatile
  6498  0932                     l1834:
  6499                           
  6500                           ;LCD.c: 71:     LCD_Enable();
  6501  0932  160A  118A  27E4  120A  158A  	fcall	_LCD_Enable
  6502  0937                     l1836:
  6503                           
  6504                           ;LCD.c: 73:     PORTD = ((dat<<4) & 0xF0);
  6505  0937  0873               	movf	Lcd_DataWrite@dat,w
  6506  0938  00F2               	movwf	??_Lcd_DataWrite
  6507  0939  3003               	movlw	3
  6508  093A                     u1905:
  6509  093A  1003               	clrc
  6510  093B  0DF2               	rlf	??_Lcd_DataWrite,f
  6511  093C  3EFF               	addlw	-1
  6512  093D  1D03               	skipz
  6513  093E  293A               	goto	u1905
  6514  093F  1003               	clrc
  6515  0940  0D72               	rlf	??_Lcd_DataWrite,w
  6516  0941  39F0               	andlw	240
  6517  0942  1283               	bcf	3,5	;RP0=0, select bank0
  6518  0943  1303               	bcf	3,6	;RP1=0, select bank0
  6519  0944  0088               	movwf	8	;volatile
  6520  0945                     l1838:
  6521                           
  6522                           ;LCD.c: 74:     PORTD |= (1<<0);
  6523  0945  1408               	bsf	8,0	;volatile
  6524  0946                     l1840:
  6525                           
  6526                           ;LCD.c: 75:     PORTD &= ~(1<<1);
  6527  0946  30FD               	movlw	253
  6528  0947  00F2               	movwf	??_Lcd_DataWrite
  6529  0948  0872               	movf	??_Lcd_DataWrite,w
  6530  0949  0588               	andwf	8,f	;volatile
  6531  094A                     l1842:
  6532                           
  6533                           ;LCD.c: 76:     LCD_Enable();
  6534  094A  160A  118A  27E4  120A  158A  	fcall	_LCD_Enable
  6535  094F                     l85:
  6536  094F  0008               	return
  6537  0950                     __end_of_Lcd_DataWrite:
  6538                           
  6539                           	psect	text20
  6540  0A29                     __ptext20:	
  6541 ;; *************** function _LCD_Init *****************
  6542 ;; Defined at:
  6543 ;;		line 27 in file "LCD.c"
  6544 ;; Parameters:    Size  Location     Type
  6545 ;;		None
  6546 ;; Auto vars:     Size  Location     Type
  6547 ;;  Commands        7    0[BANK0 ] unsigned char [7]
  6548 ;;  i               2    7[BANK0 ] int 
  6549 ;; Return value:  Size  Location     Type
  6550 ;;                  1    wreg      void 
  6551 ;; Registers used:
  6552 ;;		wreg, fsr0l, fsr0h, status,2, status,0, btemp+1, pclath, cstack
  6553 ;; Tracked objects:
  6554 ;;		On entry : 0/0
  6555 ;;		On exit  : 0/0
  6556 ;;		Unchanged: 0/0
  6557 ;; Data sizes:     COMMON   BANK0   BANK1   BANK3   BANK2
  6558 ;;      Params:         0       0       0       0       0
  6559 ;;      Locals:         0       9       0       0       0
  6560 ;;      Temps:          4       0       0       0       0
  6561 ;;      Totals:         4       9       0       0       0
  6562 ;;Total ram usage:       13 bytes
  6563 ;; Hardware stack levels used: 1
  6564 ;; Hardware stack levels required when called: 2
  6565 ;; This function calls:
  6566 ;;		_Lcd_CmdWrite
  6567 ;; This function is called by:
  6568 ;;		_main
  6569 ;; This function uses a non-reentrant model
  6570 ;;
  6571                           
  6572  0A29                     _LCD_Init:	
  6573                           ;psect for function _LCD_Init
  6574                           
  6575  0A29                     l1958:	
  6576                           ;incstack = 0
  6577                           ; Regs used in _LCD_Init: [wreg-fsr0h+status,2+status,0+btemp+1+pclath+cstack]
  6578                           
  6579                           
  6580                           ;LCD.c: 29:     char Commands[7] = {0x02,0x28,0x0E,0x01,0x80,0x80};
  6581  0A29  3020               	movlw	LCD_Init@Commands& (0+255)
  6582  0A2A  0084               	movwf	4
  6583  0A2B  305E               	movlw	low LCD_Init@F1012
  6584  0A2C  00F4               	movwf	??_LCD_Init
  6585  0A2D  0804               	movf	4,w
  6586  0A2E  00F5               	movwf	??_LCD_Init+1
  6587  0A2F  3007               	movlw	7
  6588  0A30  00F6               	movwf	??_LCD_Init+2
  6589  0A31                     u2170:
  6590  0A31  0874               	movf	??_LCD_Init,w
  6591  0A32  0084               	movwf	4
  6592  0A33  1383               	bcf	3,7	;select IRP bank0
  6593  0A34  0800               	movf	0,w
  6594  0A35  00F7               	movwf	??_LCD_Init+3
  6595  0A36  0AF4               	incf	??_LCD_Init,f
  6596  0A37  0875               	movf	??_LCD_Init+1,w
  6597  0A38  0084               	movwf	4
  6598  0A39  0877               	movf	??_LCD_Init+3,w
  6599  0A3A  0080               	movwf	0
  6600  0A3B  0AF5               	incf	??_LCD_Init+1,f
  6601  0A3C  0BF6               	decfsz	??_LCD_Init+2,f
  6602  0A3D  2A31               	goto	u2170
  6603  0A3E                     l1960:
  6604  0A3E                     l1962:
  6605                           
  6606                           ;LCD.c: 33:     TRISD = 0x00;
  6607  0A3E  1683               	bsf	3,5	;RP0=1, select bank1
  6608  0A3F  1303               	bcf	3,6	;RP1=0, select bank1
  6609  0A40  0188               	clrf	8	;volatile
  6610  0A41                     l1964:
  6611                           
  6612                           ;LCD.c: 35:     for(i=0;i<7;i++)
  6613  0A41  1283               	bcf	3,5	;RP0=0, select bank0
  6614  0A42  1303               	bcf	3,6	;RP1=0, select bank0
  6615  0A43  01A7               	clrf	LCD_Init@i
  6616  0A44  01A8               	clrf	LCD_Init@i+1
  6617  0A45                     l1970:
  6618                           
  6619                           ;LCD.c: 36:     {;LCD.c: 37:         Lcd_CmdWrite(Commands[i]);
  6620  0A45  1283               	bcf	3,5	;RP0=0, select bank0
  6621  0A46  1303               	bcf	3,6	;RP1=0, select bank0
  6622  0A47  0827               	movf	LCD_Init@i,w
  6623  0A48  3E20               	addlw	(low (LCD_Init@Commands| 0))& (0+255)
  6624  0A49  0084               	movwf	4
  6625  0A4A  1383               	bcf	3,7	;select IRP bank0
  6626  0A4B  0800               	movf	0,w
  6627  0A4C  120A  158A  2150  120A  158A  	fcall	_Lcd_CmdWrite
  6628  0A51                     l1972:
  6629                           
  6630                           ;LCD.c: 44:     }
  6631  0A51  3001               	movlw	1
  6632  0A52  1283               	bcf	3,5	;RP0=0, select bank0
  6633  0A53  1303               	bcf	3,6	;RP1=0, select bank0
  6634  0A54  07A7               	addwf	LCD_Init@i,f
  6635  0A55  1803               	skipnc
  6636  0A56  0AA8               	incf	LCD_Init@i+1,f
  6637  0A57  3000               	movlw	0
  6638  0A58  07A8               	addwf	LCD_Init@i+1,f
  6639  0A59                     l1974:
  6640  0A59  0828               	movf	LCD_Init@i+1,w
  6641  0A5A  3A80               	xorlw	128
  6642  0A5B  00FF               	movwf	btemp+1
  6643  0A5C  3080               	movlw	128
  6644  0A5D  027F               	subwf	btemp+1,w
  6645  0A5E  1D03               	skipz
  6646  0A5F  2A62               	goto	u2185
  6647  0A60  3007               	movlw	7
  6648  0A61  0227               	subwf	LCD_Init@i,w
  6649  0A62                     u2185:
  6650  0A62  1C03               	skipc
  6651  0A63  2A65               	goto	u2181
  6652  0A64  2A66               	goto	u2180
  6653  0A65                     u2181:
  6654  0A65  2A45               	goto	l1970
  6655  0A66                     u2180:
  6656  0A66                     l79:
  6657  0A66  0008               	return
  6658  0A67                     __end_of_LCD_Init:
  6659                           
  6660                           	psect	text21
  6661  17CE                     __ptext21:	
  6662 ;; *************** function _LCD_GoToXY *****************
  6663 ;; Defined at:
  6664 ;;		line 79 in file "LCD.c"
  6665 ;; Parameters:    Size  Location     Type
  6666 ;;  X               1    wreg     unsigned char 
  6667 ;;  Y               1    4[COMMON] unsigned char 
  6668 ;; Auto vars:     Size  Location     Type
  6669 ;;  X               1    5[COMMON] unsigned char 
  6670 ;; Return value:  Size  Location     Type
  6671 ;;                  1    wreg      void 
  6672 ;; Registers used:
  6673 ;;		wreg, status,2, status,0, pclath, cstack
  6674 ;; Tracked objects:
  6675 ;;		On entry : 0/0
  6676 ;;		On exit  : 0/0
  6677 ;;		Unchanged: 0/0
  6678 ;; Data sizes:     COMMON   BANK0   BANK1   BANK3   BANK2
  6679 ;;      Params:         1       0       0       0       0
  6680 ;;      Locals:         1       0       0       0       0
  6681 ;;      Temps:          0       0       0       0       0
  6682 ;;      Totals:         2       0       0       0       0
  6683 ;;Total ram usage:        2 bytes
  6684 ;; Hardware stack levels used: 1
  6685 ;; Hardware stack levels required when called: 2
  6686 ;; This function calls:
  6687 ;;		_Lcd_CmdWrite
  6688 ;; This function is called by:
  6689 ;;		_main
  6690 ;; This function uses a non-reentrant model
  6691 ;;
  6692                           
  6693  17CE                     _LCD_GoToXY:	
  6694                           ;psect for function _LCD_GoToXY
  6695                           
  6696                           
  6697                           ;incstack = 0
  6698                           ; Regs used in _LCD_GoToXY: [wreg+status,2+status,0+pclath+cstack]
  6699                           ;LCD_GoToXY@X stored from wreg
  6700  17CE  00F5               	movwf	LCD_GoToXY@X
  6701  17CF                     l2024:
  6702                           
  6703                           ;LCD.c: 79: void LCD_GoToXY(char X,char Y);LCD.c: 80: {;LCD.c: 81:     if(Y == 0)
  6704  17CF  0874               	movf	LCD_GoToXY@Y,w
  6705  17D0  1D03               	btfss	3,2
  6706  17D1  2FD3               	goto	u2221
  6707  17D2  2FD4               	goto	u2220
  6708  17D3                     u2221:
  6709  17D3  2FDC               	goto	l2028
  6710  17D4                     u2220:
  6711  17D4                     l2026:
  6712                           
  6713                           ;LCD.c: 82:     {;LCD.c: 83:         Lcd_CmdWrite(0x80 + X);
  6714  17D4  0875               	movf	LCD_GoToXY@X,w
  6715  17D5  3E80               	addlw	128
  6716  17D6  120A  158A  2150  160A  118A  	fcall	_Lcd_CmdWrite
  6717                           
  6718                           ;LCD.c: 84:     }
  6719  17DB  2FE3               	goto	l90
  6720  17DC                     l2028:
  6721                           
  6722                           ;LCD.c: 86:     {;LCD.c: 87:         Lcd_CmdWrite(0xC0 + X);
  6723  17DC  0875               	movf	LCD_GoToXY@X,w
  6724  17DD  3EC0               	addlw	192
  6725  17DE  120A  158A  2150  160A  118A  	fcall	_Lcd_CmdWrite
  6726  17E3                     l90:
  6727  17E3  0008               	return
  6728  17E4                     __end_of_LCD_GoToXY:
  6729                           
  6730                           	psect	text22
  6731  17A2                     __ptext22:	
  6732 ;; *************** function _LCD_Clear *****************
  6733 ;; Defined at:
  6734 ;;		line 91 in file "LCD.c"
  6735 ;; Parameters:    Size  Location     Type
  6736 ;;		None
  6737 ;; Auto vars:     Size  Location     Type
  6738 ;;		None
  6739 ;; Return value:  Size  Location     Type
  6740 ;;                  1    wreg      void 
  6741 ;; Registers used:
  6742 ;;		wreg, status,2, status,0, pclath, cstack
  6743 ;; Tracked objects:
  6744 ;;		On entry : 0/0
  6745 ;;		On exit  : 0/0
  6746 ;;		Unchanged: 0/0
  6747 ;; Data sizes:     COMMON   BANK0   BANK1   BANK3   BANK2
  6748 ;;      Params:         0       0       0       0       0
  6749 ;;      Locals:         0       0       0       0       0
  6750 ;;      Temps:          0       0       0       0       0
  6751 ;;      Totals:         0       0       0       0       0
  6752 ;;Total ram usage:        0 bytes
  6753 ;; Hardware stack levels used: 1
  6754 ;; Hardware stack levels required when called: 2
  6755 ;; This function calls:
  6756 ;;		_Lcd_CmdWrite
  6757 ;; This function is called by:
  6758 ;;		_main
  6759 ;; This function uses a non-reentrant model
  6760 ;;
  6761                           
  6762  17A2                     _LCD_Clear:	
  6763                           ;psect for function _LCD_Clear
  6764                           
  6765  17A2                     l2050:	
  6766                           ;incstack = 0
  6767                           ; Regs used in _LCD_Clear: [wreg+status,2+status,0+pclath+cstack]
  6768                           
  6769                           
  6770                           ;LCD.c: 93:     Lcd_CmdWrite(0x01);
  6771  17A2  3001               	movlw	1
  6772  17A3  120A  158A  2150  160A  118A  	fcall	_Lcd_CmdWrite
  6773  17A8                     l93:
  6774  17A8  0008               	return
  6775  17A9                     __end_of_LCD_Clear:
  6776                           
  6777                           	psect	text23
  6778  0950                     __ptext23:	
  6779 ;; *************** function _Lcd_CmdWrite *****************
  6780 ;; Defined at:
  6781 ;;		line 49 in file "LCD.c"
  6782 ;; Parameters:    Size  Location     Type
  6783 ;;  cmd             1    wreg     unsigned char 
  6784 ;; Auto vars:     Size  Location     Type
  6785 ;;  cmd             1    3[COMMON] unsigned char 
  6786 ;; Return value:  Size  Location     Type
  6787 ;;                  1    wreg      void 
  6788 ;; Registers used:
  6789 ;;		wreg, status,2, status,0, pclath, cstack
  6790 ;; Tracked objects:
  6791 ;;		On entry : 0/0
  6792 ;;		On exit  : 0/0
  6793 ;;		Unchanged: 0/0
  6794 ;; Data sizes:     COMMON   BANK0   BANK1   BANK3   BANK2
  6795 ;;      Params:         0       0       0       0       0
  6796 ;;      Locals:         1       0       0       0       0
  6797 ;;      Temps:          1       0       0       0       0
  6798 ;;      Totals:         2       0       0       0       0
  6799 ;;Total ram usage:        2 bytes
  6800 ;; Hardware stack levels used: 1
  6801 ;; Hardware stack levels required when called: 1
  6802 ;; This function calls:
  6803 ;;		_LCD_Enable
  6804 ;; This function is called by:
  6805 ;;		_LCD_Init
  6806 ;;		_LCD_GoToXY
  6807 ;;		_LCD_Clear
  6808 ;; This function uses a non-reentrant model
  6809 ;;
  6810                           
  6811  0950                     _Lcd_CmdWrite:	
  6812                           ;psect for function _Lcd_CmdWrite
  6813                           
  6814                           
  6815                           ;incstack = 0
  6816                           ; Regs used in _Lcd_CmdWrite: [wreg+status,2+status,0+pclath+cstack]
  6817                           ;Lcd_CmdWrite@cmd stored from wreg
  6818  0950  00F3               	movwf	Lcd_CmdWrite@cmd
  6819  0951                     l1812:
  6820                           
  6821                           ;LCD.c: 49: void Lcd_CmdWrite(char cmd);LCD.c: 50: {;LCD.c: 51:     PORTD = (cmd & 0xF0)
      +                          ;
  6822  0951  0873               	movf	Lcd_CmdWrite@cmd,w
  6823  0952  39F0               	andlw	240
  6824  0953  1283               	bcf	3,5	;RP0=0, select bank0
  6825  0954  1303               	bcf	3,6	;RP1=0, select bank0
  6826  0955  0088               	movwf	8	;volatile
  6827  0956                     l1814:
  6828                           
  6829                           ;LCD.c: 52:     PORTD &= ~(1<<0);
  6830  0956  30FE               	movlw	254
  6831  0957  00F2               	movwf	??_Lcd_CmdWrite
  6832  0958  0872               	movf	??_Lcd_CmdWrite,w
  6833  0959  0588               	andwf	8,f	;volatile
  6834  095A                     l1816:
  6835                           
  6836                           ;LCD.c: 53:     PORTD &= ~(1<<1);
  6837  095A  30FD               	movlw	253
  6838  095B  00F2               	movwf	??_Lcd_CmdWrite
  6839  095C  0872               	movf	??_Lcd_CmdWrite,w
  6840  095D  0588               	andwf	8,f	;volatile
  6841  095E                     l1818:
  6842                           
  6843                           ;LCD.c: 54:     LCD_Enable();
  6844  095E  160A  118A  27E4  120A  158A  	fcall	_LCD_Enable
  6845  0963                     l1820:
  6846                           
  6847                           ;LCD.c: 56:     PORTD = ((cmd<<4) & 0xF0);
  6848  0963  0873               	movf	Lcd_CmdWrite@cmd,w
  6849  0964  00F2               	movwf	??_Lcd_CmdWrite
  6850  0965  3003               	movlw	3
  6851  0966                     u1895:
  6852  0966  1003               	clrc
  6853  0967  0DF2               	rlf	??_Lcd_CmdWrite,f
  6854  0968  3EFF               	addlw	-1
  6855  0969  1D03               	skipz
  6856  096A  2966               	goto	u1895
  6857  096B  1003               	clrc
  6858  096C  0D72               	rlf	??_Lcd_CmdWrite,w
  6859  096D  39F0               	andlw	240
  6860  096E  1283               	bcf	3,5	;RP0=0, select bank0
  6861  096F  1303               	bcf	3,6	;RP1=0, select bank0
  6862  0970  0088               	movwf	8	;volatile
  6863  0971                     l1822:
  6864                           
  6865                           ;LCD.c: 57:     PORTD &= ~(1<<0);
  6866  0971  30FE               	movlw	254
  6867  0972  00F2               	movwf	??_Lcd_CmdWrite
  6868  0973  0872               	movf	??_Lcd_CmdWrite,w
  6869  0974  0588               	andwf	8,f	;volatile
  6870  0975                     l1824:
  6871                           
  6872                           ;LCD.c: 58:     PORTD &= ~(1<<1);
  6873  0975  30FD               	movlw	253
  6874  0976  00F2               	movwf	??_Lcd_CmdWrite
  6875  0977  0872               	movf	??_Lcd_CmdWrite,w
  6876  0978  0588               	andwf	8,f	;volatile
  6877  0979                     l1826:
  6878                           
  6879                           ;LCD.c: 59:     LCD_Enable();
  6880  0979  160A  118A  27E4  120A  158A  	fcall	_LCD_Enable
  6881  097E                     l82:
  6882  097E  0008               	return
  6883  097F                     __end_of_Lcd_CmdWrite:
  6884                           
  6885                           	psect	text24
  6886  17E4                     __ptext24:	
  6887 ;; *************** function _LCD_Enable *****************
  6888 ;; Defined at:
  6889 ;;		line 19 in file "LCD.c"
  6890 ;; Parameters:    Size  Location     Type
  6891 ;;		None
  6892 ;; Auto vars:     Size  Location     Type
  6893 ;;		None
  6894 ;; Return value:  Size  Location     Type
  6895 ;;                  1    wreg      void 
  6896 ;; Registers used:
  6897 ;;		wreg, status,2, status,0
  6898 ;; Tracked objects:
  6899 ;;		On entry : 0/0
  6900 ;;		On exit  : 0/0
  6901 ;;		Unchanged: 0/0
  6902 ;; Data sizes:     COMMON   BANK0   BANK1   BANK3   BANK2
  6903 ;;      Params:         0       0       0       0       0
  6904 ;;      Locals:         0       0       0       0       0
  6905 ;;      Temps:          2       0       0       0       0
  6906 ;;      Totals:         2       0       0       0       0
  6907 ;;Total ram usage:        2 bytes
  6908 ;; Hardware stack levels used: 1
  6909 ;; This function calls:
  6910 ;;		Nothing
  6911 ;; This function is called by:
  6912 ;;		_Lcd_CmdWrite
  6913 ;;		_Lcd_DataWrite
  6914 ;; This function uses a non-reentrant model
  6915 ;;
  6916                           
  6917  17E4                     _LCD_Enable:	
  6918                           ;psect for function _LCD_Enable
  6919                           
  6920  17E4                     l1804:	
  6921                           ;incstack = 0
  6922                           ; Regs used in _LCD_Enable: [wreg+status,2+status,0]
  6923                           
  6924                           
  6925                           ;LCD.c: 21:     PORTD |= (1<<2);
  6926  17E4  1283               	bcf	3,5	;RP0=0, select bank0
  6927  17E5  1303               	bcf	3,6	;RP1=0, select bank0
  6928  17E6  1508               	bsf	8,2	;volatile
  6929  17E7                     l1806:
  6930                           
  6931                           ;LCD.c: 22:     _delay((unsigned long)((2)*(8000000UL/4000.0)));
  6932  17E7  3006               	movlw	6
  6933  17E8  00F1               	movwf	??_LCD_Enable+1
  6934  17E9  3030               	movlw	48
  6935  17EA  00F0               	movwf	??_LCD_Enable
  6936  17EB                     u3767:
  6937  17EB  0BF0               	decfsz	??_LCD_Enable,f
  6938  17EC  2FEB               	goto	u3767
  6939  17ED  0BF1               	decfsz	??_LCD_Enable+1,f
  6940  17EE  2FEB               	goto	u3767
  6941  17EF  0000               	nop
  6942  17F0                     l1808:
  6943                           
  6944                           ;LCD.c: 23:     PORTD &= ~(1<<2);
  6945  17F0  30FB               	movlw	251
  6946  17F1  00F0               	movwf	??_LCD_Enable
  6947  17F2  0870               	movf	??_LCD_Enable,w
  6948  17F3  1283               	bcf	3,5	;RP0=0, select bank0
  6949  17F4  1303               	bcf	3,6	;RP1=0, select bank0
  6950  17F5  0588               	andwf	8,f	;volatile
  6951  17F6                     l1810:
  6952                           
  6953                           ;LCD.c: 24:     _delay((unsigned long)((2)*(8000000UL/4000.0)));
  6954  17F6  3006               	movlw	6
  6955  17F7  00F1               	movwf	??_LCD_Enable+1
  6956  17F8  3030               	movlw	48
  6957  17F9  00F0               	movwf	??_LCD_Enable
  6958  17FA                     u3777:
  6959  17FA  0BF0               	decfsz	??_LCD_Enable,f
  6960  17FB  2FFA               	goto	u3777
  6961  17FC  0BF1               	decfsz	??_LCD_Enable+1,f
  6962  17FD  2FFA               	goto	u3777
  6963  17FE  0000               	nop
  6964  17FF                     l72:
  6965  17FF  0008               	return
  6966  1800                     __end_of_LCD_Enable:
  6967                           
  6968                           	psect	text25
  6969  085F                     __ptext25:	
  6970 ;; *************** function _ADC_Init *****************
  6971 ;; Defined at:
  6972 ;;		line 3 in file "ADC.c"
  6973 ;; Parameters:    Size  Location     Type
  6974 ;;		None
  6975 ;; Auto vars:     Size  Location     Type
  6976 ;;		None
  6977 ;; Return value:  Size  Location     Type
  6978 ;;                  1    wreg      void 
  6979 ;; Registers used:
  6980 ;;		wreg, status,2, status,0
  6981 ;; Tracked objects:
  6982 ;;		On entry : 0/0
  6983 ;;		On exit  : 0/0
  6984 ;;		Unchanged: 0/0
  6985 ;; Data sizes:     COMMON   BANK0   BANK1   BANK3   BANK2
  6986 ;;      Params:         0       0       0       0       0
  6987 ;;      Locals:         0       0       0       0       0
  6988 ;;      Temps:          1       0       0       0       0
  6989 ;;      Totals:         1       0       0       0       0
  6990 ;;Total ram usage:        1 bytes
  6991 ;; Hardware stack levels used: 1
  6992 ;; This function calls:
  6993 ;;		Nothing
  6994 ;; This function is called by:
  6995 ;;		_main
  6996 ;; This function uses a non-reentrant model
  6997 ;;
  6998                           
  6999  085F                     _ADC_Init:	
  7000                           ;psect for function _ADC_Init
  7001                           
  7002  085F                     l1952:	
  7003                           ;incstack = 0
  7004                           ; Regs used in _ADC_Init: [wreg+status,2+status,0]
  7005                           
  7006                           
  7007                           ;ADC.c: 5:     ADCON0=0x00;
  7008  085F  1283               	bcf	3,5	;RP0=0, select bank0
  7009  0860  1303               	bcf	3,6	;RP1=0, select bank0
  7010  0861  019F               	clrf	31	;volatile
  7011  0862                     l1954:
  7012                           
  7013                           ;ADC.c: 6:     ADCON1=0x80;
  7014  0862  3080               	movlw	128
  7015  0863  1683               	bsf	3,5	;RP0=1, select bank1
  7016  0864  1303               	bcf	3,6	;RP1=0, select bank1
  7017  0865  009F               	movwf	31	;volatile
  7018  0866                     l1956:
  7019                           
  7020                           ;ADC.c: 8:     TRISA |= (1<<0)|(1<<1);
  7021  0866  3003               	movlw	3
  7022  0867  00F0               	movwf	??_ADC_Init
  7023  0868  0870               	movf	??_ADC_Init,w
  7024  0869  0485               	iorwf	5,f	;volatile
  7025  086A                     l196:
  7026  086A  0008               	return
  7027  086B                     __end_of_ADC_Init:
  7028                           
  7029                           	psect	text26
  7030  086B                     __ptext26:	
  7031 ;; *************** function _ADC_GetAdcValue *****************
  7032 ;; Defined at:
  7033 ;;		line 12 in file "ADC.c"
  7034 ;; Parameters:    Size  Location     Type
  7035 ;;  var_adcChann    1    wreg     unsigned char 
  7036 ;; Auto vars:     Size  Location     Type
  7037 ;;  var_adcChann    1    3[COMMON] unsigned char 
  7038 ;; Return value:  Size  Location     Type
  7039 ;;                  2    0[COMMON] unsigned int 
  7040 ;; Registers used:
  7041 ;;		wreg, status,2, status,0
  7042 ;; Tracked objects:
  7043 ;;		On entry : 0/0
  7044 ;;		On exit  : 0/0
  7045 ;;		Unchanged: 0/0
  7046 ;; Data sizes:     COMMON   BANK0   BANK1   BANK3   BANK2
  7047 ;;      Params:         2       0       0       0       0
  7048 ;;      Locals:         1       0       0       0       0
  7049 ;;      Temps:          1       0       0       0       0
  7050 ;;      Totals:         4       0       0       0       0
  7051 ;;Total ram usage:        4 bytes
  7052 ;; Hardware stack levels used: 1
  7053 ;; This function calls:
  7054 ;;		Nothing
  7055 ;; This function is called by:
  7056 ;;		_main
  7057 ;; This function uses a non-reentrant model
  7058 ;;
  7059                           
  7060  086B                     _ADC_GetAdcValue:	
  7061                           ;psect for function _ADC_GetAdcValue
  7062                           
  7063                           
  7064                           ;incstack = 0
  7065                           ; Regs used in _ADC_GetAdcValue: [wreg+status,2+status,0]
  7066                           ;ADC_GetAdcValue@var_adcChannel_u8 stored from wreg
  7067  086B  00F3               	movwf	ADC_GetAdcValue@var_adcChannel_u8
  7068  086C                     l2038:
  7069                           
  7070                           ;ADC.c: 12: unsigned int ADC_GetAdcValue(unsigned char var_adcChannel_u8);ADC.c: 13: {;A
      +                          DC.c: 14:     ADCON0= (var_adcChannel_u8<<3);
  7071  086C  0873               	movf	ADC_GetAdcValue@var_adcChannel_u8,w
  7072  086D  00F2               	movwf	??_ADC_GetAdcValue
  7073  086E  3002               	movlw	2
  7074  086F                     u2245:
  7075  086F  1003               	clrc
  7076  0870  0DF2               	rlf	??_ADC_GetAdcValue,f
  7077  0871  3EFF               	addlw	-1
  7078  0872  1D03               	skipz
  7079  0873  286F               	goto	u2245
  7080  0874  1003               	clrc
  7081  0875  0D72               	rlf	??_ADC_GetAdcValue,w
  7082  0876  1283               	bcf	3,5	;RP0=0, select bank0
  7083  0877  1303               	bcf	3,6	;RP1=0, select bank0
  7084  0878  009F               	movwf	31	;volatile
  7085  0879                     l2040:
  7086                           
  7087                           ;ADC.c: 15:  ADON = 1;
  7088  0879  141F               	bsf	31,0	;volatile
  7089  087A                     l2042:
  7090                           
  7091                           ;ADC.c: 16:     _delay((unsigned long)((10)*(8000000UL/4000000.0)));
  7092  087A  3006               	movlw	6
  7093  087B  00F2               	movwf	??_ADC_GetAdcValue
  7094  087C                     u3787:
  7095  087C  0BF2               	decfsz	??_ADC_GetAdcValue,f
  7096  087D  287C               	goto	u3787
  7097  087E  0000               	nop
  7098  087F                     l2044:
  7099                           
  7100                           ;ADC.c: 17:     GO = 1;
  7101  087F  1283               	bcf	3,5	;RP0=0, select bank0
  7102  0880  1303               	bcf	3,6	;RP1=0, select bank0
  7103  0881  151F               	bsf	31,2	;volatile
  7104  0882                     l199:	
  7105                           ;ADC.c: 18:     while(GO_DONE == 1);
  7106                           
  7107  0882  191F               	btfsc	31,2	;volatile
  7108  0883  2885               	goto	u2251
  7109  0884  2886               	goto	u2250
  7110  0885                     u2251:
  7111  0885  2882               	goto	l199
  7112  0886                     u2250:
  7113  0886                     l2046:
  7114                           
  7115                           ;ADC.c: 21:     return((unsigned int)(ADRESH<<8) + (unsigned int)ADRESL);
  7116  0886  081E               	movf	30,w	;volatile
  7117  0887  00F1               	movwf	?_ADC_GetAdcValue+1
  7118  0888  1683               	bsf	3,5	;RP0=1, select bank1
  7119  0889  1303               	bcf	3,6	;RP1=0, select bank1
  7120  088A  081E               	movf	30,w	;volatile
  7121  088B  00F0               	movwf	?_ADC_GetAdcValue
  7122  088C                     l202:
  7123  088C  0008               	return
  7124  088D                     __end_of_ADC_GetAdcValue:
  7125  007E                     btemp	set	126	;btemp
  7126  007E                     wtemp0	set	126
  7127                           
  7128                           	psect	config
  7129                           
  7130                           ;Config register CONFIG @ 0x2007
  7131                           ;	Oscillator Selection bits
  7132                           ;	FOSC = HS, HS oscillator
  7133                           ;	Watchdog Timer Enable bit
  7134                           ;	WDTE = OFF, WDT disabled
  7135                           ;	Power-up Timer Enable bit
  7136                           ;	PWRTE = OFF, PWRT disabled
  7137                           ;	Brown-out Reset Enable bit
  7138                           ;	BOREN = OFF, BOR disabled
  7139                           ;	Low-Voltage (Single-Supply) In-Circuit Serial Programming Enable bit
  7140                           ;	LVP = OFF, RB3 is digital I/O, HV on MCLR must be used for programming
  7141                           ;	Data EEPROM Memory Code Protection bit
  7142                           ;	CPD = OFF, Data EEPROM code protection off
  7143                           ;	Flash Program Memory Write Enable bits
  7144                           ;	WRT = OFF, Write protection off; all program memory may be written to by EECON control
  7145                           ;	In-Circuit Debugger Mode bit
  7146                           ;	DEBUG = 0x1, unprogrammed default
  7147                           ;	Flash Program Memory Code Protection bit
  7148                           ;	CP = OFF, Code protection off
  7149  2007                     	org	8199
  7150  2007  3F3A               	dw	16186

Data Sizes:
    Strings     77
    Constant    0
    Data        7
    BSS         0
    Persistent  0
    Stack       0

Auto Spaces:
    Space          Size  Autos    Used
    COMMON           14     14      14
    BANK0            80     62      69
    BANK1            80     21      21
    BANK3            96      0       0
    BANK2            96      0       0

Pointer List with Targets:

    UART_SendTxt@Str	PTR unsigned char  size(2) Largest target is 19
		 -> STR_10(CODE[4]), STR_9(CODE[10]), STR_6(CODE[4]), STR_5(CODE[14]), 
		 -> main@Str(BANK1[10]), STR_1(CODE[19]), 

    LCD_Print@Str	PTR unsigned char  size(2) Largest target is 17
		 -> STR_8(CODE[2]), STR_7(CODE[11]), STR_4(CODE[2]), STR_3(CODE[14]), 
		 -> main@Str(BANK1[10]), STR_2(CODE[17]), 

    PrintFloat@Str	PTR unsigned char  size(1) Largest target is 10
		 -> main@Str(BANK1[10]), 


Critical Paths under _main in COMMON

    ___xxtofl->_ADC_GetAdcValue
    ___flmul->___xxtofl
    ___flge->___fladd
    ___fldiv->___xxtofl
    _UART_SendTxt->_UART_TxChar
    _UART_Init->___lldiv
    _PrintFloat->___fltol
    _LCD_Print->_Lcd_DataWrite
    _Lcd_DataWrite->_LCD_Enable
    _LCD_Init->_Lcd_CmdWrite
    _LCD_GoToXY->_Lcd_CmdWrite
    _LCD_Clear->_Lcd_CmdWrite
    _Lcd_CmdWrite->_LCD_Enable

Critical Paths under _main in BANK0

    _main->___fldiv
    ___flmul->___xxtofl
    ___flge->___fladd
    ___fldiv->___flmul

Critical Paths under _main in BANK1

    None.

Critical Paths under _main in BANK3

    None.

Critical Paths under _main in BANK2

    None.

Call Graph Tables:

 ---------------------------------------------------------------------------------
 (Depth) Function   	        Calls       Base Space   Used Autos Params    Refs
 ---------------------------------------------------------------------------------
 (0) _main                                                25    25      0   12021
                                             58 BANK0      4     4      0
                                              0 BANK1     21    21      0
                    _ADC_GetAdcValue
                           _ADC_Init
                          _LCD_Clear
                         _LCD_GoToXY
                           _LCD_Init
                          _LCD_Print
                           _PWM_Init
                   _PWM_SetDutyCycle
                          _PWM_Start
                         _PrintFloat
                          _UART_Init
                       _UART_SendTxt
                            ___fladd
                            ___fldiv
                             ___flge
                            ___flmul
                            ___fltol
                           ___xxtofl
 ---------------------------------------------------------------------------------
 (1) ___xxtofl                                            14    10      4     474
                                              4 COMMON     8     4      4
                                              0 BANK0      6     6      0
                    _ADC_GetAdcValue (ARG)
 ---------------------------------------------------------------------------------
 (1) ___fltol                                             11     7      4     381
                                              0 COMMON    11     7      4
 ---------------------------------------------------------------------------------
 (1) ___flmul                                             26    18      8    2569
                                              6 BANK0     26    18      8
                    _ADC_GetAdcValue (ARG)
                          __Umul8_16
                           ___xxtofl (ARG)
 ---------------------------------------------------------------------------------
 (2) __Umul8_16                                            9     7      2     799
                                              0 COMMON     9     7      2
 ---------------------------------------------------------------------------------
 (1) ___flge                                              12     4      8     486
                                              8 BANK0     12     4      8
                            ___fladd (ARG)
 ---------------------------------------------------------------------------------
 (1) ___fldiv                                             26    18      8    1425
                                             32 BANK0     26    18      8
                    _ADC_GetAdcValue (ARG)
                            ___flmul (ARG)
                           ___xxtofl (ARG)
 ---------------------------------------------------------------------------------
 (1) ___fladd                                             20    12      8    2414
                                              0 COMMON    12     4      8
                                              0 BANK0      8     8      0
 ---------------------------------------------------------------------------------
 (1) _UART_SendTxt                                         2     0      2     599
                                              1 COMMON     2     0      2
                        _UART_TxChar
 ---------------------------------------------------------------------------------
 (2) _UART_TxChar                                          1     1      0      22
                                              0 COMMON     1     1      0
 ---------------------------------------------------------------------------------
 (1) _UART_Init                                            6     4      2     412
                                              0 BANK0      6     4      2
                            ___lldiv
 ---------------------------------------------------------------------------------
 (2) ___lldiv                                             14     6      8     314
                                              0 COMMON    14     6      8
 ---------------------------------------------------------------------------------
 (1) _PrintFloat                                           7     5      2    1045
                                             11 COMMON     2     0      2
                                              0 BANK0      5     5      0
                            ___fltol (ARG)
                            ___lwdiv
                            ___lwmod
 ---------------------------------------------------------------------------------
 (2) ___lwmod                                              6     2      4     311
                                              0 COMMON     6     2      4
 ---------------------------------------------------------------------------------
 (2) ___lwdiv                                              8     4      4     314
                                              0 COMMON     8     4      4
 ---------------------------------------------------------------------------------
 (1) _PWM_Start                                            1     1      0       0
 ---------------------------------------------------------------------------------
 (1) _PWM_SetDutyCycle                                     4     3      1     317
                                              0 COMMON     4     3      1
 ---------------------------------------------------------------------------------
 (1) _PWM_Init                                             3     3      0      22
                                              0 COMMON     3     3      0
 ---------------------------------------------------------------------------------
 (1) _LCD_Print                                            2     0      2     621
                                              4 COMMON     2     0      2
                      _Lcd_DataWrite
 ---------------------------------------------------------------------------------
 (2) _Lcd_DataWrite                                        2     2      0      44
                                              2 COMMON     2     2      0
                         _LCD_Enable
 ---------------------------------------------------------------------------------
 (1) _LCD_Init                                            13    13      0     137
                                              4 COMMON     4     4      0
                                              0 BANK0      9     9      0
                       _Lcd_CmdWrite
 ---------------------------------------------------------------------------------
 (1) _LCD_GoToXY                                           2     1      1     642
                                              4 COMMON     2     1      1
                       _Lcd_CmdWrite
 ---------------------------------------------------------------------------------
 (1) _LCD_Clear                                            0     0      0      44
                       _Lcd_CmdWrite
 ---------------------------------------------------------------------------------
 (2) _Lcd_CmdWrite                                         2     2      0      44
                                              2 COMMON     2     2      0
                         _LCD_Enable
 ---------------------------------------------------------------------------------
 (3) _LCD_Enable                                           2     2      0       0
                                              0 COMMON     2     2      0
 ---------------------------------------------------------------------------------
 (1) _ADC_Init                                             1     1      0       0
                                              0 COMMON     1     1      0
 ---------------------------------------------------------------------------------
 (1) _ADC_GetAdcValue                                      4     2      2      22
                                              0 COMMON     4     2      2
 ---------------------------------------------------------------------------------
 Estimated maximum stack depth 3
 ---------------------------------------------------------------------------------

 Call Graph Graphs:

 _main (ROOT)
   _ADC_GetAdcValue
   _ADC_Init
   _LCD_Clear
     _Lcd_CmdWrite
       _LCD_Enable
   _LCD_GoToXY
     _Lcd_CmdWrite
   _LCD_Init
     _Lcd_CmdWrite
   _LCD_Print
     _Lcd_DataWrite
       _LCD_Enable
   _PWM_Init
   _PWM_SetDutyCycle
   _PWM_Start
   _PrintFloat
     ___fltol (ARG)
     ___lwdiv (ARG)
     ___lwmod (ARG)
   _UART_Init
     ___lldiv
   _UART_SendTxt
     _UART_TxChar
   ___fladd
   ___fldiv
     _ADC_GetAdcValue (ARG)
     ___flmul (ARG)
       _ADC_GetAdcValue (ARG)
       __Umul8_16 (ARG)
       ___xxtofl (ARG)
         _ADC_GetAdcValue (ARG)
     ___xxtofl (ARG)
   ___flge
     ___fladd (ARG)
   ___flmul
   ___fltol
   ___xxtofl

 Address spaces:
Name               Size   Autos  Total    Cost      Usage
BANK3               60      0       0       9        0.0%
BITBANK3            60      0       0       8        0.0%
SFR3                 0      0       0       4        0.0%
BITSFR3              0      0       0       4        0.0%
BANK2               60      0       0      11        0.0%
BITBANK2            60      0       0      10        0.0%
SFR2                 0      0       0       5        0.0%
BITSFR2              0      0       0       5        0.0%
BANK1               50     15      15       7       26.2%
BITBANK1            50      0       0       6        0.0%
SFR1                 0      0       0       2        0.0%
BITSFR1              0      0       0       2        0.0%
BANK0               50     3E      45       5       86.2%
BITBANK0            50      0       0       4        0.0%
SFR0                 0      0       0       1        0.0%
BITSFR0              0      0       0       1        0.0%
COMMON               E      E       E       1      100.0%
BITCOMMON            E      0       0       0        0.0%
CODE                 0      0       0       0        0.0%
DATA                 0      0      68      12        0.0%
ABS                  0      0      68       3        0.0%
NULL                 0      0       0       0        0.0%
STACK                0      0       0       2        0.0%
EEDATA             100      0       0       0        0.0%


Microchip Technology PIC Macro Assembler V2.35 build 20211206165544 
Symbol Table                                                                                   Fri Jan 06 21:46:48 2023

                     ?_LCD_GoToXY 0074                       ?_LCD_Enable 0070                      ___fldiv@aexp 0059  
                    ___fldiv@bexp 0058                                 pc 0002                      ___fldiv@sign 0051  
                              l34 0058                                l43 0489                                l72 17FF  
                              l82 097E                                l90 17E3                                l93 17A8  
                              l85 094F                                l79 0A66                                _GO 00FA  
                              l99 08B2                                fsr 0004               __Umul8_16@word_mpld 0076  
                             l120 09EE                               l202 088C                               l131 17A1  
                             l128 08FF                               l160 17B1                               l162 17B7  
                             l163 17BA                               l324 0B10                               l157 09B5  
                             l175 08D8                               l602 0F45                               l196 086A  
                             l612 0F8D                               l606 0F6B                               l462 0077  
                             l199 0882                               l623 0FF1                               l615 0FCD  
                             l560 0AAA                               l624 0FFF                               l465 00E3  
                             l481 0B75                               l721 0121                               l570 0A28  
                             l466 00FC                               l474 0B8A                               l723 01B8  
                             l484 0B8A                               l581 0DCB                               l661 0D5B  
                             l653 0CD9                               l637 0BE7                               l734 0182  
                             l639 0D67                               l735 018E                               l727 0166  
                             l585 0E74                               l594 0FFF                               l587 0E49  
                             l659 0D4B                               l683 0759                               l677 07ED  
                             l696 0914                               l689 07E1                               l698 0926  
                             _PR2 0092                               fsr0 0004                               indf 0000  
                    ___flmul@aexp 0038                      ___flmul@bexp 0039                      ___flmul@sign 0033  
                    ___flmul@temp 003E                      ___flmul@prod 003A           __end_of_ADC_GetAdcValue 088D  
                    main@SetPoint 00AC                      ___fltol@exp1 007A                              l2000 08E0  
                            l2002 08E5                              l2004 08EA                              l2020 08C2  
                            l2030 088D                              l2014 179E                              l2022 08C8  
                            l2110 0D6F                              l2102 0B6A                              l2040 0879  
                            l2024 17CF                              l2032 088E                              l2008 08EF  
                            l2016 08B3                              l2200 0E5F                              l2120 0D84  
                            l2112 0D75                              l2104 0B7A                              l2042 087A  
                            l2050 17A2                              l2026 17D4                              l2034 089C  
                            l2018 08B4                              l2202 0E6A                              l2130 0D9C  
                            l2122 0D8C                              l2114 0D79                              l2106 0B7F  
                            l2044 087F                              l2028 17DC                              l2036 08A2  
                            l2300 0FFE                              l2220 0EB0                              l2212 0E86  
                            l2204 0E6E                              l2140 0DAE                              l2132 0DA2  
                            l2124 0D8D                              l2116 0D7A                              l2108 0D68  
                            l2060 0097                              l2052 0059                              l2046 0886  
                            l2038 086C                              l2222 0EB2                              l2214 0E9D  
                            l2206 0E78                              l2230 0EC7                              l2142 0DB3  
                            l2150 0DC3                              l2134 0DA3                              l2118 0D7F  
                            l2126 0D8F                              l2310 0B9D                              l2302 0B8B  
                            l2062 00BB                              l2054 006F                              l2232 0EDD  
                            l2240 0F37                              l2224 0EB6                              l2216 0EA1  
                            l2208 0E7D                              l2160 0DE1                              l2152 0DD1  
                            l2144 0DB8                              l2136 0DA9                              l2128 0D97  
                            l2400 0CB9                              l2312 0BA2                              l2320 0BB2  
                            l2304 0B92                              l2064 00BF                              l2056 008B  
                            l2080 0B3A                              l2072 0B11                              l2250 0F66  
                            l2242 0F4D                              l2234 0F1D                              l2226 0EB7  
                            l2218 0EA5                              l2170 0DF5                              l2162 0DE5  
                            l2154 0DD5                              l2146 0DC0                              l2138 0DAD  
                            l2402 0CBD                              l2330 0BCA                              l2322 0BBA  
                            l2314 0BA7                              l2306 0B98                              l2066 00F9  
                            l2058 0093                              l2082 0B3B                              l2074 0B1C  
                            l2260 0F79                              l2252 0F6A                              l2244 0F52  
                            l2236 0F23                              l2228 0EC2                              l2180 0E09  
                            l2172 0DF9                              l2164 0DE9                              l2156 0DD9  
                            l2148 0DC1                              l2420 0D0E                              l2412 0CDE  
                            l2404 0CBE                              l2332 0BCF                              l2340 0BDF  
                            l2324 0BBF                              l2316 0BAF                              l2308 0B9C  
                            l2068 00FB                              l2500 0598                              l2084 0B43  
                            l2270 0F8A                              l2254 0F6F                              l2262 0F7B  
                            l2238 0F28                              l2190 0E2D                              l2182 0E0D  
                            l2174 0DFD                              l2166 0DED                              l2158 0DDD  
                            l2430 0D42                              l2414 0CE3                              l2422 0D14  
                            l2406 0CC2                              l2342 0BEF                              l2350 0C08  
                            l2334 0BD4                              l2326 0BC5                              l2318 0BB0  
                            l2510 05FA                              l2502 05B4                              l2094 0B51  
                            l2086 0B45                              l2078 0B25                              l2280 0FA9  
                            l2256 0F72                              l2248 0F5B                              l2264 0F7F  
                            l2192 0E4D                              l2184 0E11                              l2176 0E01  
                            l2168 0DF1                              l2432 0D4A                              l2424 0D21  
                            l2416 0CF1                              l2408 0CD6                              l2360 0C30  
                            l2352 0C0D                              l2344 0BFB                              l2336 0BDC  
                            l2328 0BC9                              l2520 068A                              l2512 0617  
                            l2504 05BD                              l2088 0B49                              l2096 0B63  
                            l2600 0144                              l1810 17F6                              l2290 0FE4  
                            l2282 0FC9                              l2274 0F92                              l2266 0F80  
                            l2258 0F74                              l2194 0E58                              l2178 0E05  
                            l2186 0E15                              l2434 0D51                              l2426 0D2F  
                            l2418 0CF5                              l2370 0C59                              l2362 0C38  
                            l2346 0BFF                              l2338 0BDD                              l2530 071C  
                            l2522 06B7                              l2514 0630                              l2506 05CD  
                            l2450 049E                              l2610 0178                              l2602 014B  
                            l1804 17E4                              l1820 0963                              l1812 0951  
                            l1900 09F5                              l2292 0FE5                              l2284 0FD2  
                            l2276 0F97                              l2268 0F84                              l2196 0E5A  
                            l2188 0E16                              l2436 0D55                              l2428 0D3E  
                            l2380 0C7A                              l2372 0C5D                              l2364 0C40  
                            l2356 0C16                              l2532 0725                              l2540 0739  
                            l2524 06DD                              l2516 064D                              l2508 05EA  
                            l2460 04B3                              l2452 049F                              l2444 048D  
                            l2620 01AB                              l2612 017C                              l2604 014F  
                            l2700 03AE                              l1806 17E7                              l1822 0971  
                            l1814 0956                              l1830 092D                              l1910 0A11  
                            l1902 09F8                              l2294 0FE9                              l2286 0FD7  
                            l2278 0FA5                              l2198 0E5E                              l2438 0D57  
                            l2390 0C9C                              l2382 0C88                              l2374 0C5E  
                            l2366 0C42                              l2358 0C28                              l2542 073D  
                            l2534 0729                              l2526 0705                              l2518 067A  
                            l2470 04CB                              l2462 04BB                              l2454 04A4  
                            l2446 0494                              l2622 01AF                              l2614 0186  
                            l2606 015D                              l2710 0414                              l2702 03B7  
                            l2630 01BD                              l1808 17F0                              l1824 0975  
                            l1816 095A                              l1840 0946                              l1832 092E  
                            l1912 0A17                              l1904 09FF                              l2296 0FEB  
                            l2288 0FDF                              l2392 0CA5                              l2368 0C47  
                            l2376 0C67                              l2384 0C8C                              l1920 0901  
                            l2560 078E                              l2552 075E                              l2544 073E  
                            l2536 072A                              l2528 070E                              l2480 04E7  
                            l2472 04D0                              l2464 04C0                              l2456 04A9  
                            l2448 049A                              l2624 01B0                              l2616 0190  
                            l2608 016D                              l2720 0474                              l2712 041B  
                            l2704 03C0                              l2640 01E0                              l2632 01C5  
                            l1826 0979                              l1818 095E                              l1842 094A  
                            l1834 0932                              l1914 0A1E                              l1906 0A03  
                            l1850 0ABB                              l2298 0FFA                              l2394 0CA9  
                            l2386 0C92                              l2378 0C79                              l1930 0922  
                            l1922 0903                              l2570 07C5                              l2554 0763  
                            l2562 0794                              l2546 0742                              l2538 0733  
                            l2490 050A                              l2482 04EC                              l2474 04D5  
                            l2466 04C6                              l2458 04B1                              l2618 01A6  
                            l2722 047C                              l2714 041D                              l2706 03C9  
                            l2650 0201                              l2642 01E8                              l2634 01CA  
                            l1836 0937                              l1828 0928                              l1908 0A07  
                            l1916 0A24                              l1940 0011                              l1860 0AEA  
                            l1852 0ABE                              l1844 17B1                              l2396 0CAA  
                            l2388 0C9A                              l1924 090A                              l2580 07E5  
                            l2572 07C7                              l2564 07A1                              l2556 0771  
                            l2548 0756                              l2492 0517                              l2484 04F1  
                            l2476 04DD                              l2468 04CA                              l2716 042A  
                            l2708 03D2                              l2660 028F                              l2652 020A  
                            l2644 01EE                              l2636 01CF                              l2628 01B9  
                            l1838 0945                              l1950 0054                              l1942 001B  
                            l1934 0006                              l1862 0AF8                              l1854 0ACB  
                            l1846 17B8                              l2398 0CB3                              l1926 090E  
                            l2574 07D5                              l2566 07AC                              l2558 0775  
                            l2494 0534                              l2478 04DF                              l2590 0119  
                            l2718 046C                              l2670 0320                              l2662 02F3  
                            l2654 0219                              l2646 01F1                              l2638 01DA  
                            l1952 085F                              l1960 0A3E                              l1880 0A79  
                            l1872 0A67                              l1944 0021                              l1864 0AF9  
                            l1856 0ACF                              l1848 0AAB                              l1928 091D  
                            l2576 07D9                              l2568 07BB                              l2496 0550  
                            l2488 04FA                              l2592 0129                              l2584 0100  
                            l2680 0347                              l2672 0327                              l2664 0300  
                            l2656 0223                              l2648 01FA                              l1954 0862  
                            l1970 0A45                              l1962 0A3E                              l1890 0A99  
                            l1882 0A7D                              l1874 0A69                              l1946 003B  
                            l1938 000A                              l1866 0B02                              l1858 0AD8  
                            l2578 07DA                              l2498 057C                              l2586 0105  
                            l2690 0384                              l2682 0350                              l2674 0330  
                            l2666 0304                              l2658 022B                              l1956 0866  
                            l1972 0A51                              l1964 0A41                              l1980 09B7  
                            l2764 08F7                              l1892 0AA0                              l1884 0A81  
                            l1876 0A6F                              l1948 004C                              l1868 0B08  
                            l2596 0132                              l2588 0109                              l2692 038C  
                            l2684 0359                              l2676 0337                              l2668 031B  
                            l1974 0A59                              l1958 0A29                              l2766 09E6  
                            l1982 09B8                              l1886 0A92                              l1878 0A72  
                            l1894 0AA6                              l2598 0137                              l2694 0395  
                            l2686 0362                              l2678 0340                              l1984 09C4  
                            l1992 09DE                              l1888 0A98                              l1976 097F  
                            l2696 039D                              l2688 036B                              l1986 09CB  
                            l1898 09EF                              l1978 0989                              l2698 03A6  
                            l1988 09D7                              l1998 08DA                              _ADON 00F8  
                            STR_1 0810                              STR_2 0823                              STR_3 0834  
                            STR_4 085B                              STR_5 0834                              STR_6 0857  
                            STR_7 0842                              STR_8 085B                              STR_9 084D  
                            u2010 0A81                              u2011 0A80                              u2005 0A73  
                            u2030 0A92                              u2110 0A24                              u2031 0A91  
                            u2111 0A23                              u2200 08E0                              u3000 0C5D  
                            u2120 090E                              u2201 08DF                              u2025 0A82  
                            u2105 0A18                              u3001 0C5C                              u2121 090D  
                            u2050 0AA6                              u2210 08D8                              u2051 0AA5  
                            u2035 0A8E                              u2211 08D7                              u2220 17D4  
                            u2060 09F5                              u3100 0CD6                              u3020 0C79  
                            u2300 00BF                              u2140 0922                              u2221 17D3  
                            u2045 0A9A                              u2061 09F4                              u3101 0CD5  
                            u3021 0C78                              u2301 00BE                              u2141 0921  
                            u2230 08B2                              u2150 0011                              u3110 0CDD  
                            u3030 0C92                              u2231 08B1                              u2151 0010  
                            u3111 0CDC                              u3031 0C91                              u3015 0C60  
                            u2311 00CE                              u2135 0915                              u2080 0A07  
                            u2160 0058                              u3120 0CE3                              u3040 0C9A  
                            u2320 00F9                              u2312 00CF                              u3200 04A9  
                            u2081 0A06                              u2161 0057                              u3121 0CE2  
                            u3041 0C99                              u3025 0C75                              u2321 00F8  
                            u2313 00D4                              u3201 04A8                              u2250 0886  
                            u2170 0A31                              u2090 0A11                              u3130 0CF5  
                            u2314 00D5                              u3210 04CA                              u2410 0B7A  
                            u2330 0B1C                              u2251 0885                              u2091 0A10  
                            u2075 09F9                              u3131 0CF4                              u2315 00DA  
                            u3211 04C9                              u2411 0B79                              u2331 0B1B  
                            u2180 0A66                              u2500 0DD1                              u3140 0D04  
                            u3060 0CA9                              u2316 00DB                              u2260 006F  
                            u3220 04D0                              u2420 0B7F                              u2340 0B33  
                            u2245 086F                              u2181 0A65                              u2501 0DD0  
                            u3061 0CA8                              u2325 00F5                              u2261 006E  
                            u3221 04CF                              u2421 0B7E                              u2405 0B6C  
                            u2190 0998                              u2510 0DD5                              u2430 0D79  
                            u3150 0D21                              u2270 008B                              u3230 04D5  
                            u2350 0B49                              u2095 0A0D                              u2511 0DD4  
                            u2431 0D78                              u3151 0D20                              u3055 0C9E  
                            u2271 008A                              u3311 05DC                              u3231 04D4  
                            u2351 0B48                              u2600 0E7D                              u2520 0E2D  
                            u2440 0D7F                              u3160 0D3E                              u3080 0CBD  
                            u2280 0097                              u3312 05E3                              u3240 04EC  
                            u2360 0B50                              u2185 0A62                              u2601 0E7C  
                            u2521 0E2C                              u2441 0D7E                              u3161 0D3D  
                            u3145 0CFF                              u3081 0CBC                              u2281 0096  
                            u3401 06F7                              u3321 0609                              u3313 05EA  
                            u3305 05B6                              u3241 04EB                              u2361 0B4F  
                            u2345 0B2E                              u2530 0E36                              u2450 0D84  
                            u3170 0D55                              u3090 0CC2                              u3402 06FE  
                            u3322 0610                              u3250 04F1                              u2195 0993  
                            u2611 0E8F                              u2531 0E34                              u2451 0D83  
                            u3171 0D54                              u3155 0D1D                              u3091 0CC1  
                            u3075 0CAC                              u2291 00A6                              u3403 0705  
                            u3323 0617                              u3251 04F0                              u2700 0F4D  
                            u2620 0EA1                              u2612 0E96                              u2540 0E37  
                            u2460 0DA2                              u2292 00A7                              u3500 0775  
                            u3180 049E                              u2380 0B62                              u2701 0F4C  
                            u2621 0EA0                              u2613 0E9D                              u2525 0E29  
                            u2461 0DA1                              u3165 0D3A                              u2293 00AC  
                            u3501 0774                              u3341 063F                              u3261 0542  
                            u3181 049D                              u2381 0B61                              u1910 17B7  
                            u2710 0F52                              u2630 0EA5                              u2550 0E4D  
                            u2470 0DAD                              u2294 00AD                              u3510 0784  
                            u3430 0729                              u3342 0646                              u3262 0549  
                            u3190 04A4                              u2390 0B69                              u1911 17B6  
                            u2711 0F51                              u2631 0EA4                              u2551 0E4C  
                            u2471 0DAC                              u2295 00B2                              u3431 0728  
                            u3415 0707                              u3351 066C                              u3343 064D  
                            u3335 0619                              u3271 055E                              u3263 0550  
                            u3191 04A3                              u2391 0B68                              u2375 0B52  
                            u1920 0ABB                              u2800 0F97                              u2640 0EB6  
                            u2560 0E5E                              u2480 0DB3                              u2296 00B3  
                            u3520 07A1                              u3352 0673                              u3272 0565  
                            u1905 093A                              u1921 0ABA                              u2801 0F96  
                            u2641 0EB5                              u2561 0E5D                              u2481 0DB2  
                            u3521 07A0                              u3425 071E                              u3361 0699  
                            u3353 067A                              u3281 058A                              u3273 056C  
                            u2810 0FA9                              u2730 0F6A                              u2490 0DB8  
                            u3530 07BB                              u3450 073D                              u3370 06C3  
                            u3362 06A0                              u3282 0591                              u3610 016C  
                            u2811 0FA8                              u2731 0F69                              u2491 0DB7  
                            u3531 07BA                              u3515 077F                              u3451 073C  
                            u3363 06A7                              u3291 05A6                              u3283 0598  
                            u3611 016B                              u1940 0ACF                              u2820 0FBA  
                            u2740 0F6F                              u2660 0EDD                              u2580 0E74  
                            u2900 0BA2                              u3540 07D9                              u3460 0742  
                            u3292 05AD                              u3700 0414                              u1941 0ACE  
                            u2741 0F6E                              u2725 0F5F                              u2661 0EDC  
                            u2581 0E73                              u2901 0BA1                              u3541 07D8  
                            u3525 079D                              u3461 0741                              u3445 072C  
                            u3381 06CF                              u3293 05B4                              u3605 015E  
                            u3701 0413                              u2830 0FC9                              u2750 0F79  
                            u2590 0E78                              u2910 0BA7                              u3470 0756  
                            u3390 06EB                              u3382 06D6                              u3630 017C  
                            u3550 0105                              u3710 041B                              u1935 0AC0  
                            u2831 0FC8                              u2751 0F78                              u2671 0EF6  
                            u2663 0ED9                              u2655 0EBB                              u2591 0E77  
                            u2575 0E63                              u2911 0BA6                              u3535 07B7  
                            u3471 0755                              u3383 06DD                              u3375 06BE  
                            u3631 017B                              u3551 0104                              u3711 041A  
                            u1960 0AEA                              u2840 0FD2                              u2760 0F7F  
                            u2680 0F0A                              u2672 0EF7                              u2920 0BC9  
                            u3480 075D                              u3640 0182                              u3560 0109  
                            u3720 046C                              u1961 0AE9                              u2841 0FD1  
                            u2825 0FB5                              u2761 0F7E                              u2681 0F0B  
                            u2673 0EFC                              u2921 0BC8                              u3481 075C  
                            u3641 0181                              u3625 0171                              u3561 0108  
                            u3721 046B                              u2850 0FD7                              u2770 0F84  
                            u2690 0F28                              u2682 0F10                              u2674 0EFD  
                            u2930 0BCF                              u3490 0763                              u3650 0186  
                            u3570 0129                              u3730 0474                              u1955 0AD1  
                            u2851 0FD6                              u2771 0F83                              u2691 0F27  
                            u2683 0F11                              u2675 0F02                              u2931 0BCE  
                            u3491 0762                              u3395 06E6                              u3651 0185  
                            u3571 0128                              u3731 0473                              u1980 0B08  
                            u2860 0FE4                              u2780 0F8A                              u2676 0F03  
                            u2940 0BD4                              u3660 019B                              u1981 0B07  
                            u1965 0AE6                              u2861 0FE3                              u2781 0F89  
                            u2941 0BD3                              u1990 0A6F                              u2870 0FE9  
                            u2790 0F91                              u2950 0BEF                              u3670 01AB  
                            u3590 014A                              u1895 0966                              u1991 0A6E  
                            u1975 0AFA                              u2871 0FE8                              u2791 0F90  
                            u2951 0BEE                              u3671 01AA                              u3591 0149  
                            u2880 0FFE                              u2960 0C0D                              u3680 01AF  
                            u2881 0FFD                              u2961 0C0C                              u3681 01AE  
                            u3665 0196                              u3585 013C                              u2970 0C47  
                            u2890 0B9C                              u3690 0300                              u2971 0C46  
                            u2891 0B9B                              u3691 02FF                              u3747 0212  
                            _RCIF 0065                              u3757 021F                              u3767 17EB  
                            u3695 02FC                              u3777 17FA                              u2985 0C49  
                            u3787 087C                              u2995 0C52                              _TXIF 0064  
                     LCD_GoToXY@X 0075                       LCD_GoToXY@Y 0074                              _main 01B9  
                            btemp 007E                  __end_of_ADC_Init 086B                     main@DutyCycle 00B4  
            __end_of_Lcd_CmdWrite 097F                              start 0000                   ___fldiv@new_exp 0052  
                __end_of_LCD_Init 0A67                     ___fltol@sign1 0079                   __end_of___fladd 1000  
                           ?_main 0070                   __end_of___fldiv 0D68                             STR_10 0857  
                 __end_of___flmul 07EE                   __end_of___fltol 0B8B                   __end_of___lldiv 0B11  
                 __end_of___lwdiv 0AAB                   __end_of___lwmod 0A29                             _RCREG 001A  
                           _RCSTA 0018                             _SPBRG 0099                             _PORTC 0007  
                           _PORTD 0008                             _TRISA 0085                             _TRISC 0087  
                           _TRISD 0088                             _TXREG 0019                             _TXSTA 0098  
           __end_of_Lcd_DataWrite 0950                             pclath 000A                  __end_of_PWM_Init 09EF  
                           status 0003                             wtemp0 007E                   __initialization 07EE  
                    __end_of_main 048D                            ??_main 005A                 __end_of_LCD_Clear 17A9  
               __end_of_LCD_Print 08B3                      LCD_Print@Str 0074                  ?_ADC_GetAdcValue 0070  
                          _ADCON0 001F                            _ADCON1 009F                            _ADRESH 001E  
                          _ADRESL 009E                            _CCPR1L 0015                            _CCPR2L 001B  
        __end_of_PWM_SetDutyCycle 0900           PWM_SetDutyCycle@channel 0073                            _TMR2ON 0092  
                __end_of___xxtofl 01B9                      ?_UART_TxChar 0070                 __end_of_UART_Init 09B6  
                          ___flge 0059                         ??___fladd 0020                         ??___fldiv 0048  
                       ??___flmul 002E                         ??___fltol 0074                         ??___lldiv 0078  
                       ??___lwdiv 0074                         ??___lwmod 0074                        _PrintFloat 0003  
                       ?_ADC_Init 0070                 __end_of_PWM_Start 17A2                     LCD_Init@F1012 005E  
                      ___flge@ff1 0028                        ___flge@ff2 002C                      ___xxtofl@arg 0022  
                    ___xxtofl@exp 0021                      ___xxtofl@val 0074           __end_of__initialization 07FC  
                       ?_LCD_Init 0070                        ___fltol@f1 0070                         LCD_Init@i 0027  
                  __pcstackCOMMON 0070                      ??_LCD_GoToXY 0075                      ??_LCD_Enable 0070  
                    __pidataBANK0 17A9                         ?_PWM_Init 0070                      _Lcd_CmdWrite 0950  
                      ??_ADC_Init 0070                __end_of_LCD_GoToXY 17E4                __end_of_LCD_Enable 1800  
                      ??_LCD_Init 0074                 __end_of__Umul8_16 0927                        __pmaintext 01B9  
                         ?___flge 0028                           _CCP1CON 0017                           _CCP2CON 001D  
                     ?_PrintFloat 007B                        ??_PWM_Init 0070                         ?___xxtofl 0074  
                         _GO_DONE 00FA         PWM_SetDutyCycle@dutyCycle 0070                        __stringtab 0800  
                   ?_UART_SendTxt 0071                           ___fladd 0D68                           ___fldiv 0B8B  
                         ___flmul 048D                           ___fltol 0B11                           ___lldiv 0AAB  
                         ___lwdiv 0A67                           ___lwmod 09EF                  Lcd_DataWrite@dat 0073  
                         __ptext1 00FD                           __ptext2 0B11                           __ptext3 048D  
                         __ptext4 0900                           __ptext5 0059                           __ptext6 0B8B  
                         __ptext7 0D68                           __ptext8 08B3                           __ptext9 17B0  
                     PrintFloat@N 007B                       PrintFloat@i 0023                        ??___xxtofl 0078  
                       _LCD_Clear 17A2                           main@Str 00A0                         _LCD_Print 088D  
            end_of_initialization 07FC                 ?_PWM_SetDutyCycle 0070                    ??_UART_SendTxt 0073  
              ??_PWM_SetDutyCycle 0071                   ___lldiv@divisor 0070                   ___lldiv@counter 007D  
                       _UART_Init 097F  ADC_GetAdcValue@var_adcChannel_u8 0073                       ___fladd@grs 007B  
                   ___xxtofl@sign 0020                        ?_LCD_Clear 0070                       ___fldiv@grs 0054  
                     ___fldiv@rem 004D                        ?_LCD_Print 0074                         _PWM_Start 179E  
                PWM_Start@channel 0070                       ___flmul@grs 0034                    __end_of___flge 00FD  
                      ?_UART_Init 0020               start_initialization 07EE                        ?_PWM_Start 0070  
                   _Lcd_DataWrite 0927                          ??___flge 0030                        init_fetch0 17BB  
                       __Umul8_16 0900                       __pdataBANK0 005E                      ??_PrintFloat 0020  
            __end_of_UART_SendTxt 08D9                         ___fladd@a 0074                         ___fladd@b 0070  
                       ___fldiv@a 0040                         ___fldiv@b 0044                         ___flmul@a 002A  
                       ___flmul@b 0026                         ___latbits 0002                     __pcstackBANK0 0020  
                   __pcstackBANK1 00A0                       ??_LCD_Clear 0074                       ??_LCD_Print 0076  
                  ?_Lcd_DataWrite 0070                __end_of_PrintFloat 0059                  ___lwdiv@dividend 0072  
                        ?___fladd 0070                          ?___fldiv 0040                          ?___flmul 0026  
                        ?___fltol 0070                          ?___lldiv 0070                 ??_ADC_GetAdcValue 0072  
                      ?__Umul8_16 0070                          ?___lwdiv 0070                          ?___lwmod 0070  
                     ??_UART_Init 0022                         __pstrings 0800                          _ADC_Init 085F  
                   PrintFloat@Str 0022                     UART_TxChar@ch 0070                  ___lwdiv@quotient 0075  
                     ??_PWM_Start 0070                          _LCD_Init 0A29                     ??_UART_TxChar 0070  
               UART_Init@baudRate 0020                   Lcd_CmdWrite@cmd 0073                         main@Count 00AA  
                     __stringbase 080F                          _PWM_Init 09B6                   ??_Lcd_DataWrite 0072  
                 UART_SendTxt@Str 0071                       ??__Umul8_16 0072               __end_of_UART_TxChar 17BB  
              __end_of__stringtab 0810                   PWM_Init@channel 0072                     ?_Lcd_CmdWrite 0070  
                        ___xxtofl 00FD                   ___lwdiv@divisor 0070                   ___lwdiv@counter 0077  
                        __ptext10 097F                          __ptext11 0AAB                          __ptext20 0A29  
                        __ptext12 0003                          __ptext21 17CE                          __ptext13 09EF  
                        __ptext22 17A2                          __ptext14 0A67                          __ptext23 0950  
                        __ptext15 179E                          __ptext24 17E4                          __ptext16 08D9  
                        __ptext25 085F                          __ptext17 09B6                          __ptext26 086B  
                        __ptext18 088D                          __ptext19 0927                      _UART_SendTxt 08B3  
                      _LCD_GoToXY 17CE                        _LCD_Enable 17E4                    ??_Lcd_CmdWrite 0072  
                        init_ram0 17BF                  ___lwmod@dividend 0072                   _ADC_GetAdcValue 086B  
                ___lldiv@dividend 0074                         stringcode 080A                       _UART_TxChar 17B0  
                _PWM_SetDutyCycle 08D9            __Umul8_16@multiplicand 0070                  ___lldiv@quotient 0079  
                 ___lwmod@divisor 0070                   ___lwmod@counter 0075                          stringdir 080A  
                        stringtab 0800                     ___fladd@signs 0078                  LCD_Init@Commands 0020  
                    ___fladd@aexp 0079                      ___fladd@bexp 007A              __Umul8_16@multiplier 0078  
               __Umul8_16@product 0074                      main@FeedBack 00B0  
